
out/bin/none:     file format elf32-i386


Disassembly of section .text:

00305000 <_start>:
  305000:	eb 0e                	jmp    305010 <start>
  305002:	66 90                	xchg   %ax,%ax

00305004 <multiboot_header>:
  305004:	02 b0 ad 1b 03 00    	add    0x31bad(%eax),%dh
  30500a:	00 00                	add    %al,(%eax)
  30500c:	fb                   	sti    
  30500d:	4f                   	dec    %edi
  30500e:	52                   	push   %edx
  30500f:	e4 fa                	in     $0xfa,%al

00305010 <start>:
  305010:	fa                   	cli    
  305011:	89 1d 00 20 31 00    	mov    %ebx,0x312000
  305017:	0f 20 c0             	mov    %cr0,%eax
  30501a:	83 c8 20             	or     $0x20,%eax
  30501d:	0f 22 c0             	mov    %eax,%cr0
  305020:	bf 00 09 20 00       	mov    $0x200900,%edi
  305025:	be 10 20 31 00       	mov    $0x312010,%esi
  30502a:	b9 40 00 00 00       	mov    $0x40,%ecx
  30502f:	c1 e9 02             	shr    $0x2,%ecx
  305032:	fc                   	cld    
  305033:	f3 a5                	rep movsl %ds:(%esi),%es:(%edi)
  305035:	0f 01 15 04 20 31 00 	lgdtl  0x312004
  30503c:	0f 01 1d 0a 20 31 00 	lidtl  0x31200a
  305043:	ea 4a 50 30 00 08 00 	ljmp   $0x8,$0x30504a

0030504a <new_env>:
  30504a:	b8 10 00 00 00       	mov    $0x10,%eax
  30504f:	8e d8                	mov    %eax,%ds
  305051:	8e c0                	mov    %eax,%es
  305053:	8e d0                	mov    %eax,%ss
  305055:	8e e0                	mov    %eax,%fs
  305057:	8e e8                	mov    %eax,%gs
  305059:	bc f0 ff 3f 00       	mov    $0x3ffff0,%esp
  30505e:	e8 35 2a 00 00       	call   307a98 <main>
  305063:	fb                   	sti    
  305064:	eb fe                	jmp    305064 <new_env+0x1a>
  305066:	66 90                	xchg   %ax,%ax

00305068 <divide_error>:
  305068:	6a 00                	push   $0x0
  30506a:	68 3c 59 30 00       	push   $0x30593c

0030506f <error_code>:
  30506f:	87 44 24 04          	xchg   %eax,0x4(%esp)
  305073:	87 0c 24             	xchg   %ecx,(%esp)
  305076:	52                   	push   %edx
  305077:	53                   	push   %ebx
  305078:	55                   	push   %ebp
  305079:	56                   	push   %esi
  30507a:	57                   	push   %edi
  30507b:	06                   	push   %es
  30507c:	1e                   	push   %ds
  30507d:	0f a0                	push   %fs
  30507f:	0f a8                	push   %gs
  305081:	54                   	push   %esp
  305082:	50                   	push   %eax
  305083:	b8 10 00 00 00       	mov    $0x10,%eax
  305088:	8e d8                	mov    %eax,%ds
  30508a:	8e c0                	mov    %eax,%es
  30508c:	8e e0                	mov    %eax,%fs
  30508e:	ff d1                	call   *%ecx
  305090:	83 c4 08             	add    $0x8,%esp
  305093:	0f a9                	pop    %gs
  305095:	0f a1                	pop    %fs
  305097:	1f                   	pop    %ds
  305098:	07                   	pop    %es
  305099:	5f                   	pop    %edi
  30509a:	5e                   	pop    %esi
  30509b:	5d                   	pop    %ebp
  30509c:	5b                   	pop    %ebx
  30509d:	5a                   	pop    %edx
  30509e:	59                   	pop    %ecx
  30509f:	58                   	pop    %eax
  3050a0:	cf                   	iret   

003050a1 <single_step_exception>:
  3050a1:	6a 00                	push   $0x0
  3050a3:	68 5a 59 30 00       	push   $0x30595a
  3050a8:	eb c5                	jmp    30506f <error_code>

003050aa <nmi>:
  3050aa:	6a 00                	push   $0x0
  3050ac:	68 88 59 30 00       	push   $0x305988
  3050b1:	eb bc                	jmp    30506f <error_code>

003050b3 <breakpoint_exception>:
  3050b3:	6a 00                	push   $0x0
  3050b5:	68 a6 59 30 00       	push   $0x3059a6
  3050ba:	eb b3                	jmp    30506f <error_code>

003050bc <overflow>:
  3050bc:	6a 00                	push   $0x0
  3050be:	68 d4 59 30 00       	push   $0x3059d4
  3050c3:	eb aa                	jmp    30506f <error_code>

003050c5 <bounds_check>:
  3050c5:	6a 00                	push   $0x0
  3050c7:	68 f2 59 30 00       	push   $0x3059f2
  3050cc:	eb a1                	jmp    30506f <error_code>

003050ce <inval_opcode>:
  3050ce:	6a 00                	push   $0x0
  3050d0:	68 10 5a 30 00       	push   $0x305a10
  3050d5:	eb 98                	jmp    30506f <error_code>

003050d7 <copr_not_available>:
  3050d7:	6a 00                	push   $0x0
  3050d9:	68 2e 5a 30 00       	push   $0x305a2e
  3050de:	eb 8f                	jmp    30506f <error_code>

003050e0 <double_fault>:
  3050e0:	68 4c 5a 30 00       	push   $0x305a4c
  3050e5:	eb 88                	jmp    30506f <error_code>

003050e7 <copr_seg_overrun>:
  3050e7:	6a 00                	push   $0x0
  3050e9:	68 6a 5a 30 00       	push   $0x305a6a
  3050ee:	e9 7c ff ff ff       	jmp    30506f <error_code>

003050f3 <inval_tss>:
  3050f3:	68 88 5a 30 00       	push   $0x305a88
  3050f8:	e9 72 ff ff ff       	jmp    30506f <error_code>

003050fd <segment_not_present>:
  3050fd:	68 a6 5a 30 00       	push   $0x305aa6
  305102:	e9 68 ff ff ff       	jmp    30506f <error_code>

00305107 <stack_exception>:
  305107:	68 c4 5a 30 00       	push   $0x305ac4
  30510c:	e9 5e ff ff ff       	jmp    30506f <error_code>

00305111 <general_protection>:
  305111:	68 e2 5a 30 00       	push   $0x305ae2
  305116:	e9 54 ff ff ff       	jmp    30506f <error_code>

0030511b <page_fault>:
  30511b:	68 00 5b 30 00       	push   $0x305b00
  305120:	e9 4a ff ff ff       	jmp    30506f <error_code>

00305125 <copr_error>:
  305125:	6a 00                	push   $0x0
  305127:	68 75 5b 30 00       	push   $0x305b75
  30512c:	e9 3e ff ff ff       	jmp    30506f <error_code>

00305131 <none>:
  305131:	6a 00                	push   $0x0
  305133:	68 93 5b 30 00       	push   $0x305b93
  305138:	e9 32 ff ff ff       	jmp    30506f <error_code>

0030513d <switch_task>:
  30513d:	60                   	pusha  
  30513e:	06                   	push   %es
  30513f:	1e                   	push   %ds
  305140:	0f a0                	push   %fs
  305142:	0f a8                	push   %gs
  305144:	b8 10 00 00 00       	mov    $0x10,%eax
  305149:	8e d8                	mov    %eax,%ds
  30514b:	8e c0                	mov    %eax,%es
  30514d:	8e e0                	mov    %eax,%fs
  30514f:	8e e8                	mov    %eax,%gs
  305151:	8b 1d 04 26 31 00    	mov    0x312604,%ebx
  305157:	89 a3 b0 00 00 00    	mov    %esp,0xb0(%ebx)
  30515d:	e8 a2 14 00 00       	call   306604 <sched>
  305162:	8b a3 b0 00 00 00    	mov    0xb0(%ebx),%esp
  305168:	8b 83 b4 00 00 00    	mov    0xb4(%ebx),%eax
  30516e:	0f 22 d8             	mov    %eax,%cr3
  305171:	0f a9                	pop    %gs
  305173:	0f a1                	pop    %fs
  305175:	1f                   	pop    %ds
  305176:	07                   	pop    %es
  305177:	61                   	popa   
  305178:	cf                   	iret   

00305179 <hwint00>:
  305179:	60                   	pusha  
  30517a:	06                   	push   %es
  30517b:	1e                   	push   %ds
  30517c:	0f a0                	push   %fs
  30517e:	0f a8                	push   %gs
  305180:	b8 10 00 00 00       	mov    $0x10,%eax
  305185:	8e d8                	mov    %eax,%ds
  305187:	8e c0                	mov    %eax,%es
  305189:	8e e0                	mov    %eax,%fs
  30518b:	8e e8                	mov    %eax,%gs
  30518d:	e4 21                	in     $0x21,%al
  30518f:	0a 05 01 00 00 00    	or     0x1,%al
  305195:	e6 21                	out    %al,$0x21
  305197:	b0 20                	mov    $0x20,%al
  305199:	e6 20                	out    %al,$0x20
  30519b:	ff 05 40 26 31 00    	incl   0x312640
  3051a1:	6a 00                	push   $0x0
  3051a3:	b8 00 00 00 00       	mov    $0x0,%eax
  3051a8:	ff 34 85 00 42 31 00 	pushl  0x314200(,%eax,4)
  3051af:	ff 14 85 40 42 31 00 	call   *0x314240(,%eax,4)
  3051b6:	83 c4 08             	add    $0x8,%esp
  3051b9:	8b 1d 04 26 31 00    	mov    0x312604,%ebx
  3051bf:	89 a3 b0 00 00 00    	mov    %esp,0xb0(%ebx)
  3051c5:	e8 3a 14 00 00       	call   306604 <sched>
  3051ca:	8b a3 b0 00 00 00    	mov    0xb0(%ebx),%esp
  3051d0:	8b 83 b4 00 00 00    	mov    0xb4(%ebx),%eax
  3051d6:	0f 22 d8             	mov    %eax,%cr3
  3051d9:	e4 21                	in     $0x21,%al
  3051db:	24 fe                	and    $0xfe,%al
  3051dd:	e6 21                	out    %al,$0x21
  3051df:	0f a9                	pop    %gs
  3051e1:	0f a1                	pop    %fs
  3051e3:	1f                   	pop    %ds
  3051e4:	07                   	pop    %es
  3051e5:	61                   	popa   
  3051e6:	cf                   	iret   

003051e7 <hwint01>:
  3051e7:	60                   	pusha  
  3051e8:	06                   	push   %es
  3051e9:	1e                   	push   %ds
  3051ea:	0f a0                	push   %fs
  3051ec:	0f a8                	push   %gs
  3051ee:	b8 10 00 00 00       	mov    $0x10,%eax
  3051f3:	8e d8                	mov    %eax,%ds
  3051f5:	8e c0                	mov    %eax,%es
  3051f7:	8e e0                	mov    %eax,%fs
  3051f9:	8e e8                	mov    %eax,%gs
  3051fb:	e4 21                	in     $0x21,%al
  3051fd:	0c 02                	or     $0x2,%al
  3051ff:	e6 21                	out    %al,$0x21
  305201:	b0 20                	mov    $0x20,%al
  305203:	e6 20                	out    %al,$0x20
  305205:	b8 01 00 00 00       	mov    $0x1,%eax
  30520a:	fb                   	sti    
  30520b:	6a 01                	push   $0x1
  30520d:	ff 34 85 00 42 31 00 	pushl  0x314200(,%eax,4)
  305214:	ff 14 85 40 42 31 00 	call   *0x314240(,%eax,4)
  30521b:	83 c4 08             	add    $0x8,%esp
  30521e:	fa                   	cli    
  30521f:	e4 21                	in     $0x21,%al
  305221:	24 fd                	and    $0xfd,%al
  305223:	e6 21                	out    %al,$0x21
  305225:	0f a9                	pop    %gs
  305227:	0f a1                	pop    %fs
  305229:	1f                   	pop    %ds
  30522a:	07                   	pop    %es
  30522b:	61                   	popa   
  30522c:	cf                   	iret   

0030522d <hwint02>:
  30522d:	60                   	pusha  
  30522e:	06                   	push   %es
  30522f:	1e                   	push   %ds
  305230:	0f a0                	push   %fs
  305232:	0f a8                	push   %gs
  305234:	b8 10 00 00 00       	mov    $0x10,%eax
  305239:	8e d8                	mov    %eax,%ds
  30523b:	8e c0                	mov    %eax,%es
  30523d:	8e e0                	mov    %eax,%fs
  30523f:	8e e8                	mov    %eax,%gs
  305241:	e4 21                	in     $0x21,%al
  305243:	0c 04                	or     $0x4,%al
  305245:	e6 21                	out    %al,$0x21
  305247:	b0 20                	mov    $0x20,%al
  305249:	e6 20                	out    %al,$0x20
  30524b:	b8 02 00 00 00       	mov    $0x2,%eax
  305250:	fb                   	sti    
  305251:	6a 02                	push   $0x2
  305253:	ff 34 85 00 42 31 00 	pushl  0x314200(,%eax,4)
  30525a:	ff 14 85 40 42 31 00 	call   *0x314240(,%eax,4)
  305261:	83 c4 08             	add    $0x8,%esp
  305264:	fa                   	cli    
  305265:	e4 21                	in     $0x21,%al
  305267:	24 fb                	and    $0xfb,%al
  305269:	e6 21                	out    %al,$0x21
  30526b:	0f a9                	pop    %gs
  30526d:	0f a1                	pop    %fs
  30526f:	1f                   	pop    %ds
  305270:	07                   	pop    %es
  305271:	61                   	popa   
  305272:	cf                   	iret   

00305273 <hwint03>:
  305273:	60                   	pusha  
  305274:	06                   	push   %es
  305275:	1e                   	push   %ds
  305276:	0f a0                	push   %fs
  305278:	0f a8                	push   %gs
  30527a:	b8 10 00 00 00       	mov    $0x10,%eax
  30527f:	8e d8                	mov    %eax,%ds
  305281:	8e c0                	mov    %eax,%es
  305283:	8e e0                	mov    %eax,%fs
  305285:	8e e8                	mov    %eax,%gs
  305287:	e4 21                	in     $0x21,%al
  305289:	0c 08                	or     $0x8,%al
  30528b:	e6 21                	out    %al,$0x21
  30528d:	b0 20                	mov    $0x20,%al
  30528f:	e6 20                	out    %al,$0x20
  305291:	b8 03 00 00 00       	mov    $0x3,%eax
  305296:	fb                   	sti    
  305297:	6a 03                	push   $0x3
  305299:	ff 34 85 00 42 31 00 	pushl  0x314200(,%eax,4)
  3052a0:	ff 14 85 40 42 31 00 	call   *0x314240(,%eax,4)
  3052a7:	83 c4 08             	add    $0x8,%esp
  3052aa:	fa                   	cli    
  3052ab:	e4 21                	in     $0x21,%al
  3052ad:	24 f7                	and    $0xf7,%al
  3052af:	e6 21                	out    %al,$0x21
  3052b1:	0f a9                	pop    %gs
  3052b3:	0f a1                	pop    %fs
  3052b5:	1f                   	pop    %ds
  3052b6:	07                   	pop    %es
  3052b7:	61                   	popa   
  3052b8:	cf                   	iret   

003052b9 <hwint04>:
  3052b9:	60                   	pusha  
  3052ba:	06                   	push   %es
  3052bb:	1e                   	push   %ds
  3052bc:	0f a0                	push   %fs
  3052be:	0f a8                	push   %gs
  3052c0:	b8 10 00 00 00       	mov    $0x10,%eax
  3052c5:	8e d8                	mov    %eax,%ds
  3052c7:	8e c0                	mov    %eax,%es
  3052c9:	8e e0                	mov    %eax,%fs
  3052cb:	8e e8                	mov    %eax,%gs
  3052cd:	e4 21                	in     $0x21,%al
  3052cf:	0c 10                	or     $0x10,%al
  3052d1:	e6 21                	out    %al,$0x21
  3052d3:	b0 20                	mov    $0x20,%al
  3052d5:	e6 20                	out    %al,$0x20
  3052d7:	b8 04 00 00 00       	mov    $0x4,%eax
  3052dc:	fb                   	sti    
  3052dd:	6a 04                	push   $0x4
  3052df:	ff 34 85 00 42 31 00 	pushl  0x314200(,%eax,4)
  3052e6:	ff 14 85 40 42 31 00 	call   *0x314240(,%eax,4)
  3052ed:	83 c4 08             	add    $0x8,%esp
  3052f0:	fa                   	cli    
  3052f1:	e4 21                	in     $0x21,%al
  3052f3:	24 ef                	and    $0xef,%al
  3052f5:	e6 21                	out    %al,$0x21
  3052f7:	0f a9                	pop    %gs
  3052f9:	0f a1                	pop    %fs
  3052fb:	1f                   	pop    %ds
  3052fc:	07                   	pop    %es
  3052fd:	61                   	popa   
  3052fe:	cf                   	iret   

003052ff <hwint05>:
  3052ff:	60                   	pusha  
  305300:	06                   	push   %es
  305301:	1e                   	push   %ds
  305302:	0f a0                	push   %fs
  305304:	0f a8                	push   %gs
  305306:	b8 10 00 00 00       	mov    $0x10,%eax
  30530b:	8e d8                	mov    %eax,%ds
  30530d:	8e c0                	mov    %eax,%es
  30530f:	8e e0                	mov    %eax,%fs
  305311:	8e e8                	mov    %eax,%gs
  305313:	e4 21                	in     $0x21,%al
  305315:	0c 20                	or     $0x20,%al
  305317:	e6 21                	out    %al,$0x21
  305319:	b0 20                	mov    $0x20,%al
  30531b:	e6 20                	out    %al,$0x20
  30531d:	b8 05 00 00 00       	mov    $0x5,%eax
  305322:	fb                   	sti    
  305323:	6a 05                	push   $0x5
  305325:	ff 34 85 00 42 31 00 	pushl  0x314200(,%eax,4)
  30532c:	ff 14 85 40 42 31 00 	call   *0x314240(,%eax,4)
  305333:	83 c4 08             	add    $0x8,%esp
  305336:	fa                   	cli    
  305337:	e4 21                	in     $0x21,%al
  305339:	24 df                	and    $0xdf,%al
  30533b:	e6 21                	out    %al,$0x21
  30533d:	0f a9                	pop    %gs
  30533f:	0f a1                	pop    %fs
  305341:	1f                   	pop    %ds
  305342:	07                   	pop    %es
  305343:	61                   	popa   
  305344:	cf                   	iret   

00305345 <hwint06>:
  305345:	60                   	pusha  
  305346:	06                   	push   %es
  305347:	1e                   	push   %ds
  305348:	0f a0                	push   %fs
  30534a:	0f a8                	push   %gs
  30534c:	b8 10 00 00 00       	mov    $0x10,%eax
  305351:	8e d8                	mov    %eax,%ds
  305353:	8e c0                	mov    %eax,%es
  305355:	8e e0                	mov    %eax,%fs
  305357:	8e e8                	mov    %eax,%gs
  305359:	e4 21                	in     $0x21,%al
  30535b:	0c 40                	or     $0x40,%al
  30535d:	e6 21                	out    %al,$0x21
  30535f:	b0 20                	mov    $0x20,%al
  305361:	e6 20                	out    %al,$0x20
  305363:	b8 06 00 00 00       	mov    $0x6,%eax
  305368:	fb                   	sti    
  305369:	6a 06                	push   $0x6
  30536b:	ff 34 85 00 42 31 00 	pushl  0x314200(,%eax,4)
  305372:	ff 14 85 40 42 31 00 	call   *0x314240(,%eax,4)
  305379:	83 c4 08             	add    $0x8,%esp
  30537c:	fa                   	cli    
  30537d:	e4 21                	in     $0x21,%al
  30537f:	24 bf                	and    $0xbf,%al
  305381:	e6 21                	out    %al,$0x21
  305383:	0f a9                	pop    %gs
  305385:	0f a1                	pop    %fs
  305387:	1f                   	pop    %ds
  305388:	07                   	pop    %es
  305389:	61                   	popa   
  30538a:	cf                   	iret   

0030538b <hwint07>:
  30538b:	60                   	pusha  
  30538c:	06                   	push   %es
  30538d:	1e                   	push   %ds
  30538e:	0f a0                	push   %fs
  305390:	0f a8                	push   %gs
  305392:	b8 10 00 00 00       	mov    $0x10,%eax
  305397:	8e d8                	mov    %eax,%ds
  305399:	8e c0                	mov    %eax,%es
  30539b:	8e e0                	mov    %eax,%fs
  30539d:	8e e8                	mov    %eax,%gs
  30539f:	e4 21                	in     $0x21,%al
  3053a1:	0c 80                	or     $0x80,%al
  3053a3:	e6 21                	out    %al,$0x21
  3053a5:	b0 20                	mov    $0x20,%al
  3053a7:	e6 20                	out    %al,$0x20
  3053a9:	b8 07 00 00 00       	mov    $0x7,%eax
  3053ae:	fb                   	sti    
  3053af:	6a 07                	push   $0x7
  3053b1:	ff 34 85 00 42 31 00 	pushl  0x314200(,%eax,4)
  3053b8:	ff 14 85 40 42 31 00 	call   *0x314240(,%eax,4)
  3053bf:	83 c4 08             	add    $0x8,%esp
  3053c2:	fa                   	cli    
  3053c3:	e4 21                	in     $0x21,%al
  3053c5:	24 7f                	and    $0x7f,%al
  3053c7:	e6 21                	out    %al,$0x21
  3053c9:	0f a9                	pop    %gs
  3053cb:	0f a1                	pop    %fs
  3053cd:	1f                   	pop    %ds
  3053ce:	07                   	pop    %es
  3053cf:	61                   	popa   
  3053d0:	cf                   	iret   

003053d1 <hwint08>:
  3053d1:	60                   	pusha  
  3053d2:	06                   	push   %es
  3053d3:	1e                   	push   %ds
  3053d4:	0f a0                	push   %fs
  3053d6:	0f a8                	push   %gs
  3053d8:	b8 10 00 00 00       	mov    $0x10,%eax
  3053dd:	8e d8                	mov    %eax,%ds
  3053df:	8e c0                	mov    %eax,%es
  3053e1:	8e e0                	mov    %eax,%fs
  3053e3:	8e e8                	mov    %eax,%gs
  3053e5:	e4 a1                	in     $0xa1,%al
  3053e7:	0c 01                	or     $0x1,%al
  3053e9:	e6 a1                	out    %al,$0xa1
  3053eb:	b0 20                	mov    $0x20,%al
  3053ed:	e6 20                	out    %al,$0x20
  3053ef:	eb 00                	jmp    3053f1 <hwint08+0x20>
  3053f1:	e6 a0                	out    %al,$0xa0
  3053f3:	b8 08 00 00 00       	mov    $0x8,%eax
  3053f8:	fb                   	sti    
  3053f9:	6a 08                	push   $0x8
  3053fb:	ff 34 85 00 42 31 00 	pushl  0x314200(,%eax,4)
  305402:	ff 14 85 40 42 31 00 	call   *0x314240(,%eax,4)
  305409:	83 c4 08             	add    $0x8,%esp
  30540c:	fa                   	cli    
  30540d:	e4 a1                	in     $0xa1,%al
  30540f:	24 fe                	and    $0xfe,%al
  305411:	e6 a1                	out    %al,$0xa1
  305413:	0f a9                	pop    %gs
  305415:	0f a1                	pop    %fs
  305417:	1f                   	pop    %ds
  305418:	07                   	pop    %es
  305419:	61                   	popa   
  30541a:	cf                   	iret   

0030541b <hwint09>:
  30541b:	60                   	pusha  
  30541c:	06                   	push   %es
  30541d:	1e                   	push   %ds
  30541e:	0f a0                	push   %fs
  305420:	0f a8                	push   %gs
  305422:	b8 10 00 00 00       	mov    $0x10,%eax
  305427:	8e d8                	mov    %eax,%ds
  305429:	8e c0                	mov    %eax,%es
  30542b:	8e e0                	mov    %eax,%fs
  30542d:	8e e8                	mov    %eax,%gs
  30542f:	e4 a1                	in     $0xa1,%al
  305431:	0c 02                	or     $0x2,%al
  305433:	e6 a1                	out    %al,$0xa1
  305435:	b0 20                	mov    $0x20,%al
  305437:	e6 20                	out    %al,$0x20
  305439:	eb 00                	jmp    30543b <hwint09+0x20>
  30543b:	e6 a0                	out    %al,$0xa0
  30543d:	b8 09 00 00 00       	mov    $0x9,%eax
  305442:	fb                   	sti    
  305443:	6a 09                	push   $0x9
  305445:	ff 34 85 00 42 31 00 	pushl  0x314200(,%eax,4)
  30544c:	ff 14 85 40 42 31 00 	call   *0x314240(,%eax,4)
  305453:	83 c4 08             	add    $0x8,%esp
  305456:	fa                   	cli    
  305457:	e4 a1                	in     $0xa1,%al
  305459:	24 fd                	and    $0xfd,%al
  30545b:	e6 a1                	out    %al,$0xa1
  30545d:	0f a9                	pop    %gs
  30545f:	0f a1                	pop    %fs
  305461:	1f                   	pop    %ds
  305462:	07                   	pop    %es
  305463:	61                   	popa   
  305464:	cf                   	iret   

00305465 <hwint10>:
  305465:	60                   	pusha  
  305466:	06                   	push   %es
  305467:	1e                   	push   %ds
  305468:	0f a0                	push   %fs
  30546a:	0f a8                	push   %gs
  30546c:	b8 10 00 00 00       	mov    $0x10,%eax
  305471:	8e d8                	mov    %eax,%ds
  305473:	8e c0                	mov    %eax,%es
  305475:	8e e0                	mov    %eax,%fs
  305477:	8e e8                	mov    %eax,%gs
  305479:	e4 a1                	in     $0xa1,%al
  30547b:	0c 04                	or     $0x4,%al
  30547d:	e6 a1                	out    %al,$0xa1
  30547f:	b0 20                	mov    $0x20,%al
  305481:	e6 20                	out    %al,$0x20
  305483:	eb 00                	jmp    305485 <hwint10+0x20>
  305485:	e6 a0                	out    %al,$0xa0
  305487:	b8 0a 00 00 00       	mov    $0xa,%eax
  30548c:	fb                   	sti    
  30548d:	6a 0a                	push   $0xa
  30548f:	ff 34 85 00 42 31 00 	pushl  0x314200(,%eax,4)
  305496:	ff 14 85 40 42 31 00 	call   *0x314240(,%eax,4)
  30549d:	83 c4 08             	add    $0x8,%esp
  3054a0:	fa                   	cli    
  3054a1:	e4 a1                	in     $0xa1,%al
  3054a3:	24 fb                	and    $0xfb,%al
  3054a5:	e6 a1                	out    %al,$0xa1
  3054a7:	0f a9                	pop    %gs
  3054a9:	0f a1                	pop    %fs
  3054ab:	1f                   	pop    %ds
  3054ac:	07                   	pop    %es
  3054ad:	61                   	popa   
  3054ae:	cf                   	iret   

003054af <hwint11>:
  3054af:	60                   	pusha  
  3054b0:	06                   	push   %es
  3054b1:	1e                   	push   %ds
  3054b2:	0f a0                	push   %fs
  3054b4:	0f a8                	push   %gs
  3054b6:	b8 10 00 00 00       	mov    $0x10,%eax
  3054bb:	8e d8                	mov    %eax,%ds
  3054bd:	8e c0                	mov    %eax,%es
  3054bf:	8e e0                	mov    %eax,%fs
  3054c1:	8e e8                	mov    %eax,%gs
  3054c3:	e4 a1                	in     $0xa1,%al
  3054c5:	0c 08                	or     $0x8,%al
  3054c7:	e6 a1                	out    %al,$0xa1
  3054c9:	b0 20                	mov    $0x20,%al
  3054cb:	e6 20                	out    %al,$0x20
  3054cd:	eb 00                	jmp    3054cf <hwint11+0x20>
  3054cf:	e6 a0                	out    %al,$0xa0
  3054d1:	b8 0b 00 00 00       	mov    $0xb,%eax
  3054d6:	fb                   	sti    
  3054d7:	6a 0b                	push   $0xb
  3054d9:	ff 34 85 00 42 31 00 	pushl  0x314200(,%eax,4)
  3054e0:	ff 14 85 40 42 31 00 	call   *0x314240(,%eax,4)
  3054e7:	83 c4 08             	add    $0x8,%esp
  3054ea:	fa                   	cli    
  3054eb:	e4 a1                	in     $0xa1,%al
  3054ed:	24 f7                	and    $0xf7,%al
  3054ef:	e6 a1                	out    %al,$0xa1
  3054f1:	0f a9                	pop    %gs
  3054f3:	0f a1                	pop    %fs
  3054f5:	1f                   	pop    %ds
  3054f6:	07                   	pop    %es
  3054f7:	61                   	popa   
  3054f8:	cf                   	iret   

003054f9 <hwint12>:
  3054f9:	60                   	pusha  
  3054fa:	06                   	push   %es
  3054fb:	1e                   	push   %ds
  3054fc:	0f a0                	push   %fs
  3054fe:	0f a8                	push   %gs
  305500:	b8 10 00 00 00       	mov    $0x10,%eax
  305505:	8e d8                	mov    %eax,%ds
  305507:	8e c0                	mov    %eax,%es
  305509:	8e e0                	mov    %eax,%fs
  30550b:	8e e8                	mov    %eax,%gs
  30550d:	e4 a1                	in     $0xa1,%al
  30550f:	0c 10                	or     $0x10,%al
  305511:	e6 a1                	out    %al,$0xa1
  305513:	b0 20                	mov    $0x20,%al
  305515:	e6 20                	out    %al,$0x20
  305517:	eb 00                	jmp    305519 <hwint12+0x20>
  305519:	e6 a0                	out    %al,$0xa0
  30551b:	b8 0c 00 00 00       	mov    $0xc,%eax
  305520:	fb                   	sti    
  305521:	6a 0c                	push   $0xc
  305523:	ff 34 85 00 42 31 00 	pushl  0x314200(,%eax,4)
  30552a:	ff 14 85 40 42 31 00 	call   *0x314240(,%eax,4)
  305531:	83 c4 08             	add    $0x8,%esp
  305534:	fa                   	cli    
  305535:	e4 a1                	in     $0xa1,%al
  305537:	24 ef                	and    $0xef,%al
  305539:	e6 a1                	out    %al,$0xa1
  30553b:	0f a9                	pop    %gs
  30553d:	0f a1                	pop    %fs
  30553f:	1f                   	pop    %ds
  305540:	07                   	pop    %es
  305541:	61                   	popa   
  305542:	cf                   	iret   

00305543 <hwint13>:
  305543:	60                   	pusha  
  305544:	06                   	push   %es
  305545:	1e                   	push   %ds
  305546:	0f a0                	push   %fs
  305548:	0f a8                	push   %gs
  30554a:	b8 10 00 00 00       	mov    $0x10,%eax
  30554f:	8e d8                	mov    %eax,%ds
  305551:	8e c0                	mov    %eax,%es
  305553:	8e e0                	mov    %eax,%fs
  305555:	8e e8                	mov    %eax,%gs
  305557:	e4 a1                	in     $0xa1,%al
  305559:	0c 20                	or     $0x20,%al
  30555b:	e6 a1                	out    %al,$0xa1
  30555d:	b0 20                	mov    $0x20,%al
  30555f:	e6 20                	out    %al,$0x20
  305561:	eb 00                	jmp    305563 <hwint13+0x20>
  305563:	e6 a0                	out    %al,$0xa0
  305565:	b8 0d 00 00 00       	mov    $0xd,%eax
  30556a:	fb                   	sti    
  30556b:	6a 0d                	push   $0xd
  30556d:	ff 34 85 00 42 31 00 	pushl  0x314200(,%eax,4)
  305574:	ff 14 85 40 42 31 00 	call   *0x314240(,%eax,4)
  30557b:	83 c4 08             	add    $0x8,%esp
  30557e:	fa                   	cli    
  30557f:	e4 a1                	in     $0xa1,%al
  305581:	24 df                	and    $0xdf,%al
  305583:	e6 a1                	out    %al,$0xa1
  305585:	0f a9                	pop    %gs
  305587:	0f a1                	pop    %fs
  305589:	1f                   	pop    %ds
  30558a:	07                   	pop    %es
  30558b:	61                   	popa   
  30558c:	cf                   	iret   

0030558d <hwint14>:
  30558d:	60                   	pusha  
  30558e:	06                   	push   %es
  30558f:	1e                   	push   %ds
  305590:	0f a0                	push   %fs
  305592:	0f a8                	push   %gs
  305594:	b8 10 00 00 00       	mov    $0x10,%eax
  305599:	8e d8                	mov    %eax,%ds
  30559b:	8e c0                	mov    %eax,%es
  30559d:	8e e0                	mov    %eax,%fs
  30559f:	8e e8                	mov    %eax,%gs
  3055a1:	e4 a1                	in     $0xa1,%al
  3055a3:	0c 40                	or     $0x40,%al
  3055a5:	e6 a1                	out    %al,$0xa1
  3055a7:	b0 20                	mov    $0x20,%al
  3055a9:	e6 20                	out    %al,$0x20
  3055ab:	eb 00                	jmp    3055ad <hwint14+0x20>
  3055ad:	e6 a0                	out    %al,$0xa0
  3055af:	b8 0e 00 00 00       	mov    $0xe,%eax
  3055b4:	fb                   	sti    
  3055b5:	6a 0e                	push   $0xe
  3055b7:	ff 34 85 00 42 31 00 	pushl  0x314200(,%eax,4)
  3055be:	ff 14 85 40 42 31 00 	call   *0x314240(,%eax,4)
  3055c5:	83 c4 08             	add    $0x8,%esp
  3055c8:	fa                   	cli    
  3055c9:	e4 a1                	in     $0xa1,%al
  3055cb:	24 bf                	and    $0xbf,%al
  3055cd:	e6 a1                	out    %al,$0xa1
  3055cf:	0f a9                	pop    %gs
  3055d1:	0f a1                	pop    %fs
  3055d3:	1f                   	pop    %ds
  3055d4:	07                   	pop    %es
  3055d5:	61                   	popa   
  3055d6:	cf                   	iret   

003055d7 <hwint15>:
  3055d7:	60                   	pusha  
  3055d8:	06                   	push   %es
  3055d9:	1e                   	push   %ds
  3055da:	0f a0                	push   %fs
  3055dc:	0f a8                	push   %gs
  3055de:	b8 10 00 00 00       	mov    $0x10,%eax
  3055e3:	8e d8                	mov    %eax,%ds
  3055e5:	8e c0                	mov    %eax,%es
  3055e7:	8e e0                	mov    %eax,%fs
  3055e9:	8e e8                	mov    %eax,%gs
  3055eb:	e4 a1                	in     $0xa1,%al
  3055ed:	0c 80                	or     $0x80,%al
  3055ef:	e6 a1                	out    %al,$0xa1
  3055f1:	b0 20                	mov    $0x20,%al
  3055f3:	e6 20                	out    %al,$0x20
  3055f5:	eb 00                	jmp    3055f7 <hwint15+0x20>
  3055f7:	e6 a0                	out    %al,$0xa0
  3055f9:	b8 0f 00 00 00       	mov    $0xf,%eax
  3055fe:	fb                   	sti    
  3055ff:	6a 0f                	push   $0xf
  305601:	ff 34 85 00 42 31 00 	pushl  0x314200(,%eax,4)
  305608:	ff 14 85 40 42 31 00 	call   *0x314240(,%eax,4)
  30560f:	83 c4 08             	add    $0x8,%esp
  305612:	fa                   	cli    
  305613:	e4 a1                	in     $0xa1,%al
  305615:	24 7f                	and    $0x7f,%al
  305617:	e6 a1                	out    %al,$0xa1
  305619:	0f a9                	pop    %gs
  30561b:	0f a1                	pop    %fs
  30561d:	1f                   	pop    %ds
  30561e:	07                   	pop    %es
  30561f:	61                   	popa   
  305620:	cf                   	iret   

00305621 <bad_sys_call>:
  305621:	b8 ff ff ff ff       	mov    $0xffffffff,%eax
  305626:	fb                   	sti    
  305627:	cf                   	iret   

00305628 <method>:
  305628:	56                   	push   %esi
  305629:	57                   	push   %edi
  30562a:	52                   	push   %edx
  30562b:	51                   	push   %ecx
  30562c:	53                   	push   %ebx
  30562d:	ff d0                	call   *%eax
  30562f:	83 c4 14             	add    $0x14,%esp
  305632:	b8 00 00 00 00       	mov    $0x0,%eax
  305637:	cd 80                	int    $0x80

00305639 <_workloop>:
  305639:	1e                   	push   %ds
  30563a:	06                   	push   %es
  30563b:	b8 10 00 00 00       	mov    $0x10,%eax
  305640:	8e d8                	mov    %eax,%ds
  305642:	8e c0                	mov    %eax,%es
  305644:	e8 a0 14 00 00       	call   306ae9 <doloop>
  305649:	07                   	pop    %es
  30564a:	1f                   	pop    %ds
  30564b:	83 c4 04             	add    $0x4,%esp
  30564e:	68 28 56 30 00       	push   $0x305628
  305653:	fb                   	sti    
  305654:	cf                   	iret   

00305655 <sys_call>:
  305655:	fa                   	cli    
  305656:	3b 05 64 20 31 00    	cmp    0x312064,%eax
  30565c:	73 c3                	jae    305621 <bad_sys_call>
  30565e:	83 f8 00             	cmp    $0x0,%eax
  305661:	74 d6                	je     305639 <_workloop>
  305663:	1e                   	push   %ds
  305664:	06                   	push   %es
  305665:	0f a0                	push   %fs
  305667:	56                   	push   %esi
  305668:	57                   	push   %edi
  305669:	52                   	push   %edx
  30566a:	51                   	push   %ecx
  30566b:	53                   	push   %ebx
  30566c:	50                   	push   %eax
  30566d:	b8 10 00 00 00       	mov    $0x10,%eax
  305672:	8e d8                	mov    %eax,%ds
  305674:	8e c0                	mov    %eax,%es
  305676:	8e e0                	mov    %eax,%fs
  305678:	58                   	pop    %eax
  305679:	ff 14 85 50 20 31 00 	call   *0x312050(,%eax,4)

00305680 <ret_from_sys_call>:
  305680:	5b                   	pop    %ebx
  305681:	59                   	pop    %ecx
  305682:	5a                   	pop    %edx
  305683:	5f                   	pop    %edi
  305684:	5e                   	pop    %esi
  305685:	0f a1                	pop    %fs
  305687:	07                   	pop    %es
  305688:	1f                   	pop    %ds
  305689:	fb                   	sti    
  30568a:	cf                   	iret   
  30568b:	90                   	nop

0030568c <panic>:
  30568c:	55                   	push   %ebp
  30568d:	89 e5                	mov    %esp,%ebp
  30568f:	83 ec 08             	sub    $0x8,%esp
  305692:	83 ec 08             	sub    $0x8,%esp
  305695:	ff 75 08             	pushl  0x8(%ebp)
  305698:	68 c0 d5 30 00       	push   $0x30d5c0
  30569d:	e8 06 00 00 00       	call   3056a8 <printk>
  3056a2:	83 c4 10             	add    $0x10,%esp
  3056a5:	fa                   	cli    
  3056a6:	eb fe                	jmp    3056a6 <panic+0x1a>

003056a8 <printk>:
  3056a8:	55                   	push   %ebp
  3056a9:	89 e5                	mov    %esp,%ebp
  3056ab:	83 ec 18             	sub    $0x18,%esp
  3056ae:	8d 45 0c             	lea    0xc(%ebp),%eax
  3056b1:	89 45 f0             	mov    %eax,-0x10(%ebp)
  3056b4:	8b 45 f0             	mov    -0x10(%ebp),%eax
  3056b7:	83 ec 04             	sub    $0x4,%esp
  3056ba:	50                   	push   %eax
  3056bb:	ff 75 08             	pushl  0x8(%ebp)
  3056be:	68 00 22 31 00       	push   $0x312200
  3056c3:	e8 fb 7b 00 00       	call   30d2c3 <vsprintf>
  3056c8:	83 c4 10             	add    $0x10,%esp
  3056cb:	89 45 f4             	mov    %eax,-0xc(%ebp)
  3056ce:	8b 45 f4             	mov    -0xc(%ebp),%eax
  3056d1:	83 ec 04             	sub    $0x4,%esp
  3056d4:	50                   	push   %eax
  3056d5:	68 00 22 31 00       	push   $0x312200
  3056da:	6a 00                	push   $0x0
  3056dc:	e8 be 61 00 00       	call   30b89f <cons_print>
  3056e1:	83 c4 10             	add    $0x10,%esp
  3056e4:	8b 45 f4             	mov    -0xc(%ebp),%eax
  3056e7:	c9                   	leave  
  3056e8:	c3                   	ret    

003056e9 <printx>:
  3056e9:	55                   	push   %ebp
  3056ea:	89 e5                	mov    %esp,%ebp
  3056ec:	83 ec 18             	sub    $0x18,%esp
  3056ef:	c7 45 f4 00 00 00 00 	movl   $0x0,-0xc(%ebp)
  3056f6:	e9 d9 00 00 00       	jmp    3057d4 <printx+0xeb>
  3056fb:	8b 45 f4             	mov    -0xc(%ebp),%eax
  3056fe:	83 e0 0f             	and    $0xf,%eax
  305701:	85 c0                	test   %eax,%eax
  305703:	0f 85 8e 00 00 00    	jne    305797 <printx+0xae>
  305709:	83 7d f4 00          	cmpl   $0x0,-0xc(%ebp)
  30570d:	74 73                	je     305782 <printx+0x99>
  30570f:	83 ec 0c             	sub    $0xc,%esp
  305712:	68 d3 d5 30 00       	push   $0x30d5d3
  305717:	e8 8c ff ff ff       	call   3056a8 <printk>
  30571c:	83 c4 10             	add    $0x10,%esp
  30571f:	c7 45 f0 00 00 00 00 	movl   $0x0,-0x10(%ebp)
  305726:	eb 44                	jmp    30576c <printx+0x83>
  305728:	8b 45 f4             	mov    -0xc(%ebp),%eax
  30572b:	8d 50 f0             	lea    -0x10(%eax),%edx
  30572e:	8b 45 f0             	mov    -0x10(%ebp),%eax
  305731:	01 d0                	add    %edx,%eax
  305733:	89 c2                	mov    %eax,%edx
  305735:	8b 45 08             	mov    0x8(%ebp),%eax
  305738:	01 d0                	add    %edx,%eax
  30573a:	0f b6 00             	movzbl (%eax),%eax
  30573d:	88 45 ef             	mov    %al,-0x11(%ebp)
  305740:	80 7d ef 20          	cmpb   $0x20,-0x11(%ebp)
  305744:	7e 0c                	jle    305752 <printx+0x69>
  305746:	80 7d ef 7f          	cmpb   $0x7f,-0x11(%ebp)
  30574a:	74 06                	je     305752 <printx+0x69>
  30574c:	0f be 45 ef          	movsbl -0x11(%ebp),%eax
  305750:	eb 05                	jmp    305757 <printx+0x6e>
  305752:	b8 2e 00 00 00       	mov    $0x2e,%eax
  305757:	83 ec 08             	sub    $0x8,%esp
  30575a:	50                   	push   %eax
  30575b:	68 d6 d5 30 00       	push   $0x30d5d6
  305760:	e8 43 ff ff ff       	call   3056a8 <printk>
  305765:	83 c4 10             	add    $0x10,%esp
  305768:	83 45 f0 01          	addl   $0x1,-0x10(%ebp)
  30576c:	83 7d f0 0f          	cmpl   $0xf,-0x10(%ebp)
  305770:	7e b6                	jle    305728 <printx+0x3f>
  305772:	83 ec 0c             	sub    $0xc,%esp
  305775:	68 d9 d5 30 00       	push   $0x30d5d9
  30577a:	e8 29 ff ff ff       	call   3056a8 <printk>
  30577f:	83 c4 10             	add    $0x10,%esp
  305782:	83 ec 08             	sub    $0x8,%esp
  305785:	ff 75 f4             	pushl  -0xc(%ebp)
  305788:	68 db d5 30 00       	push   $0x30d5db
  30578d:	e8 16 ff ff ff       	call   3056a8 <printk>
  305792:	83 c4 10             	add    $0x10,%esp
  305795:	eb 1a                	jmp    3057b1 <printx+0xc8>
  305797:	8b 45 f4             	mov    -0xc(%ebp),%eax
  30579a:	83 e0 07             	and    $0x7,%eax
  30579d:	85 c0                	test   %eax,%eax
  30579f:	75 10                	jne    3057b1 <printx+0xc8>
  3057a1:	83 ec 0c             	sub    $0xc,%esp
  3057a4:	68 e3 d5 30 00       	push   $0x30d5e3
  3057a9:	e8 fa fe ff ff       	call   3056a8 <printk>
  3057ae:	83 c4 10             	add    $0x10,%esp
  3057b1:	8b 55 f4             	mov    -0xc(%ebp),%edx
  3057b4:	8b 45 08             	mov    0x8(%ebp),%eax
  3057b7:	01 d0                	add    %edx,%eax
  3057b9:	0f b6 00             	movzbl (%eax),%eax
  3057bc:	0f be c0             	movsbl %al,%eax
  3057bf:	83 ec 08             	sub    $0x8,%esp
  3057c2:	50                   	push   %eax
  3057c3:	68 e7 d5 30 00       	push   $0x30d5e7
  3057c8:	e8 db fe ff ff       	call   3056a8 <printk>
  3057cd:	83 c4 10             	add    $0x10,%esp
  3057d0:	83 45 f4 01          	addl   $0x1,-0xc(%ebp)
  3057d4:	8b 45 f4             	mov    -0xc(%ebp),%eax
  3057d7:	3b 45 0c             	cmp    0xc(%ebp),%eax
  3057da:	0f 82 1b ff ff ff    	jb     3056fb <printx+0x12>
  3057e0:	83 ec 0c             	sub    $0xc,%esp
  3057e3:	68 d9 d5 30 00       	push   $0x30d5d9
  3057e8:	e8 bb fe ff ff       	call   3056a8 <printk>
  3057ed:	83 c4 10             	add    $0x10,%esp
  3057f0:	c9                   	leave  
  3057f1:	c3                   	ret    
  3057f2:	66 90                	xchg   %ax,%ax

003057f4 <print_cpu_info>:
  3057f4:	55                   	push   %ebp
  3057f5:	89 e5                	mov    %esp,%ebp
  3057f7:	83 ec 08             	sub    $0x8,%esp
  3057fa:	8b 45 08             	mov    0x8(%ebp),%eax
  3057fd:	8b 50 30             	mov    0x30(%eax),%edx
  305800:	8b 45 08             	mov    0x8(%ebp),%eax
  305803:	8b 40 34             	mov    0x34(%eax),%eax
  305806:	83 ec 04             	sub    $0x4,%esp
  305809:	52                   	push   %edx
  30580a:	50                   	push   %eax
  30580b:	68 f4 d5 30 00       	push   $0x30d5f4
  305810:	e8 93 fe ff ff       	call   3056a8 <printk>
  305815:	83 c4 10             	add    $0x10,%esp
  305818:	8b 45 08             	mov    0x8(%ebp),%eax
  30581b:	8b 50 1c             	mov    0x1c(%eax),%edx
  30581e:	8b 45 08             	mov    0x8(%ebp),%eax
  305821:	8b 40 40             	mov    0x40(%eax),%eax
  305824:	83 ec 04             	sub    $0x4,%esp
  305827:	52                   	push   %edx
  305828:	50                   	push   %eax
  305829:	68 10 d6 30 00       	push   $0x30d610
  30582e:	e8 75 fe ff ff       	call   3056a8 <printk>
  305833:	83 c4 10             	add    $0x10,%esp
  305836:	8b 45 08             	mov    0x8(%ebp),%eax
  305839:	8b 50 10             	mov    0x10(%eax),%edx
  30583c:	8b 45 08             	mov    0x8(%ebp),%eax
  30583f:	8b 40 08             	mov    0x8(%eax),%eax
  305842:	83 ec 04             	sub    $0x4,%esp
  305845:	52                   	push   %edx
  305846:	50                   	push   %eax
  305847:	68 29 d6 30 00       	push   $0x30d629
  30584c:	e8 57 fe ff ff       	call   3056a8 <printk>
  305851:	83 c4 10             	add    $0x10,%esp
  305854:	8b 45 08             	mov    0x8(%ebp),%eax
  305857:	8b 50 14             	mov    0x14(%eax),%edx
  30585a:	8b 45 08             	mov    0x8(%ebp),%eax
  30585d:	8b 40 0c             	mov    0xc(%eax),%eax
  305860:	83 ec 04             	sub    $0x4,%esp
  305863:	52                   	push   %edx
  305864:	50                   	push   %eax
  305865:	68 45 d6 30 00       	push   $0x30d645
  30586a:	e8 39 fe ff ff       	call   3056a8 <printk>
  30586f:	83 c4 10             	add    $0x10,%esp
  305872:	8b 45 08             	mov    0x8(%ebp),%eax
  305875:	8b 50 28             	mov    0x28(%eax),%edx
  305878:	8b 45 08             	mov    0x8(%ebp),%eax
  30587b:	8b 40 2c             	mov    0x2c(%eax),%eax
  30587e:	83 ec 04             	sub    $0x4,%esp
  305881:	52                   	push   %edx
  305882:	50                   	push   %eax
  305883:	68 5e d6 30 00       	push   $0x30d65e
  305888:	e8 1b fe ff ff       	call   3056a8 <printk>
  30588d:	83 c4 10             	add    $0x10,%esp
  305890:	8b 45 08             	mov    0x8(%ebp),%eax
  305893:	8b 50 24             	mov    0x24(%eax),%edx
  305896:	8b 45 08             	mov    0x8(%ebp),%eax
  305899:	8b 40 20             	mov    0x20(%eax),%eax
  30589c:	83 ec 04             	sub    $0x4,%esp
  30589f:	52                   	push   %edx
  3058a0:	50                   	push   %eax
  3058a1:	68 7a d6 30 00       	push   $0x30d67a
  3058a6:	e8 fd fd ff ff       	call   3056a8 <printk>
  3058ab:	83 c4 10             	add    $0x10,%esp
  3058ae:	c9                   	leave  
  3058af:	c3                   	ret    

003058b0 <print_task_info>:
  3058b0:	55                   	push   %ebp
  3058b1:	89 e5                	mov    %esp,%ebp
  3058b3:	83 ec 08             	sub    $0x8,%esp
  3058b6:	a1 04 26 31 00       	mov    0x312604,%eax
  3058bb:	8d 48 18             	lea    0x18(%eax),%ecx
  3058be:	a1 04 26 31 00       	mov    0x312604,%eax
  3058c3:	8b 10                	mov    (%eax),%edx
  3058c5:	a1 04 26 31 00       	mov    0x312604,%eax
  3058ca:	83 ec 08             	sub    $0x8,%esp
  3058cd:	51                   	push   %ecx
  3058ce:	52                   	push   %edx
  3058cf:	50                   	push   %eax
  3058d0:	ff 75 0c             	pushl  0xc(%ebp)
  3058d3:	ff 75 08             	pushl  0x8(%ebp)
  3058d6:	68 94 d6 30 00       	push   $0x30d694
  3058db:	e8 c8 fd ff ff       	call   3056a8 <printk>
  3058e0:	83 c4 20             	add    $0x20,%esp
  3058e3:	c9                   	leave  
  3058e4:	c3                   	ret    

003058e5 <die>:
  3058e5:	55                   	push   %ebp
  3058e6:	89 e5                	mov    %esp,%ebp
  3058e8:	57                   	push   %edi
  3058e9:	56                   	push   %esi
  3058ea:	53                   	push   %ebx
  3058eb:	83 ec 1c             	sub    $0x1c,%esp
  3058ee:	83 ec 08             	sub    $0x8,%esp
  3058f1:	ff 75 10             	pushl  0x10(%ebp)
  3058f4:	ff 75 08             	pushl  0x8(%ebp)
  3058f7:	e8 b4 ff ff ff       	call   3058b0 <print_task_info>
  3058fc:	83 c4 10             	add    $0x10,%esp
  3058ff:	8b 45 0c             	mov    0xc(%ebp),%eax
  305902:	83 e8 04             	sub    $0x4,%eax
  305905:	83 ec 0c             	sub    $0xc,%esp
  305908:	50                   	push   %eax
  305909:	e8 e6 fe ff ff       	call   3057f4 <print_cpu_info>
  30590e:	83 c4 10             	add    $0x10,%esp
  305911:	b8 01 00 00 00       	mov    $0x1,%eax
  305916:	bb 03 00 00 00       	mov    $0x3,%ebx
  30591b:	b9 03 00 00 00       	mov    $0x3,%ecx
  305920:	ba 00 00 00 00       	mov    $0x0,%edx
  305925:	be 00 00 00 00       	mov    $0x0,%esi
  30592a:	bf 00 00 00 00       	mov    $0x0,%edi
  30592f:	cd 80                	int    $0x80
  305931:	89 45 e4             	mov    %eax,-0x1c(%ebp)
  305934:	8d 65 f4             	lea    -0xc(%ebp),%esp
  305937:	5b                   	pop    %ebx
  305938:	5e                   	pop    %esi
  305939:	5f                   	pop    %edi
  30593a:	5d                   	pop    %ebp
  30593b:	c3                   	ret    

0030593c <do_divide_error>:
  30593c:	55                   	push   %ebp
  30593d:	89 e5                	mov    %esp,%ebp
  30593f:	83 ec 08             	sub    $0x8,%esp
  305942:	83 ec 04             	sub    $0x4,%esp
  305945:	ff 75 08             	pushl  0x8(%ebp)
  305948:	ff 75 0c             	pushl  0xc(%ebp)
  30594b:	68 b8 d6 30 00       	push   $0x30d6b8
  305950:	e8 90 ff ff ff       	call   3058e5 <die>
  305955:	83 c4 10             	add    $0x10,%esp
  305958:	c9                   	leave  
  305959:	c3                   	ret    

0030595a <do_debug>:
  30595a:	55                   	push   %ebp
  30595b:	89 e5                	mov    %esp,%ebp
  30595d:	83 ec 08             	sub    $0x8,%esp
  305960:	83 ec 04             	sub    $0x4,%esp
  305963:	ff 75 08             	pushl  0x8(%ebp)
  305966:	ff 75 0c             	pushl  0xc(%ebp)
  305969:	68 c5 d6 30 00       	push   $0x30d6c5
  30596e:	e8 72 ff ff ff       	call   3058e5 <die>
  305973:	83 c4 10             	add    $0x10,%esp
  305976:	83 ec 0c             	sub    $0xc,%esp
  305979:	68 d4 d6 30 00       	push   $0x30d6d4
  30597e:	e8 25 fd ff ff       	call   3056a8 <printk>
  305983:	83 c4 10             	add    $0x10,%esp
  305986:	c9                   	leave  
  305987:	c3                   	ret    

00305988 <do_nmi>:
  305988:	55                   	push   %ebp
  305989:	89 e5                	mov    %esp,%ebp
  30598b:	83 ec 08             	sub    $0x8,%esp
  30598e:	83 ec 04             	sub    $0x4,%esp
  305991:	ff 75 08             	pushl  0x8(%ebp)
  305994:	ff 75 0c             	pushl  0xc(%ebp)
  305997:	68 fe d6 30 00       	push   $0x30d6fe
  30599c:	e8 44 ff ff ff       	call   3058e5 <die>
  3059a1:	83 c4 10             	add    $0x10,%esp
  3059a4:	c9                   	leave  
  3059a5:	c3                   	ret    

003059a6 <do_breakpoint>:
  3059a6:	55                   	push   %ebp
  3059a7:	89 e5                	mov    %esp,%ebp
  3059a9:	83 ec 08             	sub    $0x8,%esp
  3059ac:	83 ec 04             	sub    $0x4,%esp
  3059af:	ff 75 08             	pushl  0x8(%ebp)
  3059b2:	ff 75 0c             	pushl  0xc(%ebp)
  3059b5:	68 09 d7 30 00       	push   $0x30d709
  3059ba:	e8 26 ff ff ff       	call   3058e5 <die>
  3059bf:	83 c4 10             	add    $0x10,%esp
  3059c2:	83 ec 0c             	sub    $0xc,%esp
  3059c5:	68 1b d7 30 00       	push   $0x30d71b
  3059ca:	e8 d9 fc ff ff       	call   3056a8 <printk>
  3059cf:	83 c4 10             	add    $0x10,%esp
  3059d2:	c9                   	leave  
  3059d3:	c3                   	ret    

003059d4 <do_overflow>:
  3059d4:	55                   	push   %ebp
  3059d5:	89 e5                	mov    %esp,%ebp
  3059d7:	83 ec 08             	sub    $0x8,%esp
  3059da:	83 ec 04             	sub    $0x4,%esp
  3059dd:	ff 75 08             	pushl  0x8(%ebp)
  3059e0:	ff 75 0c             	pushl  0xc(%ebp)
  3059e3:	68 31 d7 30 00       	push   $0x30d731
  3059e8:	e8 f8 fe ff ff       	call   3058e5 <die>
  3059ed:	83 c4 10             	add    $0x10,%esp
  3059f0:	c9                   	leave  
  3059f1:	c3                   	ret    

003059f2 <do_bounds_check>:
  3059f2:	55                   	push   %ebp
  3059f3:	89 e5                	mov    %esp,%ebp
  3059f5:	83 ec 08             	sub    $0x8,%esp
  3059f8:	83 ec 04             	sub    $0x4,%esp
  3059fb:	ff 75 08             	pushl  0x8(%ebp)
  3059fe:	ff 75 0c             	pushl  0xc(%ebp)
  305a01:	68 3a d7 30 00       	push   $0x30d73a
  305a06:	e8 da fe ff ff       	call   3058e5 <die>
  305a0b:	83 c4 10             	add    $0x10,%esp
  305a0e:	c9                   	leave  
  305a0f:	c3                   	ret    

00305a10 <do_inval_opcode>:
  305a10:	55                   	push   %ebp
  305a11:	89 e5                	mov    %esp,%ebp
  305a13:	83 ec 08             	sub    $0x8,%esp
  305a16:	83 ec 04             	sub    $0x4,%esp
  305a19:	ff 75 08             	pushl  0x8(%ebp)
  305a1c:	ff 75 0c             	pushl  0xc(%ebp)
  305a1f:	68 41 d7 30 00       	push   $0x30d741
  305a24:	e8 bc fe ff ff       	call   3058e5 <die>
  305a29:	83 c4 10             	add    $0x10,%esp
  305a2c:	c9                   	leave  
  305a2d:	c3                   	ret    

00305a2e <do_copr_not_available>:
  305a2e:	55                   	push   %ebp
  305a2f:	89 e5                	mov    %esp,%ebp
  305a31:	83 ec 08             	sub    $0x8,%esp
  305a34:	83 ec 04             	sub    $0x4,%esp
  305a37:	ff 75 08             	pushl  0x8(%ebp)
  305a3a:	ff 75 0c             	pushl  0xc(%ebp)
  305a3d:	68 51 d7 30 00       	push   $0x30d751
  305a42:	e8 9e fe ff ff       	call   3058e5 <die>
  305a47:	83 c4 10             	add    $0x10,%esp
  305a4a:	c9                   	leave  
  305a4b:	c3                   	ret    

00305a4c <do_double_fault>:
  305a4c:	55                   	push   %ebp
  305a4d:	89 e5                	mov    %esp,%ebp
  305a4f:	83 ec 08             	sub    $0x8,%esp
  305a52:	83 ec 04             	sub    $0x4,%esp
  305a55:	ff 75 08             	pushl  0x8(%ebp)
  305a58:	ff 75 0c             	pushl  0xc(%ebp)
  305a5b:	68 65 d7 30 00       	push   $0x30d765
  305a60:	e8 80 fe ff ff       	call   3058e5 <die>
  305a65:	83 c4 10             	add    $0x10,%esp
  305a68:	c9                   	leave  
  305a69:	c3                   	ret    

00305a6a <do_copr_seg_overrun>:
  305a6a:	55                   	push   %ebp
  305a6b:	89 e5                	mov    %esp,%ebp
  305a6d:	83 ec 08             	sub    $0x8,%esp
  305a70:	83 ec 04             	sub    $0x4,%esp
  305a73:	ff 75 08             	pushl  0x8(%ebp)
  305a76:	ff 75 0c             	pushl  0xc(%ebp)
  305a79:	68 72 d7 30 00       	push   $0x30d772
  305a7e:	e8 62 fe ff ff       	call   3058e5 <die>
  305a83:	83 c4 10             	add    $0x10,%esp
  305a86:	c9                   	leave  
  305a87:	c3                   	ret    

00305a88 <do_inval_tss>:
  305a88:	55                   	push   %ebp
  305a89:	89 e5                	mov    %esp,%ebp
  305a8b:	83 ec 08             	sub    $0x8,%esp
  305a8e:	83 ec 04             	sub    $0x4,%esp
  305a91:	ff 75 08             	pushl  0x8(%ebp)
  305a94:	ff 75 0c             	pushl  0xc(%ebp)
  305a97:	68 87 d7 30 00       	push   $0x30d787
  305a9c:	e8 44 fe ff ff       	call   3058e5 <die>
  305aa1:	83 c4 10             	add    $0x10,%esp
  305aa4:	c9                   	leave  
  305aa5:	c3                   	ret    

00305aa6 <do_segment_not_present>:
  305aa6:	55                   	push   %ebp
  305aa7:	89 e5                	mov    %esp,%ebp
  305aa9:	83 ec 08             	sub    $0x8,%esp
  305aac:	83 ec 04             	sub    $0x4,%esp
  305aaf:	ff 75 08             	pushl  0x8(%ebp)
  305ab2:	ff 75 0c             	pushl  0xc(%ebp)
  305ab5:	68 91 d7 30 00       	push   $0x30d791
  305aba:	e8 26 fe ff ff       	call   3058e5 <die>
  305abf:	83 c4 10             	add    $0x10,%esp
  305ac2:	c9                   	leave  
  305ac3:	c3                   	ret    

00305ac4 <do_stack_exception>:
  305ac4:	55                   	push   %ebp
  305ac5:	89 e5                	mov    %esp,%ebp
  305ac7:	83 ec 08             	sub    $0x8,%esp
  305aca:	83 ec 04             	sub    $0x4,%esp
  305acd:	ff 75 08             	pushl  0x8(%ebp)
  305ad0:	ff 75 0c             	pushl  0xc(%ebp)
  305ad3:	68 a5 d7 30 00       	push   $0x30d7a5
  305ad8:	e8 08 fe ff ff       	call   3058e5 <die>
  305add:	83 c4 10             	add    $0x10,%esp
  305ae0:	c9                   	leave  
  305ae1:	c3                   	ret    

00305ae2 <do_general_protection>:
  305ae2:	55                   	push   %ebp
  305ae3:	89 e5                	mov    %esp,%ebp
  305ae5:	83 ec 08             	sub    $0x8,%esp
  305ae8:	83 ec 04             	sub    $0x4,%esp
  305aeb:	ff 75 08             	pushl  0x8(%ebp)
  305aee:	ff 75 0c             	pushl  0xc(%ebp)
  305af1:	68 b3 d7 30 00       	push   $0x30d7b3
  305af6:	e8 ea fd ff ff       	call   3058e5 <die>
  305afb:	83 c4 10             	add    $0x10,%esp
  305afe:	c9                   	leave  
  305aff:	c3                   	ret    

00305b00 <do_page_fault>:
  305b00:	55                   	push   %ebp
  305b01:	89 e5                	mov    %esp,%ebp
  305b03:	57                   	push   %edi
  305b04:	56                   	push   %esi
  305b05:	53                   	push   %ebx
  305b06:	83 ec 10             	sub    $0x10,%esp
  305b09:	0f 20 d0             	mov    %cr2,%eax
  305b0c:	89 45 f0             	mov    %eax,-0x10(%ebp)
  305b0f:	8b 45 f0             	mov    -0x10(%ebp),%eax
  305b12:	89 45 ec             	mov    %eax,-0x14(%ebp)
  305b15:	8b 45 08             	mov    0x8(%ebp),%eax
  305b18:	83 e0 01             	and    $0x1,%eax
  305b1b:	85 c0                	test   %eax,%eax
  305b1d:	75 23                	jne    305b42 <do_page_fault+0x42>
  305b1f:	b8 01 00 00 00       	mov    $0x1,%eax
  305b24:	bb 03 00 00 00       	mov    $0x3,%ebx
  305b29:	b9 07 00 00 00       	mov    $0x7,%ecx
  305b2e:	8b 55 ec             	mov    -0x14(%ebp),%edx
  305b31:	be 00 00 00 00       	mov    $0x0,%esi
  305b36:	bf 00 00 00 00       	mov    $0x0,%edi
  305b3b:	cd 80                	int    $0x80
  305b3d:	89 45 e8             	mov    %eax,-0x18(%ebp)
  305b40:	eb 2b                	jmp    305b6d <do_page_fault+0x6d>
  305b42:	8b 45 08             	mov    0x8(%ebp),%eax
  305b45:	83 e0 02             	and    $0x2,%eax
  305b48:	85 c0                	test   %eax,%eax
  305b4a:	74 21                	je     305b6d <do_page_fault+0x6d>
  305b4c:	b8 01 00 00 00       	mov    $0x1,%eax
  305b51:	bb 03 00 00 00       	mov    $0x3,%ebx
  305b56:	b9 08 00 00 00       	mov    $0x8,%ecx
  305b5b:	8b 55 ec             	mov    -0x14(%ebp),%edx
  305b5e:	be 00 00 00 00       	mov    $0x0,%esi
  305b63:	bf 00 00 00 00       	mov    $0x0,%edi
  305b68:	cd 80                	int    $0x80
  305b6a:	89 45 e4             	mov    %eax,-0x1c(%ebp)
  305b6d:	83 c4 10             	add    $0x10,%esp
  305b70:	5b                   	pop    %ebx
  305b71:	5e                   	pop    %esi
  305b72:	5f                   	pop    %edi
  305b73:	5d                   	pop    %ebp
  305b74:	c3                   	ret    

00305b75 <do_copr_error>:
  305b75:	55                   	push   %ebp
  305b76:	89 e5                	mov    %esp,%ebp
  305b78:	83 ec 08             	sub    $0x8,%esp
  305b7b:	83 ec 04             	sub    $0x4,%esp
  305b7e:	ff 75 08             	pushl  0x8(%ebp)
  305b81:	ff 75 0c             	pushl  0xc(%ebp)
  305b84:	68 c6 d7 30 00       	push   $0x30d7c6
  305b89:	e8 57 fd ff ff       	call   3058e5 <die>
  305b8e:	83 c4 10             	add    $0x10,%esp
  305b91:	c9                   	leave  
  305b92:	c3                   	ret    

00305b93 <do_none>:
  305b93:	55                   	push   %ebp
  305b94:	89 e5                	mov    %esp,%ebp
  305b96:	83 ec 08             	sub    $0x8,%esp
  305b99:	83 ec 04             	sub    $0x4,%esp
  305b9c:	ff 75 08             	pushl  0x8(%ebp)
  305b9f:	ff 75 0c             	pushl  0xc(%ebp)
  305ba2:	68 d1 d7 30 00       	push   $0x30d7d1
  305ba7:	e8 39 fd ff ff       	call   3058e5 <die>
  305bac:	83 c4 10             	add    $0x10,%esp
  305baf:	c9                   	leave  
  305bb0:	c3                   	ret    

00305bb1 <_null>:
  305bb1:	55                   	push   %ebp
  305bb2:	89 e5                	mov    %esp,%ebp
  305bb4:	5d                   	pop    %ebp
  305bb5:	c3                   	ret    

00305bb6 <disable_irq>:
  305bb6:	55                   	push   %ebp
  305bb7:	89 e5                	mov    %esp,%ebp
  305bb9:	83 ec 18             	sub    $0x18,%esp
  305bbc:	83 7d 08 10          	cmpl   $0x10,0x8(%ebp)
  305bc0:	7f 06                	jg     305bc8 <disable_irq+0x12>
  305bc2:	83 7d 08 00          	cmpl   $0x0,0x8(%ebp)
  305bc6:	79 10                	jns    305bd8 <disable_irq+0x22>
  305bc8:	83 ec 0c             	sub    $0xc,%esp
  305bcb:	68 e0 d7 30 00       	push   $0x30d7e0
  305bd0:	e8 b7 fa ff ff       	call   30568c <panic>
  305bd5:	83 c4 10             	add    $0x10,%esp
  305bd8:	83 7d 08 07          	cmpl   $0x7,0x8(%ebp)
  305bdc:	7e 1a                	jle    305bf8 <disable_irq+0x42>
  305bde:	8b 45 08             	mov    0x8(%ebp),%eax
  305be1:	83 e8 08             	sub    $0x8,%eax
  305be4:	ba 01 00 00 00       	mov    $0x1,%edx
  305be9:	89 c1                	mov    %eax,%ecx
  305beb:	d3 e2                	shl    %cl,%edx
  305bed:	89 d0                	mov    %edx,%eax
  305bef:	88 45 f7             	mov    %al,-0x9(%ebp)
  305bf2:	c6 45 f6 a1          	movb   $0xa1,-0xa(%ebp)
  305bf6:	eb 15                	jmp    305c0d <disable_irq+0x57>
  305bf8:	8b 45 08             	mov    0x8(%ebp),%eax
  305bfb:	ba 01 00 00 00       	mov    $0x1,%edx
  305c00:	89 c1                	mov    %eax,%ecx
  305c02:	d3 e2                	shl    %cl,%edx
  305c04:	89 d0                	mov    %edx,%eax
  305c06:	88 45 f7             	mov    %al,-0x9(%ebp)
  305c09:	c6 45 f6 21          	movb   $0x21,-0xa(%ebp)
  305c0d:	fa                   	cli    
  305c0e:	0f b6 45 f6          	movzbl -0xa(%ebp),%eax
  305c12:	89 c2                	mov    %eax,%edx
  305c14:	ec                   	in     (%dx),%al
  305c15:	88 45 f5             	mov    %al,-0xb(%ebp)
  305c18:	0f b6 45 f5          	movzbl -0xb(%ebp),%eax
  305c1c:	08 45 f7             	or     %al,-0x9(%ebp)
  305c1f:	0f b6 45 f7          	movzbl -0x9(%ebp),%eax
  305c23:	0f b6 55 f6          	movzbl -0xa(%ebp),%edx
  305c27:	ee                   	out    %al,(%dx)
  305c28:	fb                   	sti    
  305c29:	c9                   	leave  
  305c2a:	c3                   	ret    

00305c2b <enable_irq>:
  305c2b:	55                   	push   %ebp
  305c2c:	89 e5                	mov    %esp,%ebp
  305c2e:	83 ec 18             	sub    $0x18,%esp
  305c31:	83 7d 08 10          	cmpl   $0x10,0x8(%ebp)
  305c35:	7f 06                	jg     305c3d <enable_irq+0x12>
  305c37:	83 7d 08 00          	cmpl   $0x0,0x8(%ebp)
  305c3b:	79 10                	jns    305c4d <enable_irq+0x22>
  305c3d:	83 ec 0c             	sub    $0xc,%esp
  305c40:	68 e0 d7 30 00       	push   $0x30d7e0
  305c45:	e8 42 fa ff ff       	call   30568c <panic>
  305c4a:	83 c4 10             	add    $0x10,%esp
  305c4d:	83 7d 08 07          	cmpl   $0x7,0x8(%ebp)
  305c51:	7e 1c                	jle    305c6f <enable_irq+0x44>
  305c53:	8b 45 08             	mov    0x8(%ebp),%eax
  305c56:	83 e8 08             	sub    $0x8,%eax
  305c59:	ba 01 00 00 00       	mov    $0x1,%edx
  305c5e:	89 c1                	mov    %eax,%ecx
  305c60:	d3 e2                	shl    %cl,%edx
  305c62:	89 d0                	mov    %edx,%eax
  305c64:	f7 d0                	not    %eax
  305c66:	88 45 f7             	mov    %al,-0x9(%ebp)
  305c69:	c6 45 f6 a1          	movb   $0xa1,-0xa(%ebp)
  305c6d:	eb 17                	jmp    305c86 <enable_irq+0x5b>
  305c6f:	8b 45 08             	mov    0x8(%ebp),%eax
  305c72:	ba 01 00 00 00       	mov    $0x1,%edx
  305c77:	89 c1                	mov    %eax,%ecx
  305c79:	d3 e2                	shl    %cl,%edx
  305c7b:	89 d0                	mov    %edx,%eax
  305c7d:	f7 d0                	not    %eax
  305c7f:	88 45 f7             	mov    %al,-0x9(%ebp)
  305c82:	c6 45 f6 21          	movb   $0x21,-0xa(%ebp)
  305c86:	fa                   	cli    
  305c87:	0f b6 45 f6          	movzbl -0xa(%ebp),%eax
  305c8b:	89 c2                	mov    %eax,%edx
  305c8d:	ec                   	in     (%dx),%al
  305c8e:	eb 00                	jmp    305c90 <enable_irq+0x65>
  305c90:	eb 00                	jmp    305c92 <enable_irq+0x67>
  305c92:	88 45 f5             	mov    %al,-0xb(%ebp)
  305c95:	0f b6 45 f5          	movzbl -0xb(%ebp),%eax
  305c99:	20 45 f7             	and    %al,-0x9(%ebp)
  305c9c:	0f b6 45 f7          	movzbl -0x9(%ebp),%eax
  305ca0:	0f b6 55 f6          	movzbl -0xa(%ebp),%edx
  305ca4:	ee                   	out    %al,(%dx)
  305ca5:	eb 00                	jmp    305ca7 <enable_irq+0x7c>
  305ca7:	eb 00                	jmp    305ca9 <enable_irq+0x7e>
  305ca9:	fb                   	sti    
  305caa:	c9                   	leave  
  305cab:	c3                   	ret    

00305cac <spurious_irq>:
  305cac:	55                   	push   %ebp
  305cad:	89 e5                	mov    %esp,%ebp
  305caf:	83 ec 08             	sub    $0x8,%esp
  305cb2:	83 7d 0c 00          	cmpl   $0x0,0xc(%ebp)
  305cb6:	78 06                	js     305cbe <spurious_irq+0x12>
  305cb8:	83 7d 0c 0f          	cmpl   $0xf,0xc(%ebp)
  305cbc:	7e 10                	jle    305cce <spurious_irq+0x22>
  305cbe:	83 ec 0c             	sub    $0xc,%esp
  305cc1:	68 f8 d7 30 00       	push   $0x30d7f8
  305cc6:	e8 c1 f9 ff ff       	call   30568c <panic>
  305ccb:	83 c4 10             	add    $0x10,%esp
  305cce:	83 ec 08             	sub    $0x8,%esp
  305cd1:	ff 75 0c             	pushl  0xc(%ebp)
  305cd4:	68 15 d8 30 00       	push   $0x30d815
  305cd9:	e8 ca f9 ff ff       	call   3056a8 <printk>
  305cde:	83 c4 10             	add    $0x10,%esp
  305ce1:	b8 01 00 00 00       	mov    $0x1,%eax
  305ce6:	c9                   	leave  
  305ce7:	c3                   	ret    

00305ce8 <put_irq_handler>:
  305ce8:	55                   	push   %ebp
  305ce9:	89 e5                	mov    %esp,%ebp
  305ceb:	83 ec 08             	sub    $0x8,%esp
  305cee:	83 7d 08 00          	cmpl   $0x0,0x8(%ebp)
  305cf2:	78 06                	js     305cfa <put_irq_handler+0x12>
  305cf4:	83 7d 08 0f          	cmpl   $0xf,0x8(%ebp)
  305cf8:	7e 10                	jle    305d0a <put_irq_handler+0x22>
  305cfa:	83 ec 0c             	sub    $0xc,%esp
  305cfd:	68 28 d8 30 00       	push   $0x30d828
  305d02:	e8 85 f9 ff ff       	call   30568c <panic>
  305d07:	83 c4 10             	add    $0x10,%esp
  305d0a:	8b 45 08             	mov    0x8(%ebp),%eax
  305d0d:	8b 04 85 40 42 31 00 	mov    0x314240(,%eax,4),%eax
  305d14:	3b 45 0c             	cmp    0xc(%ebp),%eax
  305d17:	75 02                	jne    305d1b <put_irq_handler+0x33>
  305d19:	eb 5b                	jmp    305d76 <put_irq_handler+0x8e>
  305d1b:	8b 45 08             	mov    0x8(%ebp),%eax
  305d1e:	8b 04 85 40 42 31 00 	mov    0x314240(,%eax,4),%eax
  305d25:	3d ac 5c 30 00       	cmp    $0x305cac,%eax
  305d2a:	74 10                	je     305d3c <put_irq_handler+0x54>
  305d2c:	83 ec 0c             	sub    $0xc,%esp
  305d2f:	68 48 d8 30 00       	push   $0x30d848
  305d34:	e8 53 f9 ff ff       	call   30568c <panic>
  305d39:	83 c4 10             	add    $0x10,%esp
  305d3c:	83 ec 0c             	sub    $0xc,%esp
  305d3f:	ff 75 08             	pushl  0x8(%ebp)
  305d42:	e8 6f fe ff ff       	call   305bb6 <disable_irq>
  305d47:	83 c4 10             	add    $0x10,%esp
  305d4a:	8b 45 08             	mov    0x8(%ebp),%eax
  305d4d:	8b 55 0c             	mov    0xc(%ebp),%edx
  305d50:	89 14 85 40 42 31 00 	mov    %edx,0x314240(,%eax,4)
  305d57:	a1 04 26 31 00       	mov    0x312604,%eax
  305d5c:	8b 10                	mov    (%eax),%edx
  305d5e:	8b 45 08             	mov    0x8(%ebp),%eax
  305d61:	89 14 85 00 42 31 00 	mov    %edx,0x314200(,%eax,4)
  305d68:	83 ec 0c             	sub    $0xc,%esp
  305d6b:	ff 75 08             	pushl  0x8(%ebp)
  305d6e:	e8 b8 fe ff ff       	call   305c2b <enable_irq>
  305d73:	83 c4 10             	add    $0x10,%esp
  305d76:	c9                   	leave  
  305d77:	c3                   	ret    

00305d78 <trap_init>:
  305d78:	55                   	push   %ebp
  305d79:	89 e5                	mov    %esp,%ebp
  305d7b:	83 ec 10             	sub    $0x10,%esp
  305d7e:	c7 45 fc 00 00 00 00 	movl   $0x0,-0x4(%ebp)
  305d85:	eb 3d                	jmp    305dc4 <trap_init+0x4c>
  305d87:	b8 00 00 20 00       	mov    $0x200000,%eax
  305d8c:	8b 55 fc             	mov    -0x4(%ebp),%edx
  305d8f:	c1 e2 03             	shl    $0x3,%edx
  305d92:	01 d0                	add    %edx,%eax
  305d94:	ba 31 51 30 00       	mov    $0x305131,%edx
  305d99:	0f b7 d2             	movzwl %dx,%edx
  305d9c:	81 ca 00 00 08 00    	or     $0x80000,%edx
  305da2:	89 10                	mov    %edx,(%eax)
  305da4:	b8 00 00 20 00       	mov    $0x200000,%eax
  305da9:	8b 55 fc             	mov    -0x4(%ebp),%edx
  305dac:	c1 e2 03             	shl    $0x3,%edx
  305daf:	01 d0                	add    %edx,%eax
  305db1:	ba 31 51 30 00       	mov    $0x305131,%edx
  305db6:	66 ba 00 00          	mov    $0x0,%dx
  305dba:	80 ce 8e             	or     $0x8e,%dh
  305dbd:	89 50 04             	mov    %edx,0x4(%eax)
  305dc0:	83 45 fc 01          	addl   $0x1,-0x4(%ebp)
  305dc4:	81 7d fc ff 00 00 00 	cmpl   $0xff,-0x4(%ebp)
  305dcb:	7e ba                	jle    305d87 <trap_init+0xf>
  305dcd:	b8 00 00 20 00       	mov    $0x200000,%eax
  305dd2:	ba 68 50 30 00       	mov    $0x305068,%edx
  305dd7:	0f b7 d2             	movzwl %dx,%edx
  305dda:	81 ca 00 00 08 00    	or     $0x80000,%edx
  305de0:	89 10                	mov    %edx,(%eax)
  305de2:	b8 00 00 20 00       	mov    $0x200000,%eax
  305de7:	ba 68 50 30 00       	mov    $0x305068,%edx
  305dec:	66 ba 00 00          	mov    $0x0,%dx
  305df0:	80 ce 8f             	or     $0x8f,%dh
  305df3:	89 50 04             	mov    %edx,0x4(%eax)
  305df6:	b8 00 00 20 00       	mov    $0x200000,%eax
  305dfb:	83 c0 08             	add    $0x8,%eax
  305dfe:	ba a1 50 30 00       	mov    $0x3050a1,%edx
  305e03:	0f b7 d2             	movzwl %dx,%edx
  305e06:	81 ca 00 00 08 00    	or     $0x80000,%edx
  305e0c:	89 10                	mov    %edx,(%eax)
  305e0e:	b8 00 00 20 00       	mov    $0x200000,%eax
  305e13:	83 c0 08             	add    $0x8,%eax
  305e16:	ba a1 50 30 00       	mov    $0x3050a1,%edx
  305e1b:	66 ba 00 00          	mov    $0x0,%dx
  305e1f:	80 ce 8f             	or     $0x8f,%dh
  305e22:	89 50 04             	mov    %edx,0x4(%eax)
  305e25:	b8 00 00 20 00       	mov    $0x200000,%eax
  305e2a:	83 c0 10             	add    $0x10,%eax
  305e2d:	ba aa 50 30 00       	mov    $0x3050aa,%edx
  305e32:	0f b7 d2             	movzwl %dx,%edx
  305e35:	81 ca 00 00 08 00    	or     $0x80000,%edx
  305e3b:	89 10                	mov    %edx,(%eax)
  305e3d:	b8 00 00 20 00       	mov    $0x200000,%eax
  305e42:	83 c0 10             	add    $0x10,%eax
  305e45:	ba aa 50 30 00       	mov    $0x3050aa,%edx
  305e4a:	66 ba 00 00          	mov    $0x0,%dx
  305e4e:	80 ce 8e             	or     $0x8e,%dh
  305e51:	89 50 04             	mov    %edx,0x4(%eax)
  305e54:	b8 00 00 20 00       	mov    $0x200000,%eax
  305e59:	83 c0 18             	add    $0x18,%eax
  305e5c:	ba b3 50 30 00       	mov    $0x3050b3,%edx
  305e61:	0f b7 d2             	movzwl %dx,%edx
  305e64:	81 ca 00 00 08 00    	or     $0x80000,%edx
  305e6a:	89 10                	mov    %edx,(%eax)
  305e6c:	b8 00 00 20 00       	mov    $0x200000,%eax
  305e71:	83 c0 18             	add    $0x18,%eax
  305e74:	ba b3 50 30 00       	mov    $0x3050b3,%edx
  305e79:	66 ba 00 00          	mov    $0x0,%dx
  305e7d:	80 ce 8f             	or     $0x8f,%dh
  305e80:	89 50 04             	mov    %edx,0x4(%eax)
  305e83:	b8 00 00 20 00       	mov    $0x200000,%eax
  305e88:	83 c0 20             	add    $0x20,%eax
  305e8b:	ba bc 50 30 00       	mov    $0x3050bc,%edx
  305e90:	0f b7 d2             	movzwl %dx,%edx
  305e93:	81 ca 00 00 08 00    	or     $0x80000,%edx
  305e99:	89 10                	mov    %edx,(%eax)
  305e9b:	b8 00 00 20 00       	mov    $0x200000,%eax
  305ea0:	83 c0 20             	add    $0x20,%eax
  305ea3:	ba bc 50 30 00       	mov    $0x3050bc,%edx
  305ea8:	66 ba 00 00          	mov    $0x0,%dx
  305eac:	80 ce 8f             	or     $0x8f,%dh
  305eaf:	89 50 04             	mov    %edx,0x4(%eax)
  305eb2:	b8 00 00 20 00       	mov    $0x200000,%eax
  305eb7:	83 c0 28             	add    $0x28,%eax
  305eba:	ba c5 50 30 00       	mov    $0x3050c5,%edx
  305ebf:	0f b7 d2             	movzwl %dx,%edx
  305ec2:	81 ca 00 00 08 00    	or     $0x80000,%edx
  305ec8:	89 10                	mov    %edx,(%eax)
  305eca:	b8 00 00 20 00       	mov    $0x200000,%eax
  305ecf:	83 c0 28             	add    $0x28,%eax
  305ed2:	ba c5 50 30 00       	mov    $0x3050c5,%edx
  305ed7:	66 ba 00 00          	mov    $0x0,%dx
  305edb:	80 ce 8f             	or     $0x8f,%dh
  305ede:	89 50 04             	mov    %edx,0x4(%eax)
  305ee1:	b8 00 00 20 00       	mov    $0x200000,%eax
  305ee6:	83 c0 30             	add    $0x30,%eax
  305ee9:	ba ce 50 30 00       	mov    $0x3050ce,%edx
  305eee:	0f b7 d2             	movzwl %dx,%edx
  305ef1:	81 ca 00 00 08 00    	or     $0x80000,%edx
  305ef7:	89 10                	mov    %edx,(%eax)
  305ef9:	b8 00 00 20 00       	mov    $0x200000,%eax
  305efe:	83 c0 30             	add    $0x30,%eax
  305f01:	ba ce 50 30 00       	mov    $0x3050ce,%edx
  305f06:	66 ba 00 00          	mov    $0x0,%dx
  305f0a:	80 ce 8f             	or     $0x8f,%dh
  305f0d:	89 50 04             	mov    %edx,0x4(%eax)
  305f10:	b8 00 00 20 00       	mov    $0x200000,%eax
  305f15:	83 c0 38             	add    $0x38,%eax
  305f18:	ba d7 50 30 00       	mov    $0x3050d7,%edx
  305f1d:	0f b7 d2             	movzwl %dx,%edx
  305f20:	81 ca 00 00 08 00    	or     $0x80000,%edx
  305f26:	89 10                	mov    %edx,(%eax)
  305f28:	b8 00 00 20 00       	mov    $0x200000,%eax
  305f2d:	83 c0 38             	add    $0x38,%eax
  305f30:	ba d7 50 30 00       	mov    $0x3050d7,%edx
  305f35:	66 ba 00 00          	mov    $0x0,%dx
  305f39:	80 ce 8f             	or     $0x8f,%dh
  305f3c:	89 50 04             	mov    %edx,0x4(%eax)
  305f3f:	b8 00 00 20 00       	mov    $0x200000,%eax
  305f44:	83 c0 40             	add    $0x40,%eax
  305f47:	ba e0 50 30 00       	mov    $0x3050e0,%edx
  305f4c:	0f b7 d2             	movzwl %dx,%edx
  305f4f:	81 ca 00 00 08 00    	or     $0x80000,%edx
  305f55:	89 10                	mov    %edx,(%eax)
  305f57:	b8 00 00 20 00       	mov    $0x200000,%eax
  305f5c:	83 c0 40             	add    $0x40,%eax
  305f5f:	ba e0 50 30 00       	mov    $0x3050e0,%edx
  305f64:	66 ba 00 00          	mov    $0x0,%dx
  305f68:	80 ce 8f             	or     $0x8f,%dh
  305f6b:	89 50 04             	mov    %edx,0x4(%eax)
  305f6e:	b8 00 00 20 00       	mov    $0x200000,%eax
  305f73:	83 c0 48             	add    $0x48,%eax
  305f76:	ba e7 50 30 00       	mov    $0x3050e7,%edx
  305f7b:	0f b7 d2             	movzwl %dx,%edx
  305f7e:	81 ca 00 00 08 00    	or     $0x80000,%edx
  305f84:	89 10                	mov    %edx,(%eax)
  305f86:	b8 00 00 20 00       	mov    $0x200000,%eax
  305f8b:	83 c0 48             	add    $0x48,%eax
  305f8e:	ba e7 50 30 00       	mov    $0x3050e7,%edx
  305f93:	66 ba 00 00          	mov    $0x0,%dx
  305f97:	80 ce 8f             	or     $0x8f,%dh
  305f9a:	89 50 04             	mov    %edx,0x4(%eax)
  305f9d:	b8 00 00 20 00       	mov    $0x200000,%eax
  305fa2:	83 c0 50             	add    $0x50,%eax
  305fa5:	ba f3 50 30 00       	mov    $0x3050f3,%edx
  305faa:	0f b7 d2             	movzwl %dx,%edx
  305fad:	81 ca 00 00 08 00    	or     $0x80000,%edx
  305fb3:	89 10                	mov    %edx,(%eax)
  305fb5:	b8 00 00 20 00       	mov    $0x200000,%eax
  305fba:	83 c0 50             	add    $0x50,%eax
  305fbd:	ba f3 50 30 00       	mov    $0x3050f3,%edx
  305fc2:	66 ba 00 00          	mov    $0x0,%dx
  305fc6:	80 ce 8f             	or     $0x8f,%dh
  305fc9:	89 50 04             	mov    %edx,0x4(%eax)
  305fcc:	b8 00 00 20 00       	mov    $0x200000,%eax
  305fd1:	83 c0 58             	add    $0x58,%eax
  305fd4:	ba fd 50 30 00       	mov    $0x3050fd,%edx
  305fd9:	0f b7 d2             	movzwl %dx,%edx
  305fdc:	81 ca 00 00 08 00    	or     $0x80000,%edx
  305fe2:	89 10                	mov    %edx,(%eax)
  305fe4:	b8 00 00 20 00       	mov    $0x200000,%eax
  305fe9:	83 c0 58             	add    $0x58,%eax
  305fec:	ba fd 50 30 00       	mov    $0x3050fd,%edx
  305ff1:	66 ba 00 00          	mov    $0x0,%dx
  305ff5:	80 ce 8f             	or     $0x8f,%dh
  305ff8:	89 50 04             	mov    %edx,0x4(%eax)
  305ffb:	b8 00 00 20 00       	mov    $0x200000,%eax
  306000:	83 c0 60             	add    $0x60,%eax
  306003:	ba 07 51 30 00       	mov    $0x305107,%edx
  306008:	0f b7 d2             	movzwl %dx,%edx
  30600b:	81 ca 00 00 08 00    	or     $0x80000,%edx
  306011:	89 10                	mov    %edx,(%eax)
  306013:	b8 00 00 20 00       	mov    $0x200000,%eax
  306018:	83 c0 60             	add    $0x60,%eax
  30601b:	ba 07 51 30 00       	mov    $0x305107,%edx
  306020:	66 ba 00 00          	mov    $0x0,%dx
  306024:	80 ce 8f             	or     $0x8f,%dh
  306027:	89 50 04             	mov    %edx,0x4(%eax)
  30602a:	b8 00 00 20 00       	mov    $0x200000,%eax
  30602f:	83 c0 68             	add    $0x68,%eax
  306032:	ba 11 51 30 00       	mov    $0x305111,%edx
  306037:	0f b7 d2             	movzwl %dx,%edx
  30603a:	81 ca 00 00 08 00    	or     $0x80000,%edx
  306040:	89 10                	mov    %edx,(%eax)
  306042:	b8 00 00 20 00       	mov    $0x200000,%eax
  306047:	83 c0 68             	add    $0x68,%eax
  30604a:	ba 11 51 30 00       	mov    $0x305111,%edx
  30604f:	66 ba 00 00          	mov    $0x0,%dx
  306053:	80 ce 8f             	or     $0x8f,%dh
  306056:	89 50 04             	mov    %edx,0x4(%eax)
  306059:	b8 00 00 20 00       	mov    $0x200000,%eax
  30605e:	83 c0 70             	add    $0x70,%eax
  306061:	ba 1b 51 30 00       	mov    $0x30511b,%edx
  306066:	0f b7 d2             	movzwl %dx,%edx
  306069:	81 ca 00 00 08 00    	or     $0x80000,%edx
  30606f:	89 10                	mov    %edx,(%eax)
  306071:	b8 00 00 20 00       	mov    $0x200000,%eax
  306076:	83 c0 70             	add    $0x70,%eax
  306079:	ba 1b 51 30 00       	mov    $0x30511b,%edx
  30607e:	66 ba 00 00          	mov    $0x0,%dx
  306082:	80 ce 8f             	or     $0x8f,%dh
  306085:	89 50 04             	mov    %edx,0x4(%eax)
  306088:	b8 00 00 20 00       	mov    $0x200000,%eax
  30608d:	83 e8 80             	sub    $0xffffff80,%eax
  306090:	ba 25 51 30 00       	mov    $0x305125,%edx
  306095:	0f b7 d2             	movzwl %dx,%edx
  306098:	81 ca 00 00 08 00    	or     $0x80000,%edx
  30609e:	89 10                	mov    %edx,(%eax)
  3060a0:	b8 00 00 20 00       	mov    $0x200000,%eax
  3060a5:	83 e8 80             	sub    $0xffffff80,%eax
  3060a8:	ba 25 51 30 00       	mov    $0x305125,%edx
  3060ad:	66 ba 00 00          	mov    $0x0,%dx
  3060b1:	80 ce 8f             	or     $0x8f,%dh
  3060b4:	89 50 04             	mov    %edx,0x4(%eax)
  3060b7:	b8 00 00 20 00       	mov    $0x200000,%eax
  3060bc:	05 00 01 00 00       	add    $0x100,%eax
  3060c1:	ba 79 51 30 00       	mov    $0x305179,%edx
  3060c6:	0f b7 d2             	movzwl %dx,%edx
  3060c9:	81 ca 00 00 08 00    	or     $0x80000,%edx
  3060cf:	89 10                	mov    %edx,(%eax)
  3060d1:	b8 00 00 20 00       	mov    $0x200000,%eax
  3060d6:	05 00 01 00 00       	add    $0x100,%eax
  3060db:	ba 79 51 30 00       	mov    $0x305179,%edx
  3060e0:	66 ba 00 00          	mov    $0x0,%dx
  3060e4:	80 ce 8e             	or     $0x8e,%dh
  3060e7:	89 50 04             	mov    %edx,0x4(%eax)
  3060ea:	b8 00 00 20 00       	mov    $0x200000,%eax
  3060ef:	05 08 01 00 00       	add    $0x108,%eax
  3060f4:	ba e7 51 30 00       	mov    $0x3051e7,%edx
  3060f9:	0f b7 d2             	movzwl %dx,%edx
  3060fc:	81 ca 00 00 08 00    	or     $0x80000,%edx
  306102:	89 10                	mov    %edx,(%eax)
  306104:	b8 00 00 20 00       	mov    $0x200000,%eax
  306109:	05 08 01 00 00       	add    $0x108,%eax
  30610e:	ba e7 51 30 00       	mov    $0x3051e7,%edx
  306113:	66 ba 00 00          	mov    $0x0,%dx
  306117:	80 ce 8e             	or     $0x8e,%dh
  30611a:	89 50 04             	mov    %edx,0x4(%eax)
  30611d:	b8 00 00 20 00       	mov    $0x200000,%eax
  306122:	05 10 01 00 00       	add    $0x110,%eax
  306127:	ba 2d 52 30 00       	mov    $0x30522d,%edx
  30612c:	0f b7 d2             	movzwl %dx,%edx
  30612f:	81 ca 00 00 08 00    	or     $0x80000,%edx
  306135:	89 10                	mov    %edx,(%eax)
  306137:	b8 00 00 20 00       	mov    $0x200000,%eax
  30613c:	05 10 01 00 00       	add    $0x110,%eax
  306141:	ba 2d 52 30 00       	mov    $0x30522d,%edx
  306146:	66 ba 00 00          	mov    $0x0,%dx
  30614a:	80 ce 8e             	or     $0x8e,%dh
  30614d:	89 50 04             	mov    %edx,0x4(%eax)
  306150:	b8 00 00 20 00       	mov    $0x200000,%eax
  306155:	05 18 01 00 00       	add    $0x118,%eax
  30615a:	ba 73 52 30 00       	mov    $0x305273,%edx
  30615f:	0f b7 d2             	movzwl %dx,%edx
  306162:	81 ca 00 00 08 00    	or     $0x80000,%edx
  306168:	89 10                	mov    %edx,(%eax)
  30616a:	b8 00 00 20 00       	mov    $0x200000,%eax
  30616f:	05 18 01 00 00       	add    $0x118,%eax
  306174:	ba 73 52 30 00       	mov    $0x305273,%edx
  306179:	66 ba 00 00          	mov    $0x0,%dx
  30617d:	80 ce 8e             	or     $0x8e,%dh
  306180:	89 50 04             	mov    %edx,0x4(%eax)
  306183:	b8 00 00 20 00       	mov    $0x200000,%eax
  306188:	05 20 01 00 00       	add    $0x120,%eax
  30618d:	ba b9 52 30 00       	mov    $0x3052b9,%edx
  306192:	0f b7 d2             	movzwl %dx,%edx
  306195:	81 ca 00 00 08 00    	or     $0x80000,%edx
  30619b:	89 10                	mov    %edx,(%eax)
  30619d:	b8 00 00 20 00       	mov    $0x200000,%eax
  3061a2:	05 20 01 00 00       	add    $0x120,%eax
  3061a7:	ba b9 52 30 00       	mov    $0x3052b9,%edx
  3061ac:	66 ba 00 00          	mov    $0x0,%dx
  3061b0:	80 ce 8e             	or     $0x8e,%dh
  3061b3:	89 50 04             	mov    %edx,0x4(%eax)
  3061b6:	b8 00 00 20 00       	mov    $0x200000,%eax
  3061bb:	05 28 01 00 00       	add    $0x128,%eax
  3061c0:	ba ff 52 30 00       	mov    $0x3052ff,%edx
  3061c5:	0f b7 d2             	movzwl %dx,%edx
  3061c8:	81 ca 00 00 08 00    	or     $0x80000,%edx
  3061ce:	89 10                	mov    %edx,(%eax)
  3061d0:	b8 00 00 20 00       	mov    $0x200000,%eax
  3061d5:	05 28 01 00 00       	add    $0x128,%eax
  3061da:	ba ff 52 30 00       	mov    $0x3052ff,%edx
  3061df:	66 ba 00 00          	mov    $0x0,%dx
  3061e3:	80 ce 8e             	or     $0x8e,%dh
  3061e6:	89 50 04             	mov    %edx,0x4(%eax)
  3061e9:	b8 00 00 20 00       	mov    $0x200000,%eax
  3061ee:	05 30 01 00 00       	add    $0x130,%eax
  3061f3:	ba 45 53 30 00       	mov    $0x305345,%edx
  3061f8:	0f b7 d2             	movzwl %dx,%edx
  3061fb:	81 ca 00 00 08 00    	or     $0x80000,%edx
  306201:	89 10                	mov    %edx,(%eax)
  306203:	b8 00 00 20 00       	mov    $0x200000,%eax
  306208:	05 30 01 00 00       	add    $0x130,%eax
  30620d:	ba 45 53 30 00       	mov    $0x305345,%edx
  306212:	66 ba 00 00          	mov    $0x0,%dx
  306216:	80 ce 8e             	or     $0x8e,%dh
  306219:	89 50 04             	mov    %edx,0x4(%eax)
  30621c:	b8 00 00 20 00       	mov    $0x200000,%eax
  306221:	05 38 01 00 00       	add    $0x138,%eax
  306226:	ba 8b 53 30 00       	mov    $0x30538b,%edx
  30622b:	0f b7 d2             	movzwl %dx,%edx
  30622e:	81 ca 00 00 08 00    	or     $0x80000,%edx
  306234:	89 10                	mov    %edx,(%eax)
  306236:	b8 00 00 20 00       	mov    $0x200000,%eax
  30623b:	05 38 01 00 00       	add    $0x138,%eax
  306240:	ba 8b 53 30 00       	mov    $0x30538b,%edx
  306245:	66 ba 00 00          	mov    $0x0,%dx
  306249:	80 ce 8e             	or     $0x8e,%dh
  30624c:	89 50 04             	mov    %edx,0x4(%eax)
  30624f:	b8 00 00 20 00       	mov    $0x200000,%eax
  306254:	05 40 01 00 00       	add    $0x140,%eax
  306259:	ba d1 53 30 00       	mov    $0x3053d1,%edx
  30625e:	0f b7 d2             	movzwl %dx,%edx
  306261:	81 ca 00 00 08 00    	or     $0x80000,%edx
  306267:	89 10                	mov    %edx,(%eax)
  306269:	b8 00 00 20 00       	mov    $0x200000,%eax
  30626e:	05 40 01 00 00       	add    $0x140,%eax
  306273:	ba d1 53 30 00       	mov    $0x3053d1,%edx
  306278:	66 ba 00 00          	mov    $0x0,%dx
  30627c:	80 ce 8e             	or     $0x8e,%dh
  30627f:	89 50 04             	mov    %edx,0x4(%eax)
  306282:	b8 00 00 20 00       	mov    $0x200000,%eax
  306287:	05 48 01 00 00       	add    $0x148,%eax
  30628c:	ba 1b 54 30 00       	mov    $0x30541b,%edx
  306291:	0f b7 d2             	movzwl %dx,%edx
  306294:	81 ca 00 00 08 00    	or     $0x80000,%edx
  30629a:	89 10                	mov    %edx,(%eax)
  30629c:	b8 00 00 20 00       	mov    $0x200000,%eax
  3062a1:	05 48 01 00 00       	add    $0x148,%eax
  3062a6:	ba 1b 54 30 00       	mov    $0x30541b,%edx
  3062ab:	66 ba 00 00          	mov    $0x0,%dx
  3062af:	80 ce 8e             	or     $0x8e,%dh
  3062b2:	89 50 04             	mov    %edx,0x4(%eax)
  3062b5:	b8 00 00 20 00       	mov    $0x200000,%eax
  3062ba:	05 50 01 00 00       	add    $0x150,%eax
  3062bf:	ba 65 54 30 00       	mov    $0x305465,%edx
  3062c4:	0f b7 d2             	movzwl %dx,%edx
  3062c7:	81 ca 00 00 08 00    	or     $0x80000,%edx
  3062cd:	89 10                	mov    %edx,(%eax)
  3062cf:	b8 00 00 20 00       	mov    $0x200000,%eax
  3062d4:	05 50 01 00 00       	add    $0x150,%eax
  3062d9:	ba 65 54 30 00       	mov    $0x305465,%edx
  3062de:	66 ba 00 00          	mov    $0x0,%dx
  3062e2:	80 ce 8e             	or     $0x8e,%dh
  3062e5:	89 50 04             	mov    %edx,0x4(%eax)
  3062e8:	b8 00 00 20 00       	mov    $0x200000,%eax
  3062ed:	05 58 01 00 00       	add    $0x158,%eax
  3062f2:	ba af 54 30 00       	mov    $0x3054af,%edx
  3062f7:	0f b7 d2             	movzwl %dx,%edx
  3062fa:	81 ca 00 00 08 00    	or     $0x80000,%edx
  306300:	89 10                	mov    %edx,(%eax)
  306302:	b8 00 00 20 00       	mov    $0x200000,%eax
  306307:	05 58 01 00 00       	add    $0x158,%eax
  30630c:	ba af 54 30 00       	mov    $0x3054af,%edx
  306311:	66 ba 00 00          	mov    $0x0,%dx
  306315:	80 ce 8e             	or     $0x8e,%dh
  306318:	89 50 04             	mov    %edx,0x4(%eax)
  30631b:	b8 00 00 20 00       	mov    $0x200000,%eax
  306320:	05 60 01 00 00       	add    $0x160,%eax
  306325:	ba f9 54 30 00       	mov    $0x3054f9,%edx
  30632a:	0f b7 d2             	movzwl %dx,%edx
  30632d:	81 ca 00 00 08 00    	or     $0x80000,%edx
  306333:	89 10                	mov    %edx,(%eax)
  306335:	b8 00 00 20 00       	mov    $0x200000,%eax
  30633a:	05 60 01 00 00       	add    $0x160,%eax
  30633f:	ba f9 54 30 00       	mov    $0x3054f9,%edx
  306344:	66 ba 00 00          	mov    $0x0,%dx
  306348:	80 ce 8e             	or     $0x8e,%dh
  30634b:	89 50 04             	mov    %edx,0x4(%eax)
  30634e:	b8 00 00 20 00       	mov    $0x200000,%eax
  306353:	05 68 01 00 00       	add    $0x168,%eax
  306358:	ba 43 55 30 00       	mov    $0x305543,%edx
  30635d:	0f b7 d2             	movzwl %dx,%edx
  306360:	81 ca 00 00 08 00    	or     $0x80000,%edx
  306366:	89 10                	mov    %edx,(%eax)
  306368:	b8 00 00 20 00       	mov    $0x200000,%eax
  30636d:	05 68 01 00 00       	add    $0x168,%eax
  306372:	ba 43 55 30 00       	mov    $0x305543,%edx
  306377:	66 ba 00 00          	mov    $0x0,%dx
  30637b:	80 ce 8e             	or     $0x8e,%dh
  30637e:	89 50 04             	mov    %edx,0x4(%eax)
  306381:	b8 00 00 20 00       	mov    $0x200000,%eax
  306386:	05 70 01 00 00       	add    $0x170,%eax
  30638b:	ba 8d 55 30 00       	mov    $0x30558d,%edx
  306390:	0f b7 d2             	movzwl %dx,%edx
  306393:	81 ca 00 00 08 00    	or     $0x80000,%edx
  306399:	89 10                	mov    %edx,(%eax)
  30639b:	b8 00 00 20 00       	mov    $0x200000,%eax
  3063a0:	05 70 01 00 00       	add    $0x170,%eax
  3063a5:	ba 8d 55 30 00       	mov    $0x30558d,%edx
  3063aa:	66 ba 00 00          	mov    $0x0,%dx
  3063ae:	80 ce 8e             	or     $0x8e,%dh
  3063b1:	89 50 04             	mov    %edx,0x4(%eax)
  3063b4:	b8 00 00 20 00       	mov    $0x200000,%eax
  3063b9:	05 78 01 00 00       	add    $0x178,%eax
  3063be:	ba d7 55 30 00       	mov    $0x3055d7,%edx
  3063c3:	0f b7 d2             	movzwl %dx,%edx
  3063c6:	81 ca 00 00 08 00    	or     $0x80000,%edx
  3063cc:	89 10                	mov    %edx,(%eax)
  3063ce:	b8 00 00 20 00       	mov    $0x200000,%eax
  3063d3:	05 78 01 00 00       	add    $0x178,%eax
  3063d8:	ba d7 55 30 00       	mov    $0x3055d7,%edx
  3063dd:	66 ba 00 00          	mov    $0x0,%dx
  3063e1:	80 ce 8e             	or     $0x8e,%dh
  3063e4:	89 50 04             	mov    %edx,0x4(%eax)
  3063e7:	b8 00 00 20 00       	mov    $0x200000,%eax
  3063ec:	05 00 04 00 00       	add    $0x400,%eax
  3063f1:	ba 55 56 30 00       	mov    $0x305655,%edx
  3063f6:	0f b7 d2             	movzwl %dx,%edx
  3063f9:	81 ca 00 00 08 00    	or     $0x80000,%edx
  3063ff:	89 10                	mov    %edx,(%eax)
  306401:	b8 00 00 20 00       	mov    $0x200000,%eax
  306406:	05 00 04 00 00       	add    $0x400,%eax
  30640b:	ba 55 56 30 00       	mov    $0x305655,%edx
  306410:	66 ba 00 00          	mov    $0x0,%dx
  306414:	80 ce ee             	or     $0xee,%dh
  306417:	89 50 04             	mov    %edx,0x4(%eax)
  30641a:	b8 00 00 20 00       	mov    $0x200000,%eax
  30641f:	05 08 04 00 00       	add    $0x408,%eax
  306424:	ba 3d 51 30 00       	mov    $0x30513d,%edx
  306429:	0f b7 d2             	movzwl %dx,%edx
  30642c:	81 ca 00 00 08 00    	or     $0x80000,%edx
  306432:	89 10                	mov    %edx,(%eax)
  306434:	b8 00 00 20 00       	mov    $0x200000,%eax
  306439:	05 08 04 00 00       	add    $0x408,%eax
  30643e:	ba 3d 51 30 00       	mov    $0x30513d,%edx
  306443:	66 ba 00 00          	mov    $0x0,%dx
  306447:	80 ce ee             	or     $0xee,%dh
  30644a:	89 50 04             	mov    %edx,0x4(%eax)
  30644d:	c7 45 f8 00 00 00 00 	movl   $0x0,-0x8(%ebp)
  306454:	eb 12                	jmp    306468 <trap_init+0x6f0>
  306456:	8b 45 f8             	mov    -0x8(%ebp),%eax
  306459:	c7 04 85 40 42 31 00 	movl   $0x305cac,0x314240(,%eax,4)
  306460:	ac 5c 30 00 
  306464:	83 45 f8 01          	addl   $0x1,-0x8(%ebp)
  306468:	83 7d f8 0f          	cmpl   $0xf,-0x8(%ebp)
  30646c:	7e e8                	jle    306456 <trap_init+0x6de>
  30646e:	b8 11 00 00 00       	mov    $0x11,%eax
  306473:	ba 20 00 00 00       	mov    $0x20,%edx
  306478:	ee                   	out    %al,(%dx)
  306479:	eb 00                	jmp    30647b <trap_init+0x703>
  30647b:	eb 00                	jmp    30647d <trap_init+0x705>
  30647d:	b8 20 00 00 00       	mov    $0x20,%eax
  306482:	ba 21 00 00 00       	mov    $0x21,%edx
  306487:	ee                   	out    %al,(%dx)
  306488:	eb 00                	jmp    30648a <trap_init+0x712>
  30648a:	eb 00                	jmp    30648c <trap_init+0x714>
  30648c:	b8 04 00 00 00       	mov    $0x4,%eax
  306491:	ba 21 00 00 00       	mov    $0x21,%edx
  306496:	ee                   	out    %al,(%dx)
  306497:	eb 00                	jmp    306499 <trap_init+0x721>
  306499:	eb 00                	jmp    30649b <trap_init+0x723>
  30649b:	b8 01 00 00 00       	mov    $0x1,%eax
  3064a0:	ba 21 00 00 00       	mov    $0x21,%edx
  3064a5:	ee                   	out    %al,(%dx)
  3064a6:	eb 00                	jmp    3064a8 <trap_init+0x730>
  3064a8:	eb 00                	jmp    3064aa <trap_init+0x732>
  3064aa:	b8 fb ff ff ff       	mov    $0xfffffffb,%eax
  3064af:	ba 21 00 00 00       	mov    $0x21,%edx
  3064b4:	ee                   	out    %al,(%dx)
  3064b5:	eb 00                	jmp    3064b7 <trap_init+0x73f>
  3064b7:	eb 00                	jmp    3064b9 <trap_init+0x741>
  3064b9:	b8 11 00 00 00       	mov    $0x11,%eax
  3064be:	ba a0 00 00 00       	mov    $0xa0,%edx
  3064c3:	ee                   	out    %al,(%dx)
  3064c4:	eb 00                	jmp    3064c6 <trap_init+0x74e>
  3064c6:	eb 00                	jmp    3064c8 <trap_init+0x750>
  3064c8:	b8 28 00 00 00       	mov    $0x28,%eax
  3064cd:	ba a1 00 00 00       	mov    $0xa1,%edx
  3064d2:	ee                   	out    %al,(%dx)
  3064d3:	eb 00                	jmp    3064d5 <trap_init+0x75d>
  3064d5:	eb 00                	jmp    3064d7 <trap_init+0x75f>
  3064d7:	b8 02 00 00 00       	mov    $0x2,%eax
  3064dc:	ba a1 00 00 00       	mov    $0xa1,%edx
  3064e1:	ee                   	out    %al,(%dx)
  3064e2:	eb 00                	jmp    3064e4 <trap_init+0x76c>
  3064e4:	eb 00                	jmp    3064e6 <trap_init+0x76e>
  3064e6:	b8 01 00 00 00       	mov    $0x1,%eax
  3064eb:	ba a1 00 00 00       	mov    $0xa1,%edx
  3064f0:	ee                   	out    %al,(%dx)
  3064f1:	eb 00                	jmp    3064f3 <trap_init+0x77b>
  3064f3:	eb 00                	jmp    3064f5 <trap_init+0x77d>
  3064f5:	b8 ff 00 00 00       	mov    $0xff,%eax
  3064fa:	ba a1 00 00 00       	mov    $0xa1,%edx
  3064ff:	ee                   	out    %al,(%dx)
  306500:	eb 00                	jmp    306502 <trap_init+0x78a>
  306502:	eb 00                	jmp    306504 <trap_init+0x78c>
  306504:	c9                   	leave  
  306505:	c3                   	ret    
  306506:	66 90                	xchg   %ax,%ax

00306508 <ret>:
  306508:	55                   	push   %ebp
  306509:	89 e5                	mov    %esp,%ebp
  30650b:	57                   	push   %edi
  30650c:	56                   	push   %esi
  30650d:	53                   	push   %ebx
  30650e:	83 ec 10             	sub    $0x10,%esp
  306511:	b8 02 00 00 00       	mov    $0x2,%eax
  306516:	8b 5d 08             	mov    0x8(%ebp),%ebx
  306519:	8b 4d 0c             	mov    0xc(%ebp),%ecx
  30651c:	ba 00 00 00 00       	mov    $0x0,%edx
  306521:	be 00 00 00 00       	mov    $0x0,%esi
  306526:	bf 00 00 00 00       	mov    $0x0,%edi
  30652b:	cd 80                	int    $0x80
  30652d:	89 45 f0             	mov    %eax,-0x10(%ebp)
  306530:	8b 45 f0             	mov    -0x10(%ebp),%eax
  306533:	83 c4 10             	add    $0x10,%esp
  306536:	5b                   	pop    %ebx
  306537:	5e                   	pop    %esi
  306538:	5f                   	pop    %edi
  306539:	5d                   	pop    %ebp
  30653a:	c3                   	ret    

0030653b <strcpy>:
  30653b:	55                   	push   %ebp
  30653c:	89 e5                	mov    %esp,%ebp
  30653e:	57                   	push   %edi
  30653f:	56                   	push   %esi
  306540:	8b 55 0c             	mov    0xc(%ebp),%edx
  306543:	8b 4d 08             	mov    0x8(%ebp),%ecx
  306546:	89 d6                	mov    %edx,%esi
  306548:	89 cf                	mov    %ecx,%edi
  30654a:	fc                   	cld    
  30654b:	ac                   	lods   %ds:(%esi),%al
  30654c:	aa                   	stos   %al,%es:(%edi)
  30654d:	84 c0                	test   %al,%al
  30654f:	75 fa                	jne    30654b <strcpy+0x10>
  306551:	8b 45 08             	mov    0x8(%ebp),%eax
  306554:	5e                   	pop    %esi
  306555:	5f                   	pop    %edi
  306556:	5d                   	pop    %ebp
  306557:	c3                   	ret    

00306558 <memcpy>:
  306558:	55                   	push   %ebp
  306559:	89 e5                	mov    %esp,%ebp
  30655b:	57                   	push   %edi
  30655c:	56                   	push   %esi
  30655d:	53                   	push   %ebx
  30655e:	8b 45 10             	mov    0x10(%ebp),%eax
  306561:	8b 55 0c             	mov    0xc(%ebp),%edx
  306564:	8b 5d 08             	mov    0x8(%ebp),%ebx
  306567:	89 c1                	mov    %eax,%ecx
  306569:	89 d6                	mov    %edx,%esi
  30656b:	89 df                	mov    %ebx,%edi
  30656d:	fc                   	cld    
  30656e:	f3 a4                	rep movsb %ds:(%esi),%es:(%edi)
  306570:	8b 45 08             	mov    0x8(%ebp),%eax
  306573:	5b                   	pop    %ebx
  306574:	5e                   	pop    %esi
  306575:	5f                   	pop    %edi
  306576:	5d                   	pop    %ebp
  306577:	c3                   	ret    

00306578 <pick_task>:
  306578:	55                   	push   %ebp
  306579:	89 e5                	mov    %esp,%ebp
  30657b:	83 ec 18             	sub    $0x18,%esp
  30657e:	a1 04 26 31 00       	mov    0x312604,%eax
  306583:	89 45 f4             	mov    %eax,-0xc(%ebp)
  306586:	a1 0c 26 31 00       	mov    0x31260c,%eax
  30658b:	85 c0                	test   %eax,%eax
  30658d:	74 0c                	je     30659b <pick_task+0x23>
  30658f:	a1 0c 26 31 00       	mov    0x31260c,%eax
  306594:	a3 04 26 31 00       	mov    %eax,0x312604
  306599:	eb 1f                	jmp    3065ba <pick_task+0x42>
  30659b:	a1 10 26 31 00       	mov    0x312610,%eax
  3065a0:	85 c0                	test   %eax,%eax
  3065a2:	74 0c                	je     3065b0 <pick_task+0x38>
  3065a4:	a1 10 26 31 00       	mov    0x312610,%eax
  3065a9:	a3 04 26 31 00       	mov    %eax,0x312604
  3065ae:	eb 0a                	jmp    3065ba <pick_task+0x42>
  3065b0:	a1 14 26 31 00       	mov    0x312614,%eax
  3065b5:	a3 04 26 31 00       	mov    %eax,0x312604
  3065ba:	a1 24 26 31 00       	mov    0x312624,%eax
  3065bf:	8b 15 04 26 31 00    	mov    0x312604,%edx
  3065c5:	81 c2 00 10 00 00    	add    $0x1000,%edx
  3065cb:	89 50 04             	mov    %edx,0x4(%eax)
  3065ce:	a1 04 26 31 00       	mov    0x312604,%eax
  3065d3:	39 45 f4             	cmp    %eax,-0xc(%ebp)
  3065d6:	74 2a                	je     306602 <pick_task+0x8a>
  3065d8:	a1 04 26 31 00       	mov    0x312604,%eax
  3065dd:	8b 80 b4 00 00 00    	mov    0xb4(%eax),%eax
  3065e3:	8b 15 04 26 31 00    	mov    0x312604,%edx
  3065e9:	8d 4a 18             	lea    0x18(%edx),%ecx
  3065ec:	8b 55 f4             	mov    -0xc(%ebp),%edx
  3065ef:	83 c2 18             	add    $0x18,%edx
  3065f2:	50                   	push   %eax
  3065f3:	51                   	push   %ecx
  3065f4:	52                   	push   %edx
  3065f5:	68 78 d8 30 00       	push   $0x30d878
  3065fa:	e8 a9 f0 ff ff       	call   3056a8 <printk>
  3065ff:	83 c4 10             	add    $0x10,%esp
  306602:	c9                   	leave  
  306603:	c3                   	ret    

00306604 <sched>:
  306604:	55                   	push   %ebp
  306605:	89 e5                	mov    %esp,%ebp
  306607:	83 ec 08             	sub    $0x8,%esp
  30660a:	a1 10 26 31 00       	mov    0x312610,%eax
  30660f:	85 c0                	test   %eax,%eax
  306611:	74 60                	je     306673 <sched+0x6f>
  306613:	a1 10 26 31 00       	mov    0x312610,%eax
  306618:	8b 80 a8 00 00 00    	mov    0xa8(%eax),%eax
  30661e:	85 c0                	test   %eax,%eax
  306620:	75 51                	jne    306673 <sched+0x6f>
  306622:	a1 1c 26 31 00       	mov    0x31261c,%eax
  306627:	8b 15 10 26 31 00    	mov    0x312610,%edx
  30662d:	89 90 b8 00 00 00    	mov    %edx,0xb8(%eax)
  306633:	a1 10 26 31 00       	mov    0x312610,%eax
  306638:	a3 1c 26 31 00       	mov    %eax,0x31261c
  30663d:	a1 10 26 31 00       	mov    0x312610,%eax
  306642:	8b 80 b8 00 00 00    	mov    0xb8(%eax),%eax
  306648:	a3 10 26 31 00       	mov    %eax,0x312610
  30664d:	a1 1c 26 31 00       	mov    0x31261c,%eax
  306652:	c7 80 b8 00 00 00 00 	movl   $0x0,0xb8(%eax)
  306659:	00 00 00 
  30665c:	a1 10 26 31 00       	mov    0x312610,%eax
  306661:	8b 15 10 26 31 00    	mov    0x312610,%edx
  306667:	8b 92 a4 00 00 00    	mov    0xa4(%edx),%edx
  30666d:	89 90 a8 00 00 00    	mov    %edx,0xa8(%eax)
  306673:	e8 00 ff ff ff       	call   306578 <pick_task>
  306678:	c9                   	leave  
  306679:	c3                   	ret    

0030667a <ready>:
  30667a:	55                   	push   %ebp
  30667b:	89 e5                	mov    %esp,%ebp
  30667d:	83 ec 08             	sub    $0x8,%esp
  306680:	83 7d 08 00          	cmpl   $0x0,0x8(%ebp)
  306684:	75 10                	jne    306696 <ready+0x1c>
  306686:	83 ec 0c             	sub    $0xc,%esp
  306689:	68 8e d8 30 00       	push   $0x30d88e
  30668e:	e8 f9 ef ff ff       	call   30568c <panic>
  306693:	83 c4 10             	add    $0x10,%esp
  306696:	8b 45 08             	mov    0x8(%ebp),%eax
  306699:	8b 80 ac 00 00 00    	mov    0xac(%eax),%eax
  30669f:	8b 04 85 0c 26 31 00 	mov    0x31260c(,%eax,4),%eax
  3066a6:	85 c0                	test   %eax,%eax
  3066a8:	75 15                	jne    3066bf <ready+0x45>
  3066aa:	8b 45 08             	mov    0x8(%ebp),%eax
  3066ad:	8b 80 ac 00 00 00    	mov    0xac(%eax),%eax
  3066b3:	8b 55 08             	mov    0x8(%ebp),%edx
  3066b6:	89 14 85 0c 26 31 00 	mov    %edx,0x31260c(,%eax,4)
  3066bd:	eb 19                	jmp    3066d8 <ready+0x5e>
  3066bf:	8b 45 08             	mov    0x8(%ebp),%eax
  3066c2:	8b 80 ac 00 00 00    	mov    0xac(%eax),%eax
  3066c8:	8b 04 85 18 26 31 00 	mov    0x312618(,%eax,4),%eax
  3066cf:	8b 55 08             	mov    0x8(%ebp),%edx
  3066d2:	89 90 b8 00 00 00    	mov    %edx,0xb8(%eax)
  3066d8:	8b 45 08             	mov    0x8(%ebp),%eax
  3066db:	c7 80 b8 00 00 00 00 	movl   $0x0,0xb8(%eax)
  3066e2:	00 00 00 
  3066e5:	8b 45 08             	mov    0x8(%ebp),%eax
  3066e8:	8b 80 ac 00 00 00    	mov    0xac(%eax),%eax
  3066ee:	8b 55 08             	mov    0x8(%ebp),%edx
  3066f1:	89 14 85 18 26 31 00 	mov    %edx,0x312618(,%eax,4)
  3066f8:	c9                   	leave  
  3066f9:	c3                   	ret    

003066fa <unready>:
  3066fa:	55                   	push   %ebp
  3066fb:	89 e5                	mov    %esp,%ebp
  3066fd:	83 ec 18             	sub    $0x18,%esp
  306700:	83 7d 08 00          	cmpl   $0x0,0x8(%ebp)
  306704:	75 10                	jne    306716 <unready+0x1c>
  306706:	83 ec 0c             	sub    $0xc,%esp
  306709:	68 ac d8 30 00       	push   $0x30d8ac
  30670e:	e8 79 ef ff ff       	call   30568c <panic>
  306713:	83 c4 10             	add    $0x10,%esp
  306716:	8b 45 08             	mov    0x8(%ebp),%eax
  306719:	8b 80 ac 00 00 00    	mov    0xac(%eax),%eax
  30671f:	8b 04 85 0c 26 31 00 	mov    0x31260c(,%eax,4),%eax
  306726:	89 45 f4             	mov    %eax,-0xc(%ebp)
  306729:	83 7d f4 00          	cmpl   $0x0,-0xc(%ebp)
  30672d:	0f 84 95 00 00 00    	je     3067c8 <unready+0xce>
  306733:	8b 45 f4             	mov    -0xc(%ebp),%eax
  306736:	3b 45 08             	cmp    0x8(%ebp),%eax
  306739:	75 1b                	jne    306756 <unready+0x5c>
  30673b:	8b 45 08             	mov    0x8(%ebp),%eax
  30673e:	8b 80 ac 00 00 00    	mov    0xac(%eax),%eax
  306744:	8b 55 08             	mov    0x8(%ebp),%edx
  306747:	8b 92 b8 00 00 00    	mov    0xb8(%edx),%edx
  30674d:	89 14 85 0c 26 31 00 	mov    %edx,0x31260c(,%eax,4)
  306754:	eb 72                	jmp    3067c8 <unready+0xce>
  306756:	eb 22                	jmp    30677a <unready+0x80>
  306758:	8b 45 f4             	mov    -0xc(%ebp),%eax
  30675b:	8b 80 b8 00 00 00    	mov    0xb8(%eax),%eax
  306761:	89 45 f4             	mov    %eax,-0xc(%ebp)
  306764:	83 7d f4 00          	cmpl   $0x0,-0xc(%ebp)
  306768:	75 10                	jne    30677a <unready+0x80>
  30676a:	83 ec 0c             	sub    $0xc,%esp
  30676d:	68 d0 d8 30 00       	push   $0x30d8d0
  306772:	e8 15 ef ff ff       	call   30568c <panic>
  306777:	83 c4 10             	add    $0x10,%esp
  30677a:	8b 45 f4             	mov    -0xc(%ebp),%eax
  30677d:	8b 80 b8 00 00 00    	mov    0xb8(%eax),%eax
  306783:	3b 45 08             	cmp    0x8(%ebp),%eax
  306786:	75 d0                	jne    306758 <unready+0x5e>
  306788:	8b 45 f4             	mov    -0xc(%ebp),%eax
  30678b:	8b 80 b8 00 00 00    	mov    0xb8(%eax),%eax
  306791:	8b 90 b8 00 00 00    	mov    0xb8(%eax),%edx
  306797:	8b 45 f4             	mov    -0xc(%ebp),%eax
  30679a:	89 90 b8 00 00 00    	mov    %edx,0xb8(%eax)
  3067a0:	8b 45 08             	mov    0x8(%ebp),%eax
  3067a3:	8b 80 ac 00 00 00    	mov    0xac(%eax),%eax
  3067a9:	8b 04 85 18 26 31 00 	mov    0x312618(,%eax,4),%eax
  3067b0:	3b 45 08             	cmp    0x8(%ebp),%eax
  3067b3:	75 13                	jne    3067c8 <unready+0xce>
  3067b5:	8b 45 08             	mov    0x8(%ebp),%eax
  3067b8:	8b 80 ac 00 00 00    	mov    0xac(%eax),%eax
  3067be:	8b 55 f4             	mov    -0xc(%ebp),%edx
  3067c1:	89 14 85 18 26 31 00 	mov    %edx,0x312618(,%eax,4)
  3067c8:	cd 81                	int    $0x81
  3067ca:	c9                   	leave  
  3067cb:	c3                   	ret    

003067cc <_sleep>:
  3067cc:	55                   	push   %ebp
  3067cd:	89 e5                	mov    %esp,%ebp
  3067cf:	83 ec 18             	sub    $0x18,%esp
  3067d2:	8b 45 08             	mov    0x8(%ebp),%eax
  3067d5:	c7 80 8c 00 00 00 01 	movl   $0x1,0x8c(%eax)
  3067dc:	00 00 00 
  3067df:	8b 45 08             	mov    0x8(%ebp),%eax
  3067e2:	89 45 f4             	mov    %eax,-0xc(%ebp)
  3067e5:	8b 45 f4             	mov    -0xc(%ebp),%eax
  3067e8:	83 ec 0c             	sub    $0xc,%esp
  3067eb:	50                   	push   %eax
  3067ec:	e8 09 ff ff ff       	call   3066fa <unready>
  3067f1:	83 c4 10             	add    $0x10,%esp
  3067f4:	c9                   	leave  
  3067f5:	c3                   	ret    

003067f6 <_wait>:
  3067f6:	55                   	push   %ebp
  3067f7:	89 e5                	mov    %esp,%ebp
  3067f9:	83 ec 18             	sub    $0x18,%esp
  3067fc:	8b 45 08             	mov    0x8(%ebp),%eax
  3067ff:	c7 80 8c 00 00 00 00 	movl   $0x0,0x8c(%eax)
  306806:	00 00 00 
  306809:	8b 45 08             	mov    0x8(%ebp),%eax
  30680c:	8b 55 0c             	mov    0xc(%ebp),%edx
  30680f:	89 90 84 00 00 00    	mov    %edx,0x84(%eax)
  306815:	8b 45 08             	mov    0x8(%ebp),%eax
  306818:	89 45 f4             	mov    %eax,-0xc(%ebp)
  30681b:	8b 45 f4             	mov    -0xc(%ebp),%eax
  30681e:	83 ec 0c             	sub    $0xc,%esp
  306821:	50                   	push   %eax
  306822:	e8 d3 fe ff ff       	call   3066fa <unready>
  306827:	83 c4 10             	add    $0x10,%esp
  30682a:	c9                   	leave  
  30682b:	c3                   	ret    

0030682c <_wakeup>:
  30682c:	55                   	push   %ebp
  30682d:	89 e5                	mov    %esp,%ebp
  30682f:	83 ec 18             	sub    $0x18,%esp
  306832:	8b 45 08             	mov    0x8(%ebp),%eax
  306835:	c7 80 8c 00 00 00 02 	movl   $0x2,0x8c(%eax)
  30683c:	00 00 00 
  30683f:	8b 45 08             	mov    0x8(%ebp),%eax
  306842:	c7 80 84 00 00 00 00 	movl   $0x0,0x84(%eax)
  306849:	00 00 00 
  30684c:	8b 45 08             	mov    0x8(%ebp),%eax
  30684f:	89 45 f4             	mov    %eax,-0xc(%ebp)
  306852:	8b 45 f4             	mov    -0xc(%ebp),%eax
  306855:	83 ec 0c             	sub    $0xc,%esp
  306858:	50                   	push   %eax
  306859:	e8 1c fe ff ff       	call   30667a <ready>
  30685e:	83 c4 10             	add    $0x10,%esp
  306861:	c9                   	leave  
  306862:	c3                   	ret    

00306863 <dohook>:
  306863:	55                   	push   %ebp
  306864:	89 e5                	mov    %esp,%ebp
  306866:	83 7d 08 0f          	cmpl   $0xf,0x8(%ebp)
  30686a:	77 19                	ja     306885 <dohook+0x22>
  30686c:	a1 04 26 31 00       	mov    0x312604,%eax
  306871:	8b 55 08             	mov    0x8(%ebp),%edx
  306874:	8d 4a 10             	lea    0x10(%edx),%ecx
  306877:	8b 55 0c             	mov    0xc(%ebp),%edx
  30687a:	89 54 88 04          	mov    %edx,0x4(%eax,%ecx,4)
  30687e:	b8 00 00 00 00       	mov    $0x0,%eax
  306883:	eb 05                	jmp    30688a <dohook+0x27>
  306885:	b8 ea ff ff ff       	mov    $0xffffffea,%eax
  30688a:	5d                   	pop    %ebp
  30688b:	c3                   	ret    

0030688c <dofn>:
  30688c:	55                   	push   %ebp
  30688d:	89 e5                	mov    %esp,%ebp
  30688f:	83 ec 18             	sub    $0x18,%esp
  306892:	8b 45 08             	mov    0x8(%ebp),%eax
  306895:	89 45 f4             	mov    %eax,-0xc(%ebp)
  306898:	83 7d f4 02          	cmpl   $0x2,-0xc(%ebp)
  30689c:	7f 18                	jg     3068b6 <dofn+0x2a>
  30689e:	83 7d f4 00          	cmpl   $0x0,-0xc(%ebp)
  3068a2:	78 12                	js     3068b6 <dofn+0x2a>
  3068a4:	a1 04 26 31 00       	mov    0x312604,%eax
  3068a9:	8b 55 08             	mov    0x8(%ebp),%edx
  3068ac:	83 c2 08             	add    $0x8,%edx
  3068af:	8b 44 90 08          	mov    0x8(%eax,%edx,4),%eax
  3068b3:	89 45 f4             	mov    %eax,-0xc(%ebp)
  3068b6:	8b 45 f4             	mov    -0xc(%ebp),%eax
  3068b9:	8b 04 85 80 42 31 00 	mov    0x314280(,%eax,4),%eax
  3068c0:	89 45 f0             	mov    %eax,-0x10(%ebp)
  3068c3:	83 7d f0 00          	cmpl   $0x0,-0x10(%ebp)
  3068c7:	75 0a                	jne    3068d3 <dofn+0x47>
  3068c9:	b8 9c ff ff ff       	mov    $0xffffff9c,%eax
  3068ce:	e9 b8 00 00 00       	jmp    30698b <dofn+0xff>
  3068d3:	a1 04 26 31 00       	mov    0x312604,%eax
  3068d8:	8b 55 0c             	mov    0xc(%ebp),%edx
  3068db:	89 50 34             	mov    %edx,0x34(%eax)
  3068de:	a1 04 26 31 00       	mov    0x312604,%eax
  3068e3:	8b 55 10             	mov    0x10(%ebp),%edx
  3068e6:	89 50 38             	mov    %edx,0x38(%eax)
  3068e9:	a1 04 26 31 00       	mov    0x312604,%eax
  3068ee:	8b 55 14             	mov    0x14(%ebp),%edx
  3068f1:	89 50 3c             	mov    %edx,0x3c(%eax)
  3068f4:	a1 04 26 31 00       	mov    0x312604,%eax
  3068f9:	8b 55 18             	mov    0x18(%ebp),%edx
  3068fc:	89 50 40             	mov    %edx,0x40(%eax)
  3068ff:	8b 45 f0             	mov    -0x10(%ebp),%eax
  306902:	8b 80 90 00 00 00    	mov    0x90(%eax),%eax
  306908:	85 c0                	test   %eax,%eax
  30690a:	75 11                	jne    30691d <dofn+0x91>
  30690c:	8b 15 04 26 31 00    	mov    0x312604,%edx
  306912:	8b 45 f0             	mov    -0x10(%ebp),%eax
  306915:	89 90 90 00 00 00    	mov    %edx,0x90(%eax)
  30691b:	eb 15                	jmp    306932 <dofn+0xa6>
  30691d:	8b 45 f0             	mov    -0x10(%ebp),%eax
  306920:	8b 80 98 00 00 00    	mov    0x98(%eax),%eax
  306926:	8b 15 04 26 31 00    	mov    0x312604,%edx
  30692c:	89 90 94 00 00 00    	mov    %edx,0x94(%eax)
  306932:	a1 04 26 31 00       	mov    0x312604,%eax
  306937:	c7 80 94 00 00 00 00 	movl   $0x0,0x94(%eax)
  30693e:	00 00 00 
  306941:	8b 15 04 26 31 00    	mov    0x312604,%edx
  306947:	8b 45 f0             	mov    -0x10(%ebp),%eax
  30694a:	89 90 98 00 00 00    	mov    %edx,0x98(%eax)
  306950:	8b 45 f0             	mov    -0x10(%ebp),%eax
  306953:	8b 80 8c 00 00 00    	mov    0x8c(%eax),%eax
  306959:	83 f8 01             	cmp    $0x1,%eax
  30695c:	75 0e                	jne    30696c <dofn+0xe0>
  30695e:	83 ec 0c             	sub    $0xc,%esp
  306961:	ff 75 f0             	pushl  -0x10(%ebp)
  306964:	e8 c3 fe ff ff       	call   30682c <_wakeup>
  306969:	83 c4 10             	add    $0x10,%esp
  30696c:	a1 04 26 31 00       	mov    0x312604,%eax
  306971:	83 ec 08             	sub    $0x8,%esp
  306974:	ff 75 f0             	pushl  -0x10(%ebp)
  306977:	50                   	push   %eax
  306978:	e8 79 fe ff ff       	call   3067f6 <_wait>
  30697d:	83 c4 10             	add    $0x10,%esp
  306980:	a1 04 26 31 00       	mov    0x312604,%eax
  306985:	8b 80 88 00 00 00    	mov    0x88(%eax),%eax
  30698b:	c9                   	leave  
  30698c:	c3                   	ret    

0030698d <doint>:
  30698d:	55                   	push   %ebp
  30698e:	89 e5                	mov    %esp,%ebp
  306990:	83 ec 18             	sub    $0x18,%esp
  306993:	8b 45 08             	mov    0x8(%ebp),%eax
  306996:	89 45 f4             	mov    %eax,-0xc(%ebp)
  306999:	83 7d f4 02          	cmpl   $0x2,-0xc(%ebp)
  30699d:	7f 18                	jg     3069b7 <doint+0x2a>
  30699f:	83 7d f4 00          	cmpl   $0x0,-0xc(%ebp)
  3069a3:	78 12                	js     3069b7 <doint+0x2a>
  3069a5:	a1 04 26 31 00       	mov    0x312604,%eax
  3069aa:	8b 55 08             	mov    0x8(%ebp),%edx
  3069ad:	83 c2 08             	add    $0x8,%edx
  3069b0:	8b 44 90 08          	mov    0x8(%eax,%edx,4),%eax
  3069b4:	89 45 f4             	mov    %eax,-0xc(%ebp)
  3069b7:	8b 45 f4             	mov    -0xc(%ebp),%eax
  3069ba:	8b 04 85 80 42 31 00 	mov    0x314280(,%eax,4),%eax
  3069c1:	89 45 f0             	mov    %eax,-0x10(%ebp)
  3069c4:	83 7d f0 00          	cmpl   $0x0,-0x10(%ebp)
  3069c8:	75 10                	jne    3069da <doint+0x4d>
  3069ca:	83 ec 0c             	sub    $0xc,%esp
  3069cd:	68 f1 d8 30 00       	push   $0x30d8f1
  3069d2:	e8 b5 ec ff ff       	call   30568c <panic>
  3069d7:	83 c4 10             	add    $0x10,%esp
  3069da:	83 ec 0c             	sub    $0xc,%esp
  3069dd:	6a 18                	push   $0x18
  3069df:	e8 9f 12 00 00       	call   307c83 <kalloc>
  3069e4:	83 c4 10             	add    $0x10,%esp
  3069e7:	89 45 ec             	mov    %eax,-0x14(%ebp)
  3069ea:	83 7d ec 00          	cmpl   $0x0,-0x14(%ebp)
  3069ee:	75 10                	jne    306a00 <doint+0x73>
  3069f0:	83 ec 0c             	sub    $0xc,%esp
  3069f3:	68 09 d9 30 00       	push   $0x30d909
  3069f8:	e8 8f ec ff ff       	call   30568c <panic>
  3069fd:	83 c4 10             	add    $0x10,%esp
  306a00:	8b 55 0c             	mov    0xc(%ebp),%edx
  306a03:	8b 45 ec             	mov    -0x14(%ebp),%eax
  306a06:	89 50 04             	mov    %edx,0x4(%eax)
  306a09:	8b 45 ec             	mov    -0x14(%ebp),%eax
  306a0c:	8b 55 10             	mov    0x10(%ebp),%edx
  306a0f:	89 50 08             	mov    %edx,0x8(%eax)
  306a12:	8b 45 ec             	mov    -0x14(%ebp),%eax
  306a15:	8b 55 14             	mov    0x14(%ebp),%edx
  306a18:	89 50 0c             	mov    %edx,0xc(%eax)
  306a1b:	8b 45 ec             	mov    -0x14(%ebp),%eax
  306a1e:	8b 55 18             	mov    0x18(%ebp),%edx
  306a21:	89 50 10             	mov    %edx,0x10(%eax)
  306a24:	8b 45 ec             	mov    -0x14(%ebp),%eax
  306a27:	c7 40 14 00 00 00 00 	movl   $0x0,0x14(%eax)
  306a2e:	8b 45 f0             	mov    -0x10(%ebp),%eax
  306a31:	8b 80 9c 00 00 00    	mov    0x9c(%eax),%eax
  306a37:	85 c0                	test   %eax,%eax
  306a39:	74 0f                	je     306a4a <doint+0xbd>
  306a3b:	8b 45 f0             	mov    -0x10(%ebp),%eax
  306a3e:	8b 90 9c 00 00 00    	mov    0x9c(%eax),%edx
  306a44:	8b 45 ec             	mov    -0x14(%ebp),%eax
  306a47:	89 50 14             	mov    %edx,0x14(%eax)
  306a4a:	8b 45 f0             	mov    -0x10(%ebp),%eax
  306a4d:	8b 55 ec             	mov    -0x14(%ebp),%edx
  306a50:	89 90 9c 00 00 00    	mov    %edx,0x9c(%eax)
  306a56:	8b 45 f0             	mov    -0x10(%ebp),%eax
  306a59:	8b 80 8c 00 00 00    	mov    0x8c(%eax),%eax
  306a5f:	83 f8 01             	cmp    $0x1,%eax
  306a62:	75 0e                	jne    306a72 <doint+0xe5>
  306a64:	83 ec 0c             	sub    $0xc,%esp
  306a67:	ff 75 f0             	pushl  -0x10(%ebp)
  306a6a:	e8 bd fd ff ff       	call   30682c <_wakeup>
  306a6f:	83 c4 10             	add    $0x10,%esp
  306a72:	b8 00 00 00 00       	mov    $0x0,%eax
  306a77:	c9                   	leave  
  306a78:	c3                   	ret    

00306a79 <doret>:
  306a79:	55                   	push   %ebp
  306a7a:	89 e5                	mov    %esp,%ebp
  306a7c:	83 ec 18             	sub    $0x18,%esp
  306a7f:	8b 45 08             	mov    0x8(%ebp),%eax
  306a82:	89 45 f4             	mov    %eax,-0xc(%ebp)
  306a85:	83 7d f4 02          	cmpl   $0x2,-0xc(%ebp)
  306a89:	7f 18                	jg     306aa3 <doret+0x2a>
  306a8b:	83 7d f4 00          	cmpl   $0x0,-0xc(%ebp)
  306a8f:	78 12                	js     306aa3 <doret+0x2a>
  306a91:	a1 04 26 31 00       	mov    0x312604,%eax
  306a96:	8b 55 08             	mov    0x8(%ebp),%edx
  306a99:	83 c2 08             	add    $0x8,%edx
  306a9c:	8b 44 90 08          	mov    0x8(%eax,%edx,4),%eax
  306aa0:	89 45 f4             	mov    %eax,-0xc(%ebp)
  306aa3:	8b 45 f4             	mov    -0xc(%ebp),%eax
  306aa6:	8b 04 85 80 42 31 00 	mov    0x314280(,%eax,4),%eax
  306aad:	89 45 f0             	mov    %eax,-0x10(%ebp)
  306ab0:	83 7d f0 00          	cmpl   $0x0,-0x10(%ebp)
  306ab4:	74 2c                	je     306ae2 <doret+0x69>
  306ab6:	8b 45 f0             	mov    -0x10(%ebp),%eax
  306ab9:	8b 90 84 00 00 00    	mov    0x84(%eax),%edx
  306abf:	a1 04 26 31 00       	mov    0x312604,%eax
  306ac4:	39 c2                	cmp    %eax,%edx
  306ac6:	75 1a                	jne    306ae2 <doret+0x69>
  306ac8:	8b 55 0c             	mov    0xc(%ebp),%edx
  306acb:	8b 45 f0             	mov    -0x10(%ebp),%eax
  306ace:	89 90 88 00 00 00    	mov    %edx,0x88(%eax)
  306ad4:	83 ec 0c             	sub    $0xc,%esp
  306ad7:	ff 75 f0             	pushl  -0x10(%ebp)
  306ada:	e8 4d fd ff ff       	call   30682c <_wakeup>
  306adf:	83 c4 10             	add    $0x10,%esp
  306ae2:	b8 00 00 00 00       	mov    $0x0,%eax
  306ae7:	c9                   	leave  
  306ae8:	c3                   	ret    

00306ae9 <doloop>:
  306ae9:	55                   	push   %ebp
  306aea:	89 e5                	mov    %esp,%ebp
  306aec:	57                   	push   %edi
  306aed:	56                   	push   %esi
  306aee:	53                   	push   %ebx
  306aef:	83 ec 2c             	sub    $0x2c,%esp
  306af2:	a1 04 26 31 00       	mov    0x312604,%eax
  306af7:	8b 80 9c 00 00 00    	mov    0x9c(%eax),%eax
  306afd:	85 c0                	test   %eax,%eax
  306aff:	74 5c                	je     306b5d <doloop+0x74>
  306b01:	a1 04 26 31 00       	mov    0x312604,%eax
  306b06:	8b 80 9c 00 00 00    	mov    0x9c(%eax),%eax
  306b0c:	89 45 cc             	mov    %eax,-0x34(%ebp)
  306b0f:	c7 45 d4 00 00 00 00 	movl   $0x0,-0x2c(%ebp)
  306b16:	8b 45 cc             	mov    -0x34(%ebp),%eax
  306b19:	8b 40 04             	mov    0x4(%eax),%eax
  306b1c:	89 45 e4             	mov    %eax,-0x1c(%ebp)
  306b1f:	8b 45 cc             	mov    -0x34(%ebp),%eax
  306b22:	8b 40 08             	mov    0x8(%eax),%eax
  306b25:	89 45 e0             	mov    %eax,-0x20(%ebp)
  306b28:	8b 45 cc             	mov    -0x34(%ebp),%eax
  306b2b:	8b 40 0c             	mov    0xc(%eax),%eax
  306b2e:	89 45 dc             	mov    %eax,-0x24(%ebp)
  306b31:	8b 45 cc             	mov    -0x34(%ebp),%eax
  306b34:	8b 40 10             	mov    0x10(%eax),%eax
  306b37:	89 45 d8             	mov    %eax,-0x28(%ebp)
  306b3a:	a1 04 26 31 00       	mov    0x312604,%eax
  306b3f:	8b 55 cc             	mov    -0x34(%ebp),%edx
  306b42:	8b 52 14             	mov    0x14(%edx),%edx
  306b45:	89 90 9c 00 00 00    	mov    %edx,0x9c(%eax)
  306b4b:	83 ec 08             	sub    $0x8,%esp
  306b4e:	6a 00                	push   $0x0
  306b50:	ff 75 cc             	pushl  -0x34(%ebp)
  306b53:	e8 97 12 00 00       	call   307def <kfree_s>
  306b58:	83 c4 10             	add    $0x10,%esp
  306b5b:	eb 75                	jmp    306bd2 <doloop+0xe9>
  306b5d:	a1 04 26 31 00       	mov    0x312604,%eax
  306b62:	8b 80 90 00 00 00    	mov    0x90(%eax),%eax
  306b68:	85 c0                	test   %eax,%eax
  306b6a:	74 50                	je     306bbc <doloop+0xd3>
  306b6c:	a1 04 26 31 00       	mov    0x312604,%eax
  306b71:	8b 80 90 00 00 00    	mov    0x90(%eax),%eax
  306b77:	89 45 d0             	mov    %eax,-0x30(%ebp)
  306b7a:	8b 45 d0             	mov    -0x30(%ebp),%eax
  306b7d:	8b 00                	mov    (%eax),%eax
  306b7f:	89 45 d4             	mov    %eax,-0x2c(%ebp)
  306b82:	8b 45 d0             	mov    -0x30(%ebp),%eax
  306b85:	8b 40 34             	mov    0x34(%eax),%eax
  306b88:	89 45 e4             	mov    %eax,-0x1c(%ebp)
  306b8b:	8b 45 d0             	mov    -0x30(%ebp),%eax
  306b8e:	8b 40 38             	mov    0x38(%eax),%eax
  306b91:	89 45 e0             	mov    %eax,-0x20(%ebp)
  306b94:	8b 45 d0             	mov    -0x30(%ebp),%eax
  306b97:	8b 40 3c             	mov    0x3c(%eax),%eax
  306b9a:	89 45 dc             	mov    %eax,-0x24(%ebp)
  306b9d:	8b 45 d0             	mov    -0x30(%ebp),%eax
  306ba0:	8b 40 40             	mov    0x40(%eax),%eax
  306ba3:	89 45 d8             	mov    %eax,-0x28(%ebp)
  306ba6:	a1 04 26 31 00       	mov    0x312604,%eax
  306bab:	8b 55 d0             	mov    -0x30(%ebp),%edx
  306bae:	8b 92 94 00 00 00    	mov    0x94(%edx),%edx
  306bb4:	89 90 90 00 00 00    	mov    %edx,0x90(%eax)
  306bba:	eb 16                	jmp    306bd2 <doloop+0xe9>
  306bbc:	a1 04 26 31 00       	mov    0x312604,%eax
  306bc1:	83 ec 0c             	sub    $0xc,%esp
  306bc4:	50                   	push   %eax
  306bc5:	e8 02 fc ff ff       	call   3067cc <_sleep>
  306bca:	83 c4 10             	add    $0x10,%esp
  306bcd:	e9 20 ff ff ff       	jmp    306af2 <doloop+0x9>
  306bd2:	a1 04 26 31 00       	mov    0x312604,%eax
  306bd7:	8b 55 e4             	mov    -0x1c(%ebp),%edx
  306bda:	83 c2 10             	add    $0x10,%edx
  306bdd:	8b 44 90 04          	mov    0x4(%eax,%edx,4),%eax
  306be1:	85 c0                	test   %eax,%eax
  306be3:	75 15                	jne    306bfa <doloop+0x111>
  306be5:	83 ec 08             	sub    $0x8,%esp
  306be8:	6a da                	push   $0xffffffda
  306bea:	ff 75 d4             	pushl  -0x2c(%ebp)
  306bed:	e8 16 f9 ff ff       	call   306508 <ret>
  306bf2:	83 c4 10             	add    $0x10,%esp
  306bf5:	e9 f8 fe ff ff       	jmp    306af2 <doloop+0x9>
  306bfa:	a1 04 26 31 00       	mov    0x312604,%eax
  306bff:	8b 55 e4             	mov    -0x1c(%ebp),%edx
  306c02:	83 c2 10             	add    $0x10,%edx
  306c05:	8b 44 90 04          	mov    0x4(%eax,%edx,4),%eax
  306c09:	89 45 c8             	mov    %eax,-0x38(%ebp)
  306c0c:	8b 45 c8             	mov    -0x38(%ebp),%eax
  306c0f:	8b 5d d4             	mov    -0x2c(%ebp),%ebx
  306c12:	8b 4d e0             	mov    -0x20(%ebp),%ecx
  306c15:	8b 55 dc             	mov    -0x24(%ebp),%edx
  306c18:	8b 75 d8             	mov    -0x28(%ebp),%esi
  306c1b:	89 f7                	mov    %esi,%edi
  306c1d:	c9                   	leave  
  306c1e:	c3                   	ret    
  306c1f:	8d 65 f4             	lea    -0xc(%ebp),%esp
  306c22:	5b                   	pop    %ebx
  306c23:	5e                   	pop    %esi
  306c24:	5f                   	pop    %edi
  306c25:	5d                   	pop    %ebp
  306c26:	c3                   	ret    

00306c27 <gam>:
  306c27:	55                   	push   %ebp
  306c28:	89 e5                	mov    %esp,%ebp
  306c2a:	8b 45 08             	mov    0x8(%ebp),%eax
  306c2d:	c7 40 28 06 00 00 00 	movl   $0x6,0x28(%eax)
  306c34:	8b 45 08             	mov    0x8(%ebp),%eax
  306c37:	c7 40 2c 06 00 00 00 	movl   $0x6,0x2c(%eax)
  306c3e:	8b 45 08             	mov    0x8(%ebp),%eax
  306c41:	c7 40 30 06 00 00 00 	movl   $0x6,0x30(%eax)
  306c48:	5d                   	pop    %ebp
  306c49:	c3                   	ret    

00306c4a <make_task>:
  306c4a:	55                   	push   %ebp
  306c4b:	89 e5                	mov    %esp,%ebp
  306c4d:	57                   	push   %edi
  306c4e:	53                   	push   %ebx
  306c4f:	83 ec 50             	sub    $0x50,%esp
  306c52:	e8 fe 05 00 00       	call   307255 <get_kfree_page>
  306c57:	89 45 f4             	mov    %eax,-0xc(%ebp)
  306c5a:	8b 45 f4             	mov    -0xc(%ebp),%eax
  306c5d:	8b 55 08             	mov    0x8(%ebp),%edx
  306c60:	89 10                	mov    %edx,(%eax)
  306c62:	8b 45 f4             	mov    -0xc(%ebp),%eax
  306c65:	8b 55 18             	mov    0x18(%ebp),%edx
  306c68:	89 90 ac 00 00 00    	mov    %edx,0xac(%eax)
  306c6e:	8b 45 f4             	mov    -0xc(%ebp),%eax
  306c71:	c7 80 a4 00 00 00 14 	movl   $0x14,0xa4(%eax)
  306c78:	00 00 00 
  306c7b:	8b 45 f4             	mov    -0xc(%ebp),%eax
  306c7e:	c7 80 a8 00 00 00 14 	movl   $0x14,0xa8(%eax)
  306c85:	00 00 00 
  306c88:	0f 20 d8             	mov    %cr3,%eax
  306c8b:	89 45 f0             	mov    %eax,-0x10(%ebp)
  306c8e:	8b 55 f0             	mov    -0x10(%ebp),%edx
  306c91:	8b 45 f4             	mov    -0xc(%ebp),%eax
  306c94:	89 90 b4 00 00 00    	mov    %edx,0xb4(%eax)
  306c9a:	8b 45 f4             	mov    -0xc(%ebp),%eax
  306c9d:	8d 90 bc 0f 00 00    	lea    0xfbc(%eax),%edx
  306ca3:	8b 45 f4             	mov    -0xc(%ebp),%eax
  306ca6:	89 90 b0 00 00 00    	mov    %edx,0xb0(%eax)
  306cac:	8b 45 f4             	mov    -0xc(%ebp),%eax
  306caf:	83 c0 18             	add    $0x18,%eax
  306cb2:	83 ec 08             	sub    $0x8,%esp
  306cb5:	ff 75 0c             	pushl  0xc(%ebp)
  306cb8:	50                   	push   %eax
  306cb9:	e8 7d f8 ff ff       	call   30653b <strcpy>
  306cbe:	83 c4 10             	add    $0x10,%esp
  306cc1:	8d 5d ac             	lea    -0x54(%ebp),%ebx
  306cc4:	b8 00 00 00 00       	mov    $0x0,%eax
  306cc9:	ba 11 00 00 00       	mov    $0x11,%edx
  306cce:	89 df                	mov    %ebx,%edi
  306cd0:	89 d1                	mov    %edx,%ecx
  306cd2:	f3 ab                	rep stos %eax,%es:(%edi)
  306cd4:	8b 45 10             	mov    0x10(%ebp),%eax
  306cd7:	89 45 ac             	mov    %eax,-0x54(%ebp)
  306cda:	8b 45 10             	mov    0x10(%ebp),%eax
  306cdd:	89 45 b0             	mov    %eax,-0x50(%ebp)
  306ce0:	8b 45 10             	mov    0x10(%ebp),%eax
  306ce3:	89 45 b4             	mov    %eax,-0x4c(%ebp)
  306ce6:	8b 45 10             	mov    0x10(%ebp),%eax
  306ce9:	89 45 b8             	mov    %eax,-0x48(%ebp)
  306cec:	8b 45 1c             	mov    0x1c(%ebp),%eax
  306cef:	89 45 dc             	mov    %eax,-0x24(%ebp)
  306cf2:	8b 45 14             	mov    0x14(%ebp),%eax
  306cf5:	89 45 e0             	mov    %eax,-0x20(%ebp)
  306cf8:	c7 45 e4 00 02 00 00 	movl   $0x200,-0x1c(%ebp)
  306cff:	8b 45 f4             	mov    -0xc(%ebp),%eax
  306d02:	8b 80 b0 00 00 00    	mov    0xb0(%eax),%eax
  306d08:	83 ec 04             	sub    $0x4,%esp
  306d0b:	6a 44                	push   $0x44
  306d0d:	8d 55 ac             	lea    -0x54(%ebp),%edx
  306d10:	52                   	push   %edx
  306d11:	50                   	push   %eax
  306d12:	e8 41 f8 ff ff       	call   306558 <memcpy>
  306d17:	83 c4 10             	add    $0x10,%esp
  306d1a:	8b 45 08             	mov    0x8(%ebp),%eax
  306d1d:	8b 55 f4             	mov    -0xc(%ebp),%edx
  306d20:	89 14 85 80 42 31 00 	mov    %edx,0x314280(,%eax,4)
  306d27:	83 ec 0c             	sub    $0xc,%esp
  306d2a:	ff 75 f4             	pushl  -0xc(%ebp)
  306d2d:	e8 f5 fe ff ff       	call   306c27 <gam>
  306d32:	83 c4 10             	add    $0x10,%esp
  306d35:	83 ec 0c             	sub    $0xc,%esp
  306d38:	ff 75 f4             	pushl  -0xc(%ebp)
  306d3b:	e8 3a f9 ff ff       	call   30667a <ready>
  306d40:	83 c4 10             	add    $0x10,%esp
  306d43:	8b 45 f4             	mov    -0xc(%ebp),%eax
  306d46:	8d 65 f8             	lea    -0x8(%ebp),%esp
  306d49:	5b                   	pop    %ebx
  306d4a:	5f                   	pop    %edi
  306d4b:	5d                   	pop    %ebp
  306d4c:	c3                   	ret    

00306d4d <god_init>:
  306d4d:	55                   	push   %ebp
  306d4e:	89 e5                	mov    %esp,%ebp
  306d50:	83 ec 18             	sub    $0x18,%esp
  306d53:	c7 45 f0 38 00 00 00 	movl   $0x38,-0x10(%ebp)
  306d5a:	c7 45 f4 00 00 00 00 	movl   $0x0,-0xc(%ebp)
  306d61:	eb 26                	jmp    306d89 <god_init+0x3c>
  306d63:	8b 45 f4             	mov    -0xc(%ebp),%eax
  306d66:	c7 04 85 18 26 31 00 	movl   $0x0,0x312618(,%eax,4)
  306d6d:	00 00 00 00 
  306d71:	8b 45 f4             	mov    -0xc(%ebp),%eax
  306d74:	8b 14 85 18 26 31 00 	mov    0x312618(,%eax,4),%edx
  306d7b:	8b 45 f4             	mov    -0xc(%ebp),%eax
  306d7e:	89 14 85 0c 26 31 00 	mov    %edx,0x31260c(,%eax,4)
  306d85:	83 45 f4 01          	addl   $0x1,-0xc(%ebp)
  306d89:	83 7d f4 02          	cmpl   $0x2,-0xc(%ebp)
  306d8d:	7e d4                	jle    306d63 <god_init+0x16>
  306d8f:	83 ec 08             	sub    $0x8,%esp
  306d92:	6a 00                	push   $0x0
  306d94:	6a 02                	push   $0x2
  306d96:	6a 08                	push   $0x8
  306d98:	6a 10                	push   $0x10
  306d9a:	68 25 d9 30 00       	push   $0x30d925
  306d9f:	6a 00                	push   $0x0
  306da1:	e8 a4 fe ff ff       	call   306c4a <make_task>
  306da6:	83 c4 20             	add    $0x20,%esp
  306da9:	a3 04 26 31 00       	mov    %eax,0x312604
  306dae:	a1 04 26 31 00       	mov    0x312604,%eax
  306db3:	8b 15 04 26 31 00    	mov    0x312604,%edx
  306db9:	89 90 b8 00 00 00    	mov    %edx,0xb8(%eax)
  306dbf:	83 ec 08             	sub    $0x8,%esp
  306dc2:	68 ae 8d 30 00       	push   $0x308dae
  306dc7:	6a 00                	push   $0x0
  306dc9:	6a 08                	push   $0x8
  306dcb:	6a 10                	push   $0x10
  306dcd:	68 29 d9 30 00       	push   $0x30d929
  306dd2:	6a 03                	push   $0x3
  306dd4:	e8 71 fe ff ff       	call   306c4a <make_task>
  306dd9:	83 c4 20             	add    $0x20,%esp
  306ddc:	c7 05 24 26 31 00 00 	movl   $0x200800,0x312624
  306de3:	08 20 00 
  306de6:	a1 24 26 31 00       	mov    0x312624,%eax
  306deb:	c7 40 08 10 00 00 00 	movl   $0x10,0x8(%eax)
  306df2:	a1 24 26 31 00       	mov    0x312624,%eax
  306df7:	8b 15 04 26 31 00    	mov    0x312604,%edx
  306dfd:	81 c2 00 10 00 00    	add    $0x1000,%edx
  306e03:	89 50 04             	mov    %edx,0x4(%eax)
  306e06:	a1 24 26 31 00       	mov    0x312624,%eax
  306e0b:	c7 40 60 00 00 00 00 	movl   $0x0,0x60(%eax)
  306e12:	a1 24 26 31 00       	mov    0x312624,%eax
  306e17:	c7 40 64 00 00 ff ff 	movl   $0xffff0000,0x64(%eax)
  306e1e:	a1 24 26 31 00       	mov    0x312624,%eax
  306e23:	c7 40 24 00 02 00 00 	movl   $0x200,0x24(%eax)
  306e2a:	0f 00 5d f0          	ltr    -0x10(%ebp)
  306e2e:	cd 81                	int    $0x81
  306e30:	c9                   	leave  
  306e31:	c3                   	ret    
  306e32:	66 90                	xchg   %ax,%ax

00306e34 <ret>:
  306e34:	55                   	push   %ebp
  306e35:	89 e5                	mov    %esp,%ebp
  306e37:	57                   	push   %edi
  306e38:	56                   	push   %esi
  306e39:	53                   	push   %ebx
  306e3a:	83 ec 10             	sub    $0x10,%esp
  306e3d:	b8 02 00 00 00       	mov    $0x2,%eax
  306e42:	8b 5d 08             	mov    0x8(%ebp),%ebx
  306e45:	8b 4d 0c             	mov    0xc(%ebp),%ecx
  306e48:	ba 00 00 00 00       	mov    $0x0,%edx
  306e4d:	be 00 00 00 00       	mov    $0x0,%esi
  306e52:	bf 00 00 00 00       	mov    $0x0,%edi
  306e57:	cd 80                	int    $0x80
  306e59:	89 45 f0             	mov    %eax,-0x10(%ebp)
  306e5c:	8b 45 f0             	mov    -0x10(%ebp),%eax
  306e5f:	83 c4 10             	add    $0x10,%esp
  306e62:	5b                   	pop    %ebx
  306e63:	5e                   	pop    %esi
  306e64:	5f                   	pop    %edi
  306e65:	5d                   	pop    %ebp
  306e66:	c3                   	ret    

00306e67 <strlen>:
  306e67:	55                   	push   %ebp
  306e68:	89 e5                	mov    %esp,%ebp
  306e6a:	57                   	push   %edi
  306e6b:	8b 55 08             	mov    0x8(%ebp),%edx
  306e6e:	b8 00 00 00 00       	mov    $0x0,%eax
  306e73:	b9 ff ff ff ff       	mov    $0xffffffff,%ecx
  306e78:	89 d7                	mov    %edx,%edi
  306e7a:	fc                   	cld    
  306e7b:	f2 ae                	repnz scas %es:(%edi),%al
  306e7d:	f7 d1                	not    %ecx
  306e7f:	49                   	dec    %ecx
  306e80:	89 c8                	mov    %ecx,%eax
  306e82:	5f                   	pop    %edi
  306e83:	5d                   	pop    %ebp
  306e84:	c3                   	ret    

00306e85 <memcpy>:
  306e85:	55                   	push   %ebp
  306e86:	89 e5                	mov    %esp,%ebp
  306e88:	57                   	push   %edi
  306e89:	56                   	push   %esi
  306e8a:	53                   	push   %ebx
  306e8b:	8b 45 10             	mov    0x10(%ebp),%eax
  306e8e:	8b 55 0c             	mov    0xc(%ebp),%edx
  306e91:	8b 5d 08             	mov    0x8(%ebp),%ebx
  306e94:	89 c1                	mov    %eax,%ecx
  306e96:	89 d6                	mov    %edx,%esi
  306e98:	89 df                	mov    %ebx,%edi
  306e9a:	fc                   	cld    
  306e9b:	f3 a4                	rep movsb %ds:(%esi),%es:(%edi)
  306e9d:	8b 45 08             	mov    0x8(%ebp),%eax
  306ea0:	5b                   	pop    %ebx
  306ea1:	5e                   	pop    %esi
  306ea2:	5f                   	pop    %edi
  306ea3:	5d                   	pop    %ebp
  306ea4:	c3                   	ret    

00306ea5 <system_shell>:
  306ea5:	55                   	push   %ebp
  306ea6:	89 e5                	mov    %esp,%ebp
  306ea8:	57                   	push   %edi
  306ea9:	56                   	push   %esi
  306eaa:	53                   	push   %ebx
  306eab:	83 ec 1c             	sub    $0x1c,%esp
  306eae:	b8 01 00 00 00       	mov    $0x1,%eax
  306eb3:	bb 04 00 00 00       	mov    $0x4,%ebx
  306eb8:	b9 01 00 00 00       	mov    $0x1,%ecx
  306ebd:	ba 01 00 00 00       	mov    $0x1,%edx
  306ec2:	be 00 00 00 00       	mov    $0x0,%esi
  306ec7:	bf 00 00 00 00       	mov    $0x0,%edi
  306ecc:	cd 80                	int    $0x80
  306ece:	89 45 e4             	mov    %eax,-0x1c(%ebp)
  306ed1:	83 ec 04             	sub    $0x4,%esp
  306ed4:	6a 00                	push   $0x0
  306ed6:	6a 00                	push   $0x0
  306ed8:	68 68 d9 30 00       	push   $0x30d968
  306edd:	e8 e5 5b 00 00       	call   30cac7 <exec>
  306ee2:	83 c4 10             	add    $0x10,%esp
  306ee5:	8d 65 f4             	lea    -0xc(%ebp),%esp
  306ee8:	5b                   	pop    %ebx
  306ee9:	5e                   	pop    %esi
  306eea:	5f                   	pop    %edi
  306eeb:	5d                   	pop    %ebp
  306eec:	c3                   	ret    

00306eed <system_dup2>:
  306eed:	55                   	push   %ebp
  306eee:	89 e5                	mov    %esp,%ebp
  306ef0:	83 ec 10             	sub    $0x10,%esp
  306ef3:	8b 45 08             	mov    0x8(%ebp),%eax
  306ef6:	89 45 fc             	mov    %eax,-0x4(%ebp)
  306ef9:	83 7d fc 02          	cmpl   $0x2,-0x4(%ebp)
  306efd:	7f 18                	jg     306f17 <system_dup2+0x2a>
  306eff:	83 7d fc 00          	cmpl   $0x0,-0x4(%ebp)
  306f03:	78 12                	js     306f17 <system_dup2+0x2a>
  306f05:	a1 04 26 31 00       	mov    0x312604,%eax
  306f0a:	8b 55 08             	mov    0x8(%ebp),%edx
  306f0d:	83 c2 08             	add    $0x8,%edx
  306f10:	8b 44 90 08          	mov    0x8(%eax,%edx,4),%eax
  306f14:	89 45 fc             	mov    %eax,-0x4(%ebp)
  306f17:	8b 45 fc             	mov    -0x4(%ebp),%eax
  306f1a:	8b 04 85 80 42 31 00 	mov    0x314280(,%eax,4),%eax
  306f21:	89 45 f8             	mov    %eax,-0x8(%ebp)
  306f24:	8b 45 f8             	mov    -0x8(%ebp),%eax
  306f27:	8b 40 38             	mov    0x38(%eax),%eax
  306f2a:	83 f8 02             	cmp    $0x2,%eax
  306f2d:	77 1d                	ja     306f4c <system_dup2+0x5f>
  306f2f:	8b 45 f8             	mov    -0x8(%ebp),%eax
  306f32:	8b 55 0c             	mov    0xc(%ebp),%edx
  306f35:	8d 4a 08             	lea    0x8(%edx),%ecx
  306f38:	8b 55 10             	mov    0x10(%ebp),%edx
  306f3b:	89 54 88 08          	mov    %edx,0x8(%eax,%ecx,4)
  306f3f:	6a 00                	push   $0x0
  306f41:	ff 75 08             	pushl  0x8(%ebp)
  306f44:	e8 eb fe ff ff       	call   306e34 <ret>
  306f49:	83 c4 08             	add    $0x8,%esp
  306f4c:	6a ff                	push   $0xffffffff
  306f4e:	ff 75 08             	pushl  0x8(%ebp)
  306f51:	e8 de fe ff ff       	call   306e34 <ret>
  306f56:	83 c4 08             	add    $0x8,%esp
  306f59:	c9                   	leave  
  306f5a:	c3                   	ret    

00306f5b <system_pri>:
  306f5b:	55                   	push   %ebp
  306f5c:	89 e5                	mov    %esp,%ebp
  306f5e:	83 ec 10             	sub    $0x10,%esp
  306f61:	8b 45 08             	mov    0x8(%ebp),%eax
  306f64:	89 45 fc             	mov    %eax,-0x4(%ebp)
  306f67:	8b 45 fc             	mov    -0x4(%ebp),%eax
  306f6a:	89 45 f8             	mov    %eax,-0x8(%ebp)
  306f6d:	8b 45 f8             	mov    -0x8(%ebp),%eax
  306f70:	8b 55 0c             	mov    0xc(%ebp),%edx
  306f73:	89 90 ac 00 00 00    	mov    %edx,0xac(%eax)
  306f79:	6a 00                	push   $0x0
  306f7b:	ff 75 08             	pushl  0x8(%ebp)
  306f7e:	e8 b1 fe ff ff       	call   306e34 <ret>
  306f83:	83 c4 08             	add    $0x8,%esp
  306f86:	c9                   	leave  
  306f87:	c3                   	ret    

00306f88 <system_init>:
  306f88:	55                   	push   %ebp
  306f89:	89 e5                	mov    %esp,%ebp
  306f8b:	57                   	push   %edi
  306f8c:	56                   	push   %esi
  306f8d:	53                   	push   %ebx
  306f8e:	83 ec 10             	sub    $0x10,%esp
  306f91:	b8 03 00 00 00       	mov    $0x3,%eax
  306f96:	bb 09 00 00 00       	mov    $0x9,%ebx
  306f9b:	b9 ed 6e 30 00       	mov    $0x306eed,%ecx
  306fa0:	ba 00 00 00 00       	mov    $0x0,%edx
  306fa5:	be 00 00 00 00       	mov    $0x0,%esi
  306faa:	bf 00 00 00 00       	mov    $0x0,%edi
  306faf:	cd 80                	int    $0x80
  306fb1:	89 45 f0             	mov    %eax,-0x10(%ebp)
  306fb4:	b8 03 00 00 00       	mov    $0x3,%eax
  306fb9:	bb 01 00 00 00       	mov    $0x1,%ebx
  306fbe:	b9 5b 6f 30 00       	mov    $0x306f5b,%ecx
  306fc3:	ba 00 00 00 00       	mov    $0x0,%edx
  306fc8:	be 00 00 00 00       	mov    $0x0,%esi
  306fcd:	bf 00 00 00 00       	mov    $0x0,%edi
  306fd2:	cd 80                	int    $0x80
  306fd4:	89 45 ec             	mov    %eax,-0x14(%ebp)
  306fd7:	83 c4 10             	add    $0x10,%esp
  306fda:	5b                   	pop    %ebx
  306fdb:	5e                   	pop    %esi
  306fdc:	5f                   	pop    %edi
  306fdd:	5d                   	pop    %ebp
  306fde:	c3                   	ret    

00306fdf <system_main>:
  306fdf:	55                   	push   %ebp
  306fe0:	89 e5                	mov    %esp,%ebp
  306fe2:	57                   	push   %edi
  306fe3:	56                   	push   %esi
  306fe4:	53                   	push   %ebx
  306fe5:	83 ec 1c             	sub    $0x1c,%esp
  306fe8:	c7 45 e4 00 00 00 00 	movl   $0x0,-0x1c(%ebp)
  306fef:	c7 45 e0 00 00 00 00 	movl   $0x0,-0x20(%ebp)
  306ff6:	e8 8d ff ff ff       	call   306f88 <system_init>
  306ffb:	e8 ec 5c 00 00       	call   30ccec <fork>
  307000:	89 45 e0             	mov    %eax,-0x20(%ebp)
  307003:	83 7d e0 00          	cmpl   $0x0,-0x20(%ebp)
  307007:	79 12                	jns    30701b <system_main+0x3c>
  307009:	83 ec 0c             	sub    $0xc,%esp
  30700c:	68 72 d9 30 00       	push   $0x30d972
  307011:	e8 92 e6 ff ff       	call   3056a8 <printk>
  307016:	83 c4 10             	add    $0x10,%esp
  307019:	eb 5a                	jmp    307075 <system_main+0x96>
  30701b:	83 7d e0 00          	cmpl   $0x0,-0x20(%ebp)
  30701f:	75 48                	jne    307069 <system_main+0x8a>
  307021:	8b 45 e4             	mov    -0x1c(%ebp),%eax
  307024:	8b 04 c5 80 20 31 00 	mov    0x312080(,%eax,8),%eax
  30702b:	83 ec 0c             	sub    $0xc,%esp
  30702e:	50                   	push   %eax
  30702f:	e8 33 fe ff ff       	call   306e67 <strlen>
  307034:	83 c4 10             	add    $0x10,%esp
  307037:	8d 48 01             	lea    0x1(%eax),%ecx
  30703a:	8b 45 e4             	mov    -0x1c(%ebp),%eax
  30703d:	8b 04 c5 80 20 31 00 	mov    0x312080(,%eax,8),%eax
  307044:	8b 15 04 26 31 00    	mov    0x312604,%edx
  30704a:	83 c2 18             	add    $0x18,%edx
  30704d:	83 ec 04             	sub    $0x4,%esp
  307050:	51                   	push   %ecx
  307051:	50                   	push   %eax
  307052:	52                   	push   %edx
  307053:	e8 2d fe ff ff       	call   306e85 <memcpy>
  307058:	83 c4 10             	add    $0x10,%esp
  30705b:	8b 45 e4             	mov    -0x1c(%ebp),%eax
  30705e:	8b 04 c5 84 20 31 00 	mov    0x312084(,%eax,8),%eax
  307065:	ff d0                	call   *%eax
  307067:	eb 0c                	jmp    307075 <system_main+0x96>
  307069:	83 45 e4 01          	addl   $0x1,-0x1c(%ebp)
  30706d:	83 7d e4 07          	cmpl   $0x7,-0x1c(%ebp)
  307071:	77 02                	ja     307075 <system_main+0x96>
  307073:	eb 86                	jmp    306ffb <system_main+0x1c>
  307075:	b8 00 00 00 00       	mov    $0x0,%eax
  30707a:	bb 00 00 00 00       	mov    $0x0,%ebx
  30707f:	b9 00 00 00 00       	mov    $0x0,%ecx
  307084:	ba 00 00 00 00       	mov    $0x0,%edx
  307089:	be 00 00 00 00       	mov    $0x0,%esi
  30708e:	bf 00 00 00 00       	mov    $0x0,%edi
  307093:	cd 80                	int    $0x80
  307095:	89 45 dc             	mov    %eax,-0x24(%ebp)
  307098:	b8 00 00 00 00       	mov    $0x0,%eax
  30709d:	8d 65 f4             	lea    -0xc(%ebp),%esp
  3070a0:	5b                   	pop    %ebx
  3070a1:	5e                   	pop    %esi
  3070a2:	5f                   	pop    %edi
  3070a3:	5d                   	pop    %ebp
  3070a4:	c3                   	ret    
  3070a5:	66 90                	xchg   %ax,%ax
  3070a7:	90                   	nop

003070a8 <memcpy>:
  3070a8:	55                   	push   %ebp
  3070a9:	89 e5                	mov    %esp,%ebp
  3070ab:	57                   	push   %edi
  3070ac:	56                   	push   %esi
  3070ad:	53                   	push   %ebx
  3070ae:	8b 45 10             	mov    0x10(%ebp),%eax
  3070b1:	8b 55 0c             	mov    0xc(%ebp),%edx
  3070b4:	8b 5d 08             	mov    0x8(%ebp),%ebx
  3070b7:	89 c1                	mov    %eax,%ecx
  3070b9:	89 d6                	mov    %edx,%esi
  3070bb:	89 df                	mov    %ebx,%edi
  3070bd:	fc                   	cld    
  3070be:	f3 a4                	rep movsb %ds:(%esi),%es:(%edi)
  3070c0:	8b 45 08             	mov    0x8(%ebp),%eax
  3070c3:	5b                   	pop    %ebx
  3070c4:	5e                   	pop    %esi
  3070c5:	5f                   	pop    %edi
  3070c6:	5d                   	pop    %ebp
  3070c7:	c3                   	ret    

003070c8 <getFreeObject>:
  3070c8:	55                   	push   %ebp
  3070c9:	89 e5                	mov    %esp,%ebp
  3070cb:	83 ec 10             	sub    $0x10,%esp
  3070ce:	c7 45 fc 03 00 00 00 	movl   $0x3,-0x4(%ebp)
  3070d5:	eb 17                	jmp    3070ee <getFreeObject+0x26>
  3070d7:	8b 45 fc             	mov    -0x4(%ebp),%eax
  3070da:	8b 04 85 80 42 31 00 	mov    0x314280(,%eax,4),%eax
  3070e1:	85 c0                	test   %eax,%eax
  3070e3:	75 05                	jne    3070ea <getFreeObject+0x22>
  3070e5:	8b 45 fc             	mov    -0x4(%ebp),%eax
  3070e8:	eb 12                	jmp    3070fc <getFreeObject+0x34>
  3070ea:	83 45 fc 01          	addl   $0x1,-0x4(%ebp)
  3070ee:	81 7d fc ff 02 00 00 	cmpl   $0x2ff,-0x4(%ebp)
  3070f5:	7e e0                	jle    3070d7 <getFreeObject+0xf>
  3070f7:	b8 00 00 00 00       	mov    $0x0,%eax
  3070fc:	c9                   	leave  
  3070fd:	c3                   	ret    

003070fe <cloneObject>:
  3070fe:	55                   	push   %ebp
  3070ff:	89 e5                	mov    %esp,%ebp
  307101:	83 ec 18             	sub    $0x18,%esp
  307104:	e8 bf ff ff ff       	call   3070c8 <getFreeObject>
  307109:	89 45 f4             	mov    %eax,-0xc(%ebp)
  30710c:	83 7d f4 00          	cmpl   $0x0,-0xc(%ebp)
  307110:	74 49                	je     30715b <cloneObject+0x5d>
  307112:	e8 3e 01 00 00       	call   307255 <get_kfree_page>
  307117:	89 45 f0             	mov    %eax,-0x10(%ebp)
  30711a:	83 7d f0 00          	cmpl   $0x0,-0x10(%ebp)
  30711e:	74 3b                	je     30715b <cloneObject+0x5d>
  307120:	83 ec 04             	sub    $0x4,%esp
  307123:	68 00 10 00 00       	push   $0x1000
  307128:	ff 75 08             	pushl  0x8(%ebp)
  30712b:	ff 75 f0             	pushl  -0x10(%ebp)
  30712e:	e8 75 ff ff ff       	call   3070a8 <memcpy>
  307133:	83 c4 10             	add    $0x10,%esp
  307136:	8b 45 f4             	mov    -0xc(%ebp),%eax
  307139:	8b 55 f0             	mov    -0x10(%ebp),%edx
  30713c:	89 14 85 80 42 31 00 	mov    %edx,0x314280(,%eax,4)
  307143:	8b 45 f0             	mov    -0x10(%ebp),%eax
  307146:	8b 55 f4             	mov    -0xc(%ebp),%edx
  307149:	89 10                	mov    %edx,(%eax)
  30714b:	8b 45 08             	mov    0x8(%ebp),%eax
  30714e:	8b 10                	mov    (%eax),%edx
  307150:	8b 45 f0             	mov    -0x10(%ebp),%eax
  307153:	89 50 0c             	mov    %edx,0xc(%eax)
  307156:	8b 45 f0             	mov    -0x10(%ebp),%eax
  307159:	eb 05                	jmp    307160 <cloneObject+0x62>
  30715b:	b8 00 00 00 00       	mov    $0x0,%eax
  307160:	c9                   	leave  
  307161:	c3                   	ret    

00307162 <byName>:
  307162:	55                   	push   %ebp
  307163:	89 e5                	mov    %esp,%ebp
  307165:	57                   	push   %edi
  307166:	56                   	push   %esi
  307167:	53                   	push   %ebx
  307168:	83 ec 10             	sub    $0x10,%esp
  30716b:	b8 01 00 00 00       	mov    $0x1,%eax
  307170:	bb 08 00 00 00       	mov    $0x8,%ebx
  307175:	b9 02 00 00 00       	mov    $0x2,%ecx
  30717a:	8b 55 08             	mov    0x8(%ebp),%edx
  30717d:	be 00 00 00 00       	mov    $0x0,%esi
  307182:	bf 00 00 00 00       	mov    $0x0,%edi
  307187:	cd 80                	int    $0x80
  307189:	89 45 f0             	mov    %eax,-0x10(%ebp)
  30718c:	8b 45 f0             	mov    -0x10(%ebp),%eax
  30718f:	83 c4 10             	add    $0x10,%esp
  307192:	5b                   	pop    %ebx
  307193:	5e                   	pop    %esi
  307194:	5f                   	pop    %edi
  307195:	5d                   	pop    %ebp
  307196:	c3                   	ret    

00307197 <byId>:
  307197:	55                   	push   %ebp
  307198:	89 e5                	mov    %esp,%ebp
  30719a:	b8 00 00 00 00       	mov    $0x0,%eax
  30719f:	5d                   	pop    %ebp
  3071a0:	c3                   	ret    
  3071a1:	66 90                	xchg   %ax,%ax
  3071a3:	90                   	nop

003071a4 <memcpy>:
  3071a4:	55                   	push   %ebp
  3071a5:	89 e5                	mov    %esp,%ebp
  3071a7:	57                   	push   %edi
  3071a8:	56                   	push   %esi
  3071a9:	53                   	push   %ebx
  3071aa:	8b 45 10             	mov    0x10(%ebp),%eax
  3071ad:	8b 55 0c             	mov    0xc(%ebp),%edx
  3071b0:	8b 5d 08             	mov    0x8(%ebp),%ebx
  3071b3:	89 c1                	mov    %eax,%ecx
  3071b5:	89 d6                	mov    %edx,%esi
  3071b7:	89 df                	mov    %ebx,%edi
  3071b9:	fc                   	cld    
  3071ba:	f3 a4                	rep movsb %ds:(%esi),%es:(%edi)
  3071bc:	8b 45 08             	mov    0x8(%ebp),%eax
  3071bf:	5b                   	pop    %ebx
  3071c0:	5e                   	pop    %esi
  3071c1:	5f                   	pop    %edi
  3071c2:	5d                   	pop    %ebp
  3071c3:	c3                   	ret    

003071c4 <memset>:
  3071c4:	55                   	push   %ebp
  3071c5:	89 e5                	mov    %esp,%ebp
  3071c7:	57                   	push   %edi
  3071c8:	83 ec 04             	sub    $0x4,%esp
  3071cb:	8b 45 0c             	mov    0xc(%ebp),%eax
  3071ce:	88 45 f8             	mov    %al,-0x8(%ebp)
  3071d1:	0f b6 45 f8          	movzbl -0x8(%ebp),%eax
  3071d5:	8b 55 08             	mov    0x8(%ebp),%edx
  3071d8:	8b 4d 10             	mov    0x10(%ebp),%ecx
  3071db:	89 d7                	mov    %edx,%edi
  3071dd:	fc                   	cld    
  3071de:	f3 aa                	rep stos %al,%es:(%edi)
  3071e0:	8b 45 08             	mov    0x8(%ebp),%eax
  3071e3:	83 c4 04             	add    $0x4,%esp
  3071e6:	5f                   	pop    %edi
  3071e7:	5d                   	pop    %ebp
  3071e8:	c3                   	ret    

003071e9 <get_free_page>:
  3071e9:	55                   	push   %ebp
  3071ea:	89 e5                	mov    %esp,%ebp
  3071ec:	57                   	push   %edi
  3071ed:	53                   	push   %ebx
  3071ee:	83 ec 10             	sub    $0x10,%esp
  3071f1:	c7 45 f4 00 08 00 00 	movl   $0x800,-0xc(%ebp)
  3071f8:	eb 49                	jmp    307243 <get_free_page+0x5a>
  3071fa:	8b 15 c0 20 31 00    	mov    0x3120c0,%edx
  307200:	8b 45 f4             	mov    -0xc(%ebp),%eax
  307203:	01 d0                	add    %edx,%eax
  307205:	0f b6 00             	movzbl (%eax),%eax
  307208:	84 c0                	test   %al,%al
  30720a:	75 33                	jne    30723f <get_free_page+0x56>
  30720c:	8b 15 c0 20 31 00    	mov    0x3120c0,%edx
  307212:	8b 45 f4             	mov    -0xc(%ebp),%eax
  307215:	01 d0                	add    %edx,%eax
  307217:	0f b6 10             	movzbl (%eax),%edx
  30721a:	83 c2 01             	add    $0x1,%edx
  30721d:	88 10                	mov    %dl,(%eax)
  30721f:	8b 45 f4             	mov    -0xc(%ebp),%eax
  307222:	c1 e0 0c             	shl    $0xc,%eax
  307225:	89 c3                	mov    %eax,%ebx
  307227:	b8 00 00 00 00       	mov    $0x0,%eax
  30722c:	ba 00 04 00 00       	mov    $0x400,%edx
  307231:	89 d1                	mov    %edx,%ecx
  307233:	89 df                	mov    %ebx,%edi
  307235:	f3 ab                	rep stos %eax,%es:(%edi)
  307237:	8b 45 f4             	mov    -0xc(%ebp),%eax
  30723a:	c1 e0 0c             	shl    $0xc,%eax
  30723d:	eb 0f                	jmp    30724e <get_free_page+0x65>
  30723f:	83 45 f4 01          	addl   $0x1,-0xc(%ebp)
  307243:	81 7d f4 ff ff 03 00 	cmpl   $0x3ffff,-0xc(%ebp)
  30724a:	7e ae                	jle    3071fa <get_free_page+0x11>
  30724c:	eb a3                	jmp    3071f1 <get_free_page+0x8>
  30724e:	83 c4 10             	add    $0x10,%esp
  307251:	5b                   	pop    %ebx
  307252:	5f                   	pop    %edi
  307253:	5d                   	pop    %ebp
  307254:	c3                   	ret    

00307255 <get_kfree_page>:
  307255:	55                   	push   %ebp
  307256:	89 e5                	mov    %esp,%ebp
  307258:	57                   	push   %edi
  307259:	53                   	push   %ebx
  30725a:	83 ec 10             	sub    $0x10,%esp
  30725d:	c7 45 f4 00 04 00 00 	movl   $0x400,-0xc(%ebp)
  307264:	eb 49                	jmp    3072af <get_kfree_page+0x5a>
  307266:	8b 15 c0 20 31 00    	mov    0x3120c0,%edx
  30726c:	8b 45 f4             	mov    -0xc(%ebp),%eax
  30726f:	01 d0                	add    %edx,%eax
  307271:	0f b6 00             	movzbl (%eax),%eax
  307274:	84 c0                	test   %al,%al
  307276:	75 33                	jne    3072ab <get_kfree_page+0x56>
  307278:	8b 15 c0 20 31 00    	mov    0x3120c0,%edx
  30727e:	8b 45 f4             	mov    -0xc(%ebp),%eax
  307281:	01 d0                	add    %edx,%eax
  307283:	0f b6 10             	movzbl (%eax),%edx
  307286:	83 c2 01             	add    $0x1,%edx
  307289:	88 10                	mov    %dl,(%eax)
  30728b:	8b 45 f4             	mov    -0xc(%ebp),%eax
  30728e:	c1 e0 0c             	shl    $0xc,%eax
  307291:	89 c3                	mov    %eax,%ebx
  307293:	b8 00 00 00 00       	mov    $0x0,%eax
  307298:	ba 00 04 00 00       	mov    $0x400,%edx
  30729d:	89 d1                	mov    %edx,%ecx
  30729f:	89 df                	mov    %ebx,%edi
  3072a1:	f3 ab                	rep stos %eax,%es:(%edi)
  3072a3:	8b 45 f4             	mov    -0xc(%ebp),%eax
  3072a6:	c1 e0 0c             	shl    $0xc,%eax
  3072a9:	eb 12                	jmp    3072bd <get_kfree_page+0x68>
  3072ab:	83 45 f4 01          	addl   $0x1,-0xc(%ebp)
  3072af:	81 7d f4 ff 07 00 00 	cmpl   $0x7ff,-0xc(%ebp)
  3072b6:	7e ae                	jle    307266 <get_kfree_page+0x11>
  3072b8:	b8 00 00 00 00       	mov    $0x0,%eax
  3072bd:	83 c4 10             	add    $0x10,%esp
  3072c0:	5b                   	pop    %ebx
  3072c1:	5f                   	pop    %edi
  3072c2:	5d                   	pop    %ebp
  3072c3:	c3                   	ret    

003072c4 <share_page>:
  3072c4:	55                   	push   %ebp
  3072c5:	89 e5                	mov    %esp,%ebp
  3072c7:	83 ec 08             	sub    $0x8,%esp
  3072ca:	81 7d 08 ff ff 3f 00 	cmpl   $0x3fffff,0x8(%ebp)
  3072d1:	77 1a                	ja     3072ed <share_page+0x29>
  3072d3:	83 ec 08             	sub    $0x8,%esp
  3072d6:	ff 75 08             	pushl  0x8(%ebp)
  3072d9:	68 80 d9 30 00       	push   $0x30d980
  3072de:	e8 c5 e3 ff ff       	call   3056a8 <printk>
  3072e3:	83 c4 10             	add    $0x10,%esp
  3072e6:	b8 ff ff ff ff       	mov    $0xffffffff,%eax
  3072eb:	eb 1a                	jmp    307307 <share_page+0x43>
  3072ed:	a1 c0 20 31 00       	mov    0x3120c0,%eax
  3072f2:	8b 55 08             	mov    0x8(%ebp),%edx
  3072f5:	c1 ea 0c             	shr    $0xc,%edx
  3072f8:	01 d0                	add    %edx,%eax
  3072fa:	0f b6 10             	movzbl (%eax),%edx
  3072fd:	83 c2 01             	add    $0x1,%edx
  307300:	88 10                	mov    %dl,(%eax)
  307302:	b8 00 00 00 00       	mov    $0x0,%eax
  307307:	c9                   	leave  
  307308:	c3                   	ret    

00307309 <page_share_nr>:
  307309:	55                   	push   %ebp
  30730a:	89 e5                	mov    %esp,%ebp
  30730c:	a1 c0 20 31 00       	mov    0x3120c0,%eax
  307311:	8b 55 08             	mov    0x8(%ebp),%edx
  307314:	c1 ea 0c             	shr    $0xc,%edx
  307317:	01 d0                	add    %edx,%eax
  307319:	0f b6 00             	movzbl (%eax),%eax
  30731c:	0f b6 c0             	movzbl %al,%eax
  30731f:	5d                   	pop    %ebp
  307320:	c3                   	ret    

00307321 <free_page>:
  307321:	55                   	push   %ebp
  307322:	89 e5                	mov    %esp,%ebp
  307324:	83 ec 08             	sub    $0x8,%esp
  307327:	81 7d 08 ff ff 3f 00 	cmpl   $0x3fffff,0x8(%ebp)
  30732e:	77 1a                	ja     30734a <free_page+0x29>
  307330:	83 ec 08             	sub    $0x8,%esp
  307333:	ff 75 08             	pushl  0x8(%ebp)
  307336:	68 c8 d9 30 00       	push   $0x30d9c8
  30733b:	e8 68 e3 ff ff       	call   3056a8 <printk>
  307340:	83 c4 10             	add    $0x10,%esp
  307343:	b8 ff ff ff ff       	mov    $0xffffffff,%eax
  307348:	eb 48                	jmp    307392 <free_page+0x71>
  30734a:	a1 c0 20 31 00       	mov    0x3120c0,%eax
  30734f:	8b 55 08             	mov    0x8(%ebp),%edx
  307352:	c1 ea 0c             	shr    $0xc,%edx
  307355:	01 d0                	add    %edx,%eax
  307357:	0f b6 00             	movzbl (%eax),%eax
  30735a:	84 c0                	test   %al,%al
  30735c:	75 1a                	jne    307378 <free_page+0x57>
  30735e:	83 ec 08             	sub    $0x8,%esp
  307361:	ff 75 08             	pushl  0x8(%ebp)
  307364:	68 f8 d9 30 00       	push   $0x30d9f8
  307369:	e8 3a e3 ff ff       	call   3056a8 <printk>
  30736e:	83 c4 10             	add    $0x10,%esp
  307371:	b8 ff ff ff ff       	mov    $0xffffffff,%eax
  307376:	eb 1a                	jmp    307392 <free_page+0x71>
  307378:	a1 c0 20 31 00       	mov    0x3120c0,%eax
  30737d:	8b 55 08             	mov    0x8(%ebp),%edx
  307380:	c1 ea 0c             	shr    $0xc,%edx
  307383:	01 d0                	add    %edx,%eax
  307385:	0f b6 10             	movzbl (%eax),%edx
  307388:	83 ea 01             	sub    $0x1,%edx
  30738b:	88 10                	mov    %dl,(%eax)
  30738d:	b8 00 00 00 00       	mov    $0x0,%eax
  307392:	c9                   	leave  
  307393:	c3                   	ret    

00307394 <open_pagination>:
  307394:	55                   	push   %ebp
  307395:	89 e5                	mov    %esp,%ebp
  307397:	83 ec 20             	sub    $0x20,%esp
  30739a:	c7 45 e4 00 30 20 00 	movl   $0x203000,-0x1c(%ebp)
  3073a1:	c7 45 fc 00 40 20 00 	movl   $0x204000,-0x4(%ebp)
  3073a8:	c7 45 f8 00 00 00 00 	movl   $0x0,-0x8(%ebp)
  3073af:	68 00 10 00 00       	push   $0x1000
  3073b4:	6a 00                	push   $0x0
  3073b6:	ff 75 e4             	pushl  -0x1c(%ebp)
  3073b9:	e8 06 fe ff ff       	call   3071c4 <memset>
  3073be:	83 c4 0c             	add    $0xc,%esp
  3073c1:	8b 45 fc             	mov    -0x4(%ebp),%eax
  3073c4:	83 c8 07             	or     $0x7,%eax
  3073c7:	89 c2                	mov    %eax,%edx
  3073c9:	8b 45 e4             	mov    -0x1c(%ebp),%eax
  3073cc:	89 10                	mov    %edx,(%eax)
  3073ce:	c7 45 f4 00 00 00 00 	movl   $0x0,-0xc(%ebp)
  3073d5:	eb 1e                	jmp    3073f5 <open_pagination+0x61>
  3073d7:	8b 45 f4             	mov    -0xc(%ebp),%eax
  3073da:	8d 14 85 00 00 00 00 	lea    0x0(,%eax,4),%edx
  3073e1:	8b 45 fc             	mov    -0x4(%ebp),%eax
  3073e4:	01 c2                	add    %eax,%edx
  3073e6:	8b 45 f4             	mov    -0xc(%ebp),%eax
  3073e9:	c1 e0 0c             	shl    $0xc,%eax
  3073ec:	83 c8 07             	or     $0x7,%eax
  3073ef:	89 02                	mov    %eax,(%edx)
  3073f1:	83 45 f4 01          	addl   $0x1,-0xc(%ebp)
  3073f5:	81 7d f4 ff 03 00 00 	cmpl   $0x3ff,-0xc(%ebp)
  3073fc:	7e d9                	jle    3073d7 <open_pagination+0x43>
  3073fe:	c7 45 f0 00 00 00 00 	movl   $0x0,-0x10(%ebp)
  307405:	eb 5d                	jmp    307464 <open_pagination+0xd0>
  307407:	8b 45 fc             	mov    -0x4(%ebp),%eax
  30740a:	05 00 10 00 00       	add    $0x1000,%eax
  30740f:	89 45 fc             	mov    %eax,-0x4(%ebp)
  307412:	8b 45 f0             	mov    -0x10(%ebp),%eax
  307415:	8d 14 85 00 00 00 00 	lea    0x0(,%eax,4),%edx
  30741c:	8b 45 e4             	mov    -0x1c(%ebp),%eax
  30741f:	01 d0                	add    %edx,%eax
  307421:	8b 55 fc             	mov    -0x4(%ebp),%edx
  307424:	83 ca 07             	or     $0x7,%edx
  307427:	89 10                	mov    %edx,(%eax)
  307429:	c7 45 ec 00 00 00 00 	movl   $0x0,-0x14(%ebp)
  307430:	eb 25                	jmp    307457 <open_pagination+0xc3>
  307432:	8b 45 ec             	mov    -0x14(%ebp),%eax
  307435:	8d 14 85 00 00 00 00 	lea    0x0(,%eax,4),%edx
  30743c:	8b 45 fc             	mov    -0x4(%ebp),%eax
  30743f:	8d 0c 02             	lea    (%edx,%eax,1),%ecx
  307442:	8b 45 f8             	mov    -0x8(%ebp),%eax
  307445:	8d 50 01             	lea    0x1(%eax),%edx
  307448:	89 55 f8             	mov    %edx,-0x8(%ebp)
  30744b:	c1 e0 0c             	shl    $0xc,%eax
  30744e:	83 c8 07             	or     $0x7,%eax
  307451:	89 01                	mov    %eax,(%ecx)
  307453:	83 45 ec 01          	addl   $0x1,-0x14(%ebp)
  307457:	81 7d ec ff 03 00 00 	cmpl   $0x3ff,-0x14(%ebp)
  30745e:	7e d2                	jle    307432 <open_pagination+0x9e>
  307460:	83 45 f0 01          	addl   $0x1,-0x10(%ebp)
  307464:	81 7d f0 ff 00 00 00 	cmpl   $0xff,-0x10(%ebp)
  30746b:	7e 9a                	jle    307407 <open_pagination+0x73>
  30746d:	8b 45 e4             	mov    -0x1c(%ebp),%eax
  307470:	05 fc 0f 00 00       	add    $0xffc,%eax
  307475:	8b 00                	mov    (%eax),%eax
  307477:	25 00 f3 ff ff       	and    $0xfffff300,%eax
  30747c:	89 45 fc             	mov    %eax,-0x4(%ebp)
  30747f:	c7 45 e8 00 00 00 00 	movl   $0x0,-0x18(%ebp)
  307486:	eb 20                	jmp    3074a8 <open_pagination+0x114>
  307488:	8b 45 e8             	mov    -0x18(%ebp),%eax
  30748b:	8d 14 85 00 00 00 00 	lea    0x0(,%eax,4),%edx
  307492:	8b 45 fc             	mov    -0x4(%ebp),%eax
  307495:	01 c2                	add    %eax,%edx
  307497:	8b 45 e8             	mov    -0x18(%ebp),%eax
  30749a:	c1 e0 0c             	shl    $0xc,%eax
  30749d:	0d 07 00 c0 ff       	or     $0xffc00007,%eax
  3074a2:	89 02                	mov    %eax,(%edx)
  3074a4:	83 45 e8 01          	addl   $0x1,-0x18(%ebp)
  3074a8:	81 7d e8 ff 03 00 00 	cmpl   $0x3ff,-0x18(%ebp)
  3074af:	7e d7                	jle    307488 <open_pagination+0xf4>
  3074b1:	8b 45 e4             	mov    -0x1c(%ebp),%eax
  3074b4:	0f 22 d8             	mov    %eax,%cr3
  3074b7:	0f 20 c0             	mov    %cr0,%eax
  3074ba:	0d 00 00 01 80       	or     $0x80010000,%eax
  3074bf:	0f 22 c0             	mov    %eax,%cr0
  3074c2:	c9                   	leave  
  3074c3:	c3                   	ret    

003074c4 <mm_init>:
  3074c4:	55                   	push   %ebp
  3074c5:	89 e5                	mov    %esp,%ebp
  3074c7:	83 ec 38             	sub    $0x38,%esp
  3074ca:	a1 00 20 31 00       	mov    0x312000,%eax
  3074cf:	8b 40 30             	mov    0x30(%eax),%eax
  3074d2:	89 45 f4             	mov    %eax,-0xc(%ebp)
  3074d5:	a1 00 20 31 00       	mov    0x312000,%eax
  3074da:	8b 50 30             	mov    0x30(%eax),%edx
  3074dd:	a1 00 20 31 00       	mov    0x312000,%eax
  3074e2:	8b 40 2c             	mov    0x2c(%eax),%eax
  3074e5:	01 d0                	add    %edx,%eax
  3074e7:	89 45 e0             	mov    %eax,-0x20(%ebp)
  3074ea:	a1 00 20 31 00       	mov    0x312000,%eax
  3074ef:	8b 40 18             	mov    0x18(%eax),%eax
  3074f2:	89 45 dc             	mov    %eax,-0x24(%ebp)
  3074f5:	8b 45 dc             	mov    -0x24(%ebp),%eax
  3074f8:	8b 00                	mov    (%eax),%eax
  3074fa:	89 45 d8             	mov    %eax,-0x28(%ebp)
  3074fd:	8b 45 dc             	mov    -0x24(%ebp),%eax
  307500:	8b 50 04             	mov    0x4(%eax),%edx
  307503:	8b 45 dc             	mov    -0x24(%ebp),%eax
  307506:	8b 00                	mov    (%eax),%eax
  307508:	29 c2                	sub    %eax,%edx
  30750a:	89 d0                	mov    %edx,%eax
  30750c:	89 45 d4             	mov    %eax,-0x2c(%ebp)
  30750f:	8b 45 d4             	mov    -0x2c(%ebp),%eax
  307512:	50                   	push   %eax
  307513:	ff 75 d8             	pushl  -0x28(%ebp)
  307516:	68 00 50 31 00       	push   $0x315000
  30751b:	e8 84 fc ff ff       	call   3071a4 <memcpy>
  307520:	83 c4 0c             	add    $0xc,%esp
  307523:	c6 45 f3 64          	movb   $0x64,-0xd(%ebp)
  307527:	c7 45 ec 00 00 00 00 	movl   $0x0,-0x14(%ebp)
  30752e:	eb 12                	jmp    307542 <mm_init+0x7e>
  307530:	8b 15 c0 20 31 00    	mov    0x3120c0,%edx
  307536:	8b 45 ec             	mov    -0x14(%ebp),%eax
  307539:	01 d0                	add    %edx,%eax
  30753b:	c6 00 64             	movb   $0x64,(%eax)
  30753e:	83 45 ec 01          	addl   $0x1,-0x14(%ebp)
  307542:	8b 15 c0 20 31 00    	mov    0x3120c0,%edx
  307548:	8b 45 ec             	mov    -0x14(%ebp),%eax
  30754b:	01 d0                	add    %edx,%eax
  30754d:	3d ff ff 1f 00       	cmp    $0x1fffff,%eax
  307552:	76 dc                	jbe    307530 <mm_init+0x6c>
  307554:	eb 65                	jmp    3075bb <mm_init+0xf7>
  307556:	8b 45 f4             	mov    -0xc(%ebp),%eax
  307559:	8b 40 14             	mov    0x14(%eax),%eax
  30755c:	83 f8 01             	cmp    $0x1,%eax
  30755f:	75 19                	jne    30757a <mm_init+0xb6>
  307561:	c6 45 f3 00          	movb   $0x0,-0xd(%ebp)
  307565:	8b 45 f4             	mov    -0xc(%ebp),%eax
  307568:	8b 50 04             	mov    0x4(%eax),%edx
  30756b:	8b 45 f4             	mov    -0xc(%ebp),%eax
  30756e:	8b 40 0c             	mov    0xc(%eax),%eax
  307571:	01 d0                	add    %edx,%eax
  307573:	a3 30 26 31 00       	mov    %eax,0x312630
  307578:	eb 04                	jmp    30757e <mm_init+0xba>
  30757a:	c6 45 f3 64          	movb   $0x64,-0xd(%ebp)
  30757e:	8b 45 f4             	mov    -0xc(%ebp),%eax
  307581:	8b 40 04             	mov    0x4(%eax),%eax
  307584:	c1 e8 0c             	shr    $0xc,%eax
  307587:	89 45 e8             	mov    %eax,-0x18(%ebp)
  30758a:	eb 15                	jmp    3075a1 <mm_init+0xdd>
  30758c:	8b 15 c0 20 31 00    	mov    0x3120c0,%edx
  307592:	8b 45 e8             	mov    -0x18(%ebp),%eax
  307595:	01 c2                	add    %eax,%edx
  307597:	0f b6 45 f3          	movzbl -0xd(%ebp),%eax
  30759b:	88 02                	mov    %al,(%edx)
  30759d:	83 45 e8 01          	addl   $0x1,-0x18(%ebp)
  3075a1:	8b 45 f4             	mov    -0xc(%ebp),%eax
  3075a4:	8b 50 04             	mov    0x4(%eax),%edx
  3075a7:	8b 45 f4             	mov    -0xc(%ebp),%eax
  3075aa:	8b 40 0c             	mov    0xc(%eax),%eax
  3075ad:	01 d0                	add    %edx,%eax
  3075af:	c1 e8 0c             	shr    $0xc,%eax
  3075b2:	3b 45 e8             	cmp    -0x18(%ebp),%eax
  3075b5:	77 d5                	ja     30758c <mm_init+0xc8>
  3075b7:	83 45 f4 18          	addl   $0x18,-0xc(%ebp)
  3075bb:	8b 45 f4             	mov    -0xc(%ebp),%eax
  3075be:	3b 45 e0             	cmp    -0x20(%ebp),%eax
  3075c1:	72 93                	jb     307556 <mm_init+0x92>
  3075c3:	c7 45 e4 00 00 00 00 	movl   $0x0,-0x1c(%ebp)
  3075ca:	eb 12                	jmp    3075de <mm_init+0x11a>
  3075cc:	8b 15 c0 20 31 00    	mov    0x3120c0,%edx
  3075d2:	8b 45 e4             	mov    -0x1c(%ebp),%eax
  3075d5:	01 d0                	add    %edx,%eax
  3075d7:	c6 00 64             	movb   $0x64,(%eax)
  3075da:	83 45 e4 01          	addl   $0x1,-0x1c(%ebp)
  3075de:	81 7d e4 ff 03 00 00 	cmpl   $0x3ff,-0x1c(%ebp)
  3075e5:	7e e5                	jle    3075cc <mm_init+0x108>
  3075e7:	a1 30 26 31 00       	mov    0x312630,%eax
  3075ec:	3d 00 00 00 40       	cmp    $0x40000000,%eax
  3075f1:	76 0c                	jbe    3075ff <mm_init+0x13b>
  3075f3:	c7 05 34 26 31 00 00 	movl   $0x40000000,0x312634
  3075fa:	00 00 40 
  3075fd:	eb 0a                	jmp    307609 <mm_init+0x145>
  3075ff:	a1 30 26 31 00       	mov    0x312630,%eax
  307604:	a3 34 26 31 00       	mov    %eax,0x312634
  307609:	e8 de 04 00 00       	call   307aec <buffer_init>
  30760e:	e8 81 fd ff ff       	call   307394 <open_pagination>
  307613:	c9                   	leave  
  307614:	c3                   	ret    
  307615:	66 90                	xchg   %ax,%ax
  307617:	90                   	nop

00307618 <ret>:
  307618:	55                   	push   %ebp
  307619:	89 e5                	mov    %esp,%ebp
  30761b:	57                   	push   %edi
  30761c:	56                   	push   %esi
  30761d:	53                   	push   %ebx
  30761e:	83 ec 10             	sub    $0x10,%esp
  307621:	b8 02 00 00 00       	mov    $0x2,%eax
  307626:	8b 5d 08             	mov    0x8(%ebp),%ebx
  307629:	8b 4d 0c             	mov    0xc(%ebp),%ecx
  30762c:	ba 00 00 00 00       	mov    $0x0,%edx
  307631:	be 00 00 00 00       	mov    $0x0,%esi
  307636:	bf 00 00 00 00       	mov    $0x0,%edi
  30763b:	cd 80                	int    $0x80
  30763d:	89 45 f0             	mov    %eax,-0x10(%ebp)
  307640:	8b 45 f0             	mov    -0x10(%ebp),%eax
  307643:	83 c4 10             	add    $0x10,%esp
  307646:	5b                   	pop    %ebx
  307647:	5e                   	pop    %esi
  307648:	5f                   	pop    %edi
  307649:	5d                   	pop    %ebp
  30764a:	c3                   	ret    

0030764b <clock_handler>:
  30764b:	55                   	push   %ebp
  30764c:	89 e5                	mov    %esp,%ebp
  30764e:	83 ec 18             	sub    $0x18,%esp
  307651:	a1 04 26 31 00       	mov    0x312604,%eax
  307656:	89 45 f4             	mov    %eax,-0xc(%ebp)
  307659:	8b 45 f4             	mov    -0xc(%ebp),%eax
  30765c:	8b 80 a8 00 00 00    	mov    0xa8(%eax),%eax
  307662:	85 c0                	test   %eax,%eax
  307664:	74 1a                	je     307680 <clock_handler+0x35>
  307666:	a1 04 26 31 00       	mov    0x312604,%eax
  30766b:	89 45 f0             	mov    %eax,-0x10(%ebp)
  30766e:	8b 45 f0             	mov    -0x10(%ebp),%eax
  307671:	8b 90 a8 00 00 00    	mov    0xa8(%eax),%edx
  307677:	83 ea 01             	sub    $0x1,%edx
  30767a:	89 90 a8 00 00 00    	mov    %edx,0xa8(%eax)
  307680:	8b 0d 40 26 31 00    	mov    0x312640,%ecx
  307686:	ba d3 4d 62 10       	mov    $0x10624dd3,%edx
  30768b:	89 c8                	mov    %ecx,%eax
  30768d:	f7 e2                	mul    %edx
  30768f:	89 d0                	mov    %edx,%eax
  307691:	c1 e8 06             	shr    $0x6,%eax
  307694:	69 c0 e8 03 00 00    	imul   $0x3e8,%eax,%eax
  30769a:	29 c1                	sub    %eax,%ecx
  30769c:	89 c8                	mov    %ecx,%eax
  30769e:	85 c0                	test   %eax,%eax
  3076a0:	75 16                	jne    3076b8 <clock_handler+0x6d>
  3076a2:	83 ec 0c             	sub    $0xc,%esp
  3076a5:	6a 00                	push   $0x0
  3076a7:	6a 00                	push   $0x0
  3076a9:	6a 00                	push   $0x0
  3076ab:	6a 01                	push   $0x1
  3076ad:	ff 75 08             	pushl  0x8(%ebp)
  3076b0:	e8 d8 f2 ff ff       	call   30698d <doint>
  3076b5:	83 c4 20             	add    $0x20,%esp
  3076b8:	b8 00 00 00 00       	mov    $0x0,%eax
  3076bd:	c9                   	leave  
  3076be:	c3                   	ret    

003076bf <mktime>:
  3076bf:	55                   	push   %ebp
  3076c0:	89 e5                	mov    %esp,%ebp
  3076c2:	83 ec 10             	sub    $0x10,%esp
  3076c5:	8b 45 08             	mov    0x8(%ebp),%eax
  3076c8:	8b 40 14             	mov    0x14(%eax),%eax
  3076cb:	69 d0 80 33 e1 01    	imul   $0x1e13380,%eax,%edx
  3076d1:	8b 45 08             	mov    0x8(%ebp),%eax
  3076d4:	8b 40 14             	mov    0x14(%eax),%eax
  3076d7:	83 c0 03             	add    $0x3,%eax
  3076da:	69 c0 80 51 01 00    	imul   $0x15180,%eax,%eax
  3076e0:	8d 48 03             	lea    0x3(%eax),%ecx
  3076e3:	85 c0                	test   %eax,%eax
  3076e5:	0f 48 c1             	cmovs  %ecx,%eax
  3076e8:	c1 f8 02             	sar    $0x2,%eax
  3076eb:	01 d0                	add    %edx,%eax
  3076ed:	89 45 fc             	mov    %eax,-0x4(%ebp)
  3076f0:	8b 45 08             	mov    0x8(%ebp),%eax
  3076f3:	8b 40 10             	mov    0x10(%eax),%eax
  3076f6:	8b 04 85 40 da 30 00 	mov    0x30da40(,%eax,4),%eax
  3076fd:	69 c0 80 51 01 00    	imul   $0x15180,%eax,%eax
  307703:	01 45 fc             	add    %eax,-0x4(%ebp)
  307706:	8b 45 08             	mov    0x8(%ebp),%eax
  307709:	8b 40 10             	mov    0x10(%eax),%eax
  30770c:	83 f8 01             	cmp    $0x1,%eax
  30770f:	7e 14                	jle    307725 <mktime+0x66>
  307711:	8b 45 08             	mov    0x8(%ebp),%eax
  307714:	8b 40 14             	mov    0x14(%eax),%eax
  307717:	83 e0 03             	and    $0x3,%eax
  30771a:	85 c0                	test   %eax,%eax
  30771c:	75 07                	jne    307725 <mktime+0x66>
  30771e:	81 45 fc 80 51 01 00 	addl   $0x15180,-0x4(%ebp)
  307725:	8b 45 08             	mov    0x8(%ebp),%eax
  307728:	8b 40 0c             	mov    0xc(%eax),%eax
  30772b:	83 e8 01             	sub    $0x1,%eax
  30772e:	69 c0 80 51 01 00    	imul   $0x15180,%eax,%eax
  307734:	01 45 fc             	add    %eax,-0x4(%ebp)
  307737:	8b 45 08             	mov    0x8(%ebp),%eax
  30773a:	8b 40 08             	mov    0x8(%eax),%eax
  30773d:	69 c0 10 0e 00 00    	imul   $0xe10,%eax,%eax
  307743:	01 45 fc             	add    %eax,-0x4(%ebp)
  307746:	8b 45 08             	mov    0x8(%ebp),%eax
  307749:	8b 40 04             	mov    0x4(%eax),%eax
  30774c:	c1 e0 02             	shl    $0x2,%eax
  30774f:	89 c2                	mov    %eax,%edx
  307751:	c1 e2 04             	shl    $0x4,%edx
  307754:	29 c2                	sub    %eax,%edx
  307756:	89 d0                	mov    %edx,%eax
  307758:	01 45 fc             	add    %eax,-0x4(%ebp)
  30775b:	8b 45 08             	mov    0x8(%ebp),%eax
  30775e:	8b 00                	mov    (%eax),%eax
  307760:	01 45 fc             	add    %eax,-0x4(%ebp)
  307763:	8b 45 fc             	mov    -0x4(%ebp),%eax
  307766:	c9                   	leave  
  307767:	c3                   	ret    

00307768 <cmos_time>:
  307768:	55                   	push   %ebp
  307769:	89 e5                	mov    %esp,%ebp
  30776b:	83 ec 10             	sub    $0x10,%esp
  30776e:	b8 80 00 00 00       	mov    $0x80,%eax
  307773:	ba 70 00 00 00       	mov    $0x70,%edx
  307778:	ee                   	out    %al,(%dx)
  307779:	eb 00                	jmp    30777b <cmos_time+0x13>
  30777b:	eb 00                	jmp    30777d <cmos_time+0x15>
  30777d:	b8 71 00 00 00       	mov    $0x71,%eax
  307782:	89 c2                	mov    %eax,%edx
  307784:	ec                   	in     (%dx),%al
  307785:	eb 00                	jmp    307787 <cmos_time+0x1f>
  307787:	eb 00                	jmp    307789 <cmos_time+0x21>
  307789:	88 45 ff             	mov    %al,-0x1(%ebp)
  30778c:	0f b6 45 ff          	movzbl -0x1(%ebp),%eax
  307790:	0f b6 c0             	movzbl %al,%eax
  307793:	a3 60 26 31 00       	mov    %eax,0x312660
  307798:	b8 82 00 00 00       	mov    $0x82,%eax
  30779d:	ba 70 00 00 00       	mov    $0x70,%edx
  3077a2:	ee                   	out    %al,(%dx)
  3077a3:	eb 00                	jmp    3077a5 <cmos_time+0x3d>
  3077a5:	eb 00                	jmp    3077a7 <cmos_time+0x3f>
  3077a7:	b8 71 00 00 00       	mov    $0x71,%eax
  3077ac:	89 c2                	mov    %eax,%edx
  3077ae:	ec                   	in     (%dx),%al
  3077af:	eb 00                	jmp    3077b1 <cmos_time+0x49>
  3077b1:	eb 00                	jmp    3077b3 <cmos_time+0x4b>
  3077b3:	88 45 fe             	mov    %al,-0x2(%ebp)
  3077b6:	0f b6 45 fe          	movzbl -0x2(%ebp),%eax
  3077ba:	0f b6 c0             	movzbl %al,%eax
  3077bd:	a3 64 26 31 00       	mov    %eax,0x312664
  3077c2:	b8 84 00 00 00       	mov    $0x84,%eax
  3077c7:	ba 70 00 00 00       	mov    $0x70,%edx
  3077cc:	ee                   	out    %al,(%dx)
  3077cd:	eb 00                	jmp    3077cf <cmos_time+0x67>
  3077cf:	eb 00                	jmp    3077d1 <cmos_time+0x69>
  3077d1:	b8 71 00 00 00       	mov    $0x71,%eax
  3077d6:	89 c2                	mov    %eax,%edx
  3077d8:	ec                   	in     (%dx),%al
  3077d9:	eb 00                	jmp    3077db <cmos_time+0x73>
  3077db:	eb 00                	jmp    3077dd <cmos_time+0x75>
  3077dd:	88 45 fd             	mov    %al,-0x3(%ebp)
  3077e0:	0f b6 45 fd          	movzbl -0x3(%ebp),%eax
  3077e4:	0f b6 c0             	movzbl %al,%eax
  3077e7:	a3 68 26 31 00       	mov    %eax,0x312668
  3077ec:	b8 87 00 00 00       	mov    $0x87,%eax
  3077f1:	ba 70 00 00 00       	mov    $0x70,%edx
  3077f6:	ee                   	out    %al,(%dx)
  3077f7:	eb 00                	jmp    3077f9 <cmos_time+0x91>
  3077f9:	eb 00                	jmp    3077fb <cmos_time+0x93>
  3077fb:	b8 71 00 00 00       	mov    $0x71,%eax
  307800:	89 c2                	mov    %eax,%edx
  307802:	ec                   	in     (%dx),%al
  307803:	eb 00                	jmp    307805 <cmos_time+0x9d>
  307805:	eb 00                	jmp    307807 <cmos_time+0x9f>
  307807:	88 45 fc             	mov    %al,-0x4(%ebp)
  30780a:	0f b6 45 fc          	movzbl -0x4(%ebp),%eax
  30780e:	0f b6 c0             	movzbl %al,%eax
  307811:	a3 6c 26 31 00       	mov    %eax,0x31266c
  307816:	b8 88 00 00 00       	mov    $0x88,%eax
  30781b:	ba 70 00 00 00       	mov    $0x70,%edx
  307820:	ee                   	out    %al,(%dx)
  307821:	eb 00                	jmp    307823 <cmos_time+0xbb>
  307823:	eb 00                	jmp    307825 <cmos_time+0xbd>
  307825:	b8 71 00 00 00       	mov    $0x71,%eax
  30782a:	89 c2                	mov    %eax,%edx
  30782c:	ec                   	in     (%dx),%al
  30782d:	eb 00                	jmp    30782f <cmos_time+0xc7>
  30782f:	eb 00                	jmp    307831 <cmos_time+0xc9>
  307831:	88 45 fb             	mov    %al,-0x5(%ebp)
  307834:	0f b6 45 fb          	movzbl -0x5(%ebp),%eax
  307838:	0f b6 c0             	movzbl %al,%eax
  30783b:	a3 70 26 31 00       	mov    %eax,0x312670
  307840:	b8 89 00 00 00       	mov    $0x89,%eax
  307845:	ba 70 00 00 00       	mov    $0x70,%edx
  30784a:	ee                   	out    %al,(%dx)
  30784b:	eb 00                	jmp    30784d <cmos_time+0xe5>
  30784d:	eb 00                	jmp    30784f <cmos_time+0xe7>
  30784f:	b8 71 00 00 00       	mov    $0x71,%eax
  307854:	89 c2                	mov    %eax,%edx
  307856:	ec                   	in     (%dx),%al
  307857:	eb 00                	jmp    307859 <cmos_time+0xf1>
  307859:	eb 00                	jmp    30785b <cmos_time+0xf3>
  30785b:	88 45 fa             	mov    %al,-0x6(%ebp)
  30785e:	0f b6 45 fa          	movzbl -0x6(%ebp),%eax
  307862:	0f b6 c0             	movzbl %al,%eax
  307865:	a3 74 26 31 00       	mov    %eax,0x312674
  30786a:	8b 0d 60 26 31 00    	mov    0x312660,%ecx
  307870:	b8 80 00 00 00       	mov    $0x80,%eax
  307875:	ba 70 00 00 00       	mov    $0x70,%edx
  30787a:	ee                   	out    %al,(%dx)
  30787b:	eb 00                	jmp    30787d <cmos_time+0x115>
  30787d:	eb 00                	jmp    30787f <cmos_time+0x117>
  30787f:	b8 71 00 00 00       	mov    $0x71,%eax
  307884:	89 c2                	mov    %eax,%edx
  307886:	ec                   	in     (%dx),%al
  307887:	eb 00                	jmp    307889 <cmos_time+0x121>
  307889:	eb 00                	jmp    30788b <cmos_time+0x123>
  30788b:	88 45 f9             	mov    %al,-0x7(%ebp)
  30788e:	0f b6 45 f9          	movzbl -0x7(%ebp),%eax
  307892:	0f b6 c0             	movzbl %al,%eax
  307895:	39 c1                	cmp    %eax,%ecx
  307897:	0f 85 d1 fe ff ff    	jne    30776e <cmos_time+0x6>
  30789d:	a1 60 26 31 00       	mov    0x312660,%eax
  3078a2:	83 e0 0f             	and    $0xf,%eax
  3078a5:	89 c1                	mov    %eax,%ecx
  3078a7:	a1 60 26 31 00       	mov    0x312660,%eax
  3078ac:	c1 f8 04             	sar    $0x4,%eax
  3078af:	89 c2                	mov    %eax,%edx
  3078b1:	89 d0                	mov    %edx,%eax
  3078b3:	c1 e0 02             	shl    $0x2,%eax
  3078b6:	01 d0                	add    %edx,%eax
  3078b8:	01 c0                	add    %eax,%eax
  3078ba:	01 c8                	add    %ecx,%eax
  3078bc:	a3 60 26 31 00       	mov    %eax,0x312660
  3078c1:	a1 64 26 31 00       	mov    0x312664,%eax
  3078c6:	83 e0 0f             	and    $0xf,%eax
  3078c9:	89 c1                	mov    %eax,%ecx
  3078cb:	a1 64 26 31 00       	mov    0x312664,%eax
  3078d0:	c1 f8 04             	sar    $0x4,%eax
  3078d3:	89 c2                	mov    %eax,%edx
  3078d5:	89 d0                	mov    %edx,%eax
  3078d7:	c1 e0 02             	shl    $0x2,%eax
  3078da:	01 d0                	add    %edx,%eax
  3078dc:	01 c0                	add    %eax,%eax
  3078de:	01 c8                	add    %ecx,%eax
  3078e0:	a3 64 26 31 00       	mov    %eax,0x312664
  3078e5:	a1 68 26 31 00       	mov    0x312668,%eax
  3078ea:	83 e0 0f             	and    $0xf,%eax
  3078ed:	89 c1                	mov    %eax,%ecx
  3078ef:	a1 68 26 31 00       	mov    0x312668,%eax
  3078f4:	c1 f8 04             	sar    $0x4,%eax
  3078f7:	89 c2                	mov    %eax,%edx
  3078f9:	89 d0                	mov    %edx,%eax
  3078fb:	c1 e0 02             	shl    $0x2,%eax
  3078fe:	01 d0                	add    %edx,%eax
  307900:	01 c0                	add    %eax,%eax
  307902:	01 c8                	add    %ecx,%eax
  307904:	a3 68 26 31 00       	mov    %eax,0x312668
  307909:	a1 6c 26 31 00       	mov    0x31266c,%eax
  30790e:	83 e0 0f             	and    $0xf,%eax
  307911:	89 c1                	mov    %eax,%ecx
  307913:	a1 6c 26 31 00       	mov    0x31266c,%eax
  307918:	c1 f8 04             	sar    $0x4,%eax
  30791b:	89 c2                	mov    %eax,%edx
  30791d:	89 d0                	mov    %edx,%eax
  30791f:	c1 e0 02             	shl    $0x2,%eax
  307922:	01 d0                	add    %edx,%eax
  307924:	01 c0                	add    %eax,%eax
  307926:	01 c8                	add    %ecx,%eax
  307928:	a3 6c 26 31 00       	mov    %eax,0x31266c
  30792d:	a1 70 26 31 00       	mov    0x312670,%eax
  307932:	83 e0 0f             	and    $0xf,%eax
  307935:	89 c1                	mov    %eax,%ecx
  307937:	a1 70 26 31 00       	mov    0x312670,%eax
  30793c:	c1 f8 04             	sar    $0x4,%eax
  30793f:	89 c2                	mov    %eax,%edx
  307941:	89 d0                	mov    %edx,%eax
  307943:	c1 e0 02             	shl    $0x2,%eax
  307946:	01 d0                	add    %edx,%eax
  307948:	01 c0                	add    %eax,%eax
  30794a:	01 c8                	add    %ecx,%eax
  30794c:	a3 70 26 31 00       	mov    %eax,0x312670
  307951:	a1 74 26 31 00       	mov    0x312674,%eax
  307956:	83 e0 0f             	and    $0xf,%eax
  307959:	89 c1                	mov    %eax,%ecx
  30795b:	a1 74 26 31 00       	mov    0x312674,%eax
  307960:	c1 f8 04             	sar    $0x4,%eax
  307963:	89 c2                	mov    %eax,%edx
  307965:	89 d0                	mov    %edx,%eax
  307967:	c1 e0 02             	shl    $0x2,%eax
  30796a:	01 d0                	add    %edx,%eax
  30796c:	01 c0                	add    %eax,%eax
  30796e:	01 c8                	add    %ecx,%eax
  307970:	a3 74 26 31 00       	mov    %eax,0x312674
  307975:	a1 70 26 31 00       	mov    0x312670,%eax
  30797a:	83 e8 01             	sub    $0x1,%eax
  30797d:	a3 70 26 31 00       	mov    %eax,0x312670
  307982:	68 60 26 31 00       	push   $0x312660
  307987:	e8 33 fd ff ff       	call   3076bf <mktime>
  30798c:	83 c4 04             	add    $0x4,%esp
  30798f:	a3 48 26 31 00       	mov    %eax,0x312648
  307994:	c9                   	leave  
  307995:	c3                   	ret    

00307996 <get_time>:
  307996:	55                   	push   %ebp
  307997:	89 e5                	mov    %esp,%ebp
  307999:	a1 48 26 31 00       	mov    0x312648,%eax
  30799e:	50                   	push   %eax
  30799f:	ff 75 08             	pushl  0x8(%ebp)
  3079a2:	e8 71 fc ff ff       	call   307618 <ret>
  3079a7:	83 c4 08             	add    $0x8,%esp
  3079aa:	c9                   	leave  
  3079ab:	c3                   	ret    

003079ac <_clk>:
  3079ac:	55                   	push   %ebp
  3079ad:	89 e5                	mov    %esp,%ebp
  3079af:	a1 48 26 31 00       	mov    0x312648,%eax
  3079b4:	83 c0 01             	add    $0x1,%eax
  3079b7:	a3 48 26 31 00       	mov    %eax,0x312648
  3079bc:	5d                   	pop    %ebp
  3079bd:	c3                   	ret    

003079be <clock_init>:
  3079be:	55                   	push   %ebp
  3079bf:	89 e5                	mov    %esp,%ebp
  3079c1:	57                   	push   %edi
  3079c2:	56                   	push   %esi
  3079c3:	53                   	push   %ebx
  3079c4:	83 ec 1c             	sub    $0x1c,%esp
  3079c7:	b8 03 00 00 00       	mov    $0x3,%eax
  3079cc:	bb 00 00 00 00       	mov    $0x0,%ebx
  3079d1:	b9 96 79 30 00       	mov    $0x307996,%ecx
  3079d6:	ba 00 00 00 00       	mov    $0x0,%edx
  3079db:	be 00 00 00 00       	mov    $0x0,%esi
  3079e0:	bf 00 00 00 00       	mov    $0x0,%edi
  3079e5:	cd 80                	int    $0x80
  3079e7:	89 45 e4             	mov    %eax,-0x1c(%ebp)
  3079ea:	b8 03 00 00 00       	mov    $0x3,%eax
  3079ef:	bb 01 00 00 00       	mov    $0x1,%ebx
  3079f4:	b9 ac 79 30 00       	mov    $0x3079ac,%ecx
  3079f9:	ba 00 00 00 00       	mov    $0x0,%edx
  3079fe:	be 00 00 00 00       	mov    $0x0,%esi
  307a03:	bf 00 00 00 00       	mov    $0x0,%edi
  307a08:	cd 80                	int    $0x80
  307a0a:	89 45 e0             	mov    %eax,-0x20(%ebp)
  307a0d:	e8 56 fd ff ff       	call   307768 <cmos_time>
  307a12:	b8 36 00 00 00       	mov    $0x36,%eax
  307a17:	ba 43 00 00 00       	mov    $0x43,%edx
  307a1c:	ee                   	out    %al,(%dx)
  307a1d:	eb 00                	jmp    307a1f <clock_init+0x61>
  307a1f:	eb 00                	jmp    307a21 <clock_init+0x63>
  307a21:	b8 9c 00 00 00       	mov    $0x9c,%eax
  307a26:	ba 40 00 00 00       	mov    $0x40,%edx
  307a2b:	ee                   	out    %al,(%dx)
  307a2c:	eb 00                	jmp    307a2e <clock_init+0x70>
  307a2e:	eb 00                	jmp    307a30 <clock_init+0x72>
  307a30:	b8 2e 00 00 00       	mov    $0x2e,%eax
  307a35:	ba 40 00 00 00       	mov    $0x40,%edx
  307a3a:	ee                   	out    %al,(%dx)
  307a3b:	eb 00                	jmp    307a3d <clock_init+0x7f>
  307a3d:	eb 00                	jmp    307a3f <clock_init+0x81>
  307a3f:	83 ec 08             	sub    $0x8,%esp
  307a42:	68 4b 76 30 00       	push   $0x30764b
  307a47:	6a 00                	push   $0x0
  307a49:	e8 9a e2 ff ff       	call   305ce8 <put_irq_handler>
  307a4e:	83 c4 10             	add    $0x10,%esp
  307a51:	8d 65 f4             	lea    -0xc(%ebp),%esp
  307a54:	5b                   	pop    %ebx
  307a55:	5e                   	pop    %esi
  307a56:	5f                   	pop    %edi
  307a57:	5d                   	pop    %ebp
  307a58:	c3                   	ret    

00307a59 <clock_main>:
  307a59:	55                   	push   %ebp
  307a5a:	89 e5                	mov    %esp,%ebp
  307a5c:	57                   	push   %edi
  307a5d:	56                   	push   %esi
  307a5e:	53                   	push   %ebx
  307a5f:	83 ec 1c             	sub    $0x1c,%esp
  307a62:	e8 57 ff ff ff       	call   3079be <clock_init>
  307a67:	b8 00 00 00 00       	mov    $0x0,%eax
  307a6c:	bb 00 00 00 00       	mov    $0x0,%ebx
  307a71:	b9 00 00 00 00       	mov    $0x0,%ecx
  307a76:	ba 00 00 00 00       	mov    $0x0,%edx
  307a7b:	be 00 00 00 00       	mov    $0x0,%esi
  307a80:	bf 00 00 00 00       	mov    $0x0,%edi
  307a85:	cd 80                	int    $0x80
  307a87:	89 45 e4             	mov    %eax,-0x1c(%ebp)
  307a8a:	b8 00 00 00 00       	mov    $0x0,%eax
  307a8f:	83 c4 1c             	add    $0x1c,%esp
  307a92:	5b                   	pop    %ebx
  307a93:	5e                   	pop    %esi
  307a94:	5f                   	pop    %edi
  307a95:	5d                   	pop    %ebp
  307a96:	c3                   	ret    
  307a97:	90                   	nop

00307a98 <main>:
  307a98:	8d 4c 24 04          	lea    0x4(%esp),%ecx
  307a9c:	83 e4 f0             	and    $0xfffffff0,%esp
  307a9f:	ff 71 fc             	pushl  -0x4(%ecx)
  307aa2:	55                   	push   %ebp
  307aa3:	89 e5                	mov    %esp,%ebp
  307aa5:	51                   	push   %ecx
  307aa6:	83 ec 04             	sub    $0x4,%esp
  307aa9:	fa                   	cli    
  307aaa:	e8 bb 43 00 00       	call   30be6a <cons_init>
  307aaf:	e8 10 fa ff ff       	call   3074c4 <mm_init>
  307ab4:	e8 bf e2 ff ff       	call   305d78 <trap_init>
  307ab9:	e8 8f f2 ff ff       	call   306d4d <god_init>
  307abe:	b8 00 00 00 00       	mov    $0x0,%eax
  307ac3:	83 c4 04             	add    $0x4,%esp
  307ac6:	59                   	pop    %ecx
  307ac7:	5d                   	pop    %ebp
  307ac8:	8d 61 fc             	lea    -0x4(%ecx),%esp
  307acb:	c3                   	ret    

00307acc <memcpy>:
  307acc:	55                   	push   %ebp
  307acd:	89 e5                	mov    %esp,%ebp
  307acf:	57                   	push   %edi
  307ad0:	56                   	push   %esi
  307ad1:	53                   	push   %ebx
  307ad2:	8b 45 10             	mov    0x10(%ebp),%eax
  307ad5:	8b 55 0c             	mov    0xc(%ebp),%edx
  307ad8:	8b 5d 08             	mov    0x8(%ebp),%ebx
  307adb:	89 c1                	mov    %eax,%ecx
  307add:	89 d6                	mov    %edx,%esi
  307adf:	89 df                	mov    %ebx,%edi
  307ae1:	fc                   	cld    
  307ae2:	f3 a4                	rep movsb %ds:(%esi),%es:(%edi)
  307ae4:	8b 45 08             	mov    0x8(%ebp),%eax
  307ae7:	5b                   	pop    %ebx
  307ae8:	5e                   	pop    %esi
  307ae9:	5f                   	pop    %edi
  307aea:	5d                   	pop    %ebp
  307aeb:	c3                   	ret    

00307aec <buffer_init>:
  307aec:	55                   	push   %ebp
  307aed:	89 e5                	mov    %esp,%ebp
  307aef:	83 ec 10             	sub    $0x10,%esp
  307af2:	c7 45 fc 00 00 00 00 	movl   $0x0,-0x4(%ebp)
  307af9:	c7 45 f8 00 00 01 00 	movl   $0x10000,-0x8(%ebp)
  307b00:	c7 45 fc 00 00 00 00 	movl   $0x0,-0x4(%ebp)
  307b07:	eb 23                	jmp    307b2c <buffer_init+0x40>
  307b09:	8b 45 fc             	mov    -0x4(%ebp),%eax
  307b0c:	c1 e0 0c             	shl    $0xc,%eax
  307b0f:	89 c2                	mov    %eax,%edx
  307b11:	8b 45 f8             	mov    -0x8(%ebp),%eax
  307b14:	01 d0                	add    %edx,%eax
  307b16:	8b 55 fc             	mov    -0x4(%ebp),%edx
  307b19:	83 c2 01             	add    $0x1,%edx
  307b1c:	89 d1                	mov    %edx,%ecx
  307b1e:	c1 e1 0c             	shl    $0xc,%ecx
  307b21:	8b 55 f8             	mov    -0x8(%ebp),%edx
  307b24:	01 ca                	add    %ecx,%edx
  307b26:	89 10                	mov    %edx,(%eax)
  307b28:	83 45 fc 01          	addl   $0x1,-0x4(%ebp)
  307b2c:	81 7d fc 8e 00 00 00 	cmpl   $0x8e,-0x4(%ebp)
  307b33:	7e d4                	jle    307b09 <buffer_init+0x1d>
  307b35:	8b 45 fc             	mov    -0x4(%ebp),%eax
  307b38:	c1 e0 0c             	shl    $0xc,%eax
  307b3b:	89 c2                	mov    %eax,%edx
  307b3d:	8b 45 f8             	mov    -0x8(%ebp),%eax
  307b40:	01 d0                	add    %edx,%eax
  307b42:	c7 00 00 00 00 00    	movl   $0x0,(%eax)
  307b48:	8b 45 f8             	mov    -0x8(%ebp),%eax
  307b4b:	a3 88 26 31 00       	mov    %eax,0x312688
  307b50:	c9                   	leave  
  307b51:	c3                   	ret    

00307b52 <get_buffer>:
  307b52:	55                   	push   %ebp
  307b53:	89 e5                	mov    %esp,%ebp
  307b55:	83 ec 10             	sub    $0x10,%esp
  307b58:	c7 45 fc 00 00 00 00 	movl   $0x0,-0x4(%ebp)
  307b5f:	a1 88 26 31 00       	mov    0x312688,%eax
  307b64:	85 c0                	test   %eax,%eax
  307b66:	74 14                	je     307b7c <get_buffer+0x2a>
  307b68:	a1 88 26 31 00       	mov    0x312688,%eax
  307b6d:	89 45 fc             	mov    %eax,-0x4(%ebp)
  307b70:	a1 88 26 31 00       	mov    0x312688,%eax
  307b75:	8b 00                	mov    (%eax),%eax
  307b77:	a3 88 26 31 00       	mov    %eax,0x312688
  307b7c:	8b 45 fc             	mov    -0x4(%ebp),%eax
  307b7f:	c9                   	leave  
  307b80:	c3                   	ret    

00307b81 <free_buffer>:
  307b81:	55                   	push   %ebp
  307b82:	89 e5                	mov    %esp,%ebp
  307b84:	83 ec 08             	sub    $0x8,%esp
  307b87:	83 7d 08 00          	cmpl   $0x0,0x8(%ebp)
  307b8b:	75 10                	jne    307b9d <free_buffer+0x1c>
  307b8d:	83 ec 0c             	sub    $0xc,%esp
  307b90:	68 70 da 30 00       	push   $0x30da70
  307b95:	e8 f2 da ff ff       	call   30568c <panic>
  307b9a:	83 c4 10             	add    $0x10,%esp
  307b9d:	8b 45 08             	mov    0x8(%ebp),%eax
  307ba0:	25 00 f0 ff ff       	and    $0xfffff000,%eax
  307ba5:	89 45 08             	mov    %eax,0x8(%ebp)
  307ba8:	8b 15 88 26 31 00    	mov    0x312688,%edx
  307bae:	8b 45 08             	mov    0x8(%ebp),%eax
  307bb1:	89 10                	mov    %edx,(%eax)
  307bb3:	8b 45 08             	mov    0x8(%ebp),%eax
  307bb6:	a3 88 26 31 00       	mov    %eax,0x312688
  307bbb:	c9                   	leave  
  307bbc:	c3                   	ret    

00307bbd <dobuffer>:
  307bbd:	55                   	push   %ebp
  307bbe:	89 e5                	mov    %esp,%ebp
  307bc0:	83 ec 18             	sub    $0x18,%esp
  307bc3:	c7 45 f4 00 00 00 00 	movl   $0x0,-0xc(%ebp)
  307bca:	81 65 10 ff 0f 00 00 	andl   $0xfff,0x10(%ebp)
  307bd1:	83 7d 08 01          	cmpl   $0x1,0x8(%ebp)
  307bd5:	75 2e                	jne    307c05 <dobuffer+0x48>
  307bd7:	e8 76 ff ff ff       	call   307b52 <get_buffer>
  307bdc:	89 45 f4             	mov    %eax,-0xc(%ebp)
  307bdf:	83 7d f4 00          	cmpl   $0x0,-0xc(%ebp)
  307be3:	74 34                	je     307c19 <dobuffer+0x5c>
  307be5:	83 7d 0c 00          	cmpl   $0x0,0xc(%ebp)
  307be9:	74 2e                	je     307c19 <dobuffer+0x5c>
  307beb:	83 7d 10 00          	cmpl   $0x0,0x10(%ebp)
  307bef:	74 28                	je     307c19 <dobuffer+0x5c>
  307bf1:	8b 45 10             	mov    0x10(%ebp),%eax
  307bf4:	50                   	push   %eax
  307bf5:	ff 75 0c             	pushl  0xc(%ebp)
  307bf8:	ff 75 f4             	pushl  -0xc(%ebp)
  307bfb:	e8 cc fe ff ff       	call   307acc <memcpy>
  307c00:	83 c4 0c             	add    $0xc,%esp
  307c03:	eb 14                	jmp    307c19 <dobuffer+0x5c>
  307c05:	83 7d 08 00          	cmpl   $0x0,0x8(%ebp)
  307c09:	75 0e                	jne    307c19 <dobuffer+0x5c>
  307c0b:	83 ec 0c             	sub    $0xc,%esp
  307c0e:	ff 75 0c             	pushl  0xc(%ebp)
  307c11:	e8 6b ff ff ff       	call   307b81 <free_buffer>
  307c16:	83 c4 10             	add    $0x10,%esp
  307c19:	8b 45 f4             	mov    -0xc(%ebp),%eax
  307c1c:	c9                   	leave  
  307c1d:	c3                   	ret    
  307c1e:	66 90                	xchg   %ax,%ax

00307c20 <bucket_init>:
  307c20:	55                   	push   %ebp
  307c21:	89 e5                	mov    %esp,%ebp
  307c23:	83 ec 18             	sub    $0x18,%esp
  307c26:	e8 2a f6 ff ff       	call   307255 <get_kfree_page>
  307c2b:	89 45 f4             	mov    %eax,-0xc(%ebp)
  307c2e:	8b 45 f4             	mov    -0xc(%ebp),%eax
  307c31:	89 45 ec             	mov    %eax,-0x14(%ebp)
  307c34:	83 7d f4 00          	cmpl   $0x0,-0xc(%ebp)
  307c38:	75 10                	jne    307c4a <bucket_init+0x2a>
  307c3a:	83 ec 0c             	sub    $0xc,%esp
  307c3d:	68 84 da 30 00       	push   $0x30da84
  307c42:	e8 45 da ff ff       	call   30568c <panic>
  307c47:	83 c4 10             	add    $0x10,%esp
  307c4a:	c7 45 f0 00 01 00 00 	movl   $0x100,-0x10(%ebp)
  307c51:	eb 14                	jmp    307c67 <bucket_init+0x47>
  307c53:	8b 45 f4             	mov    -0xc(%ebp),%eax
  307c56:	8d 50 10             	lea    0x10(%eax),%edx
  307c59:	8b 45 f4             	mov    -0xc(%ebp),%eax
  307c5c:	89 50 04             	mov    %edx,0x4(%eax)
  307c5f:	83 45 f4 10          	addl   $0x10,-0xc(%ebp)
  307c63:	83 6d f0 01          	subl   $0x1,-0x10(%ebp)
  307c67:	83 7d f0 01          	cmpl   $0x1,-0x10(%ebp)
  307c6b:	7f e6                	jg     307c53 <bucket_init+0x33>
  307c6d:	8b 15 8c 26 31 00    	mov    0x31268c,%edx
  307c73:	8b 45 f4             	mov    -0xc(%ebp),%eax
  307c76:	89 50 04             	mov    %edx,0x4(%eax)
  307c79:	8b 45 ec             	mov    -0x14(%ebp),%eax
  307c7c:	a3 8c 26 31 00       	mov    %eax,0x31268c
  307c81:	c9                   	leave  
  307c82:	c3                   	ret    

00307c83 <kalloc>:
  307c83:	55                   	push   %ebp
  307c84:	89 e5                	mov    %esp,%ebp
  307c86:	83 ec 28             	sub    $0x28,%esp
  307c89:	c7 45 e4 00 00 00 00 	movl   $0x0,-0x1c(%ebp)
  307c90:	c7 45 f0 00 21 31 00 	movl   $0x312100,-0x10(%ebp)
  307c97:	eb 10                	jmp    307ca9 <kalloc+0x26>
  307c99:	8b 45 f0             	mov    -0x10(%ebp),%eax
  307c9c:	8b 00                	mov    (%eax),%eax
  307c9e:	3b 45 08             	cmp    0x8(%ebp),%eax
  307ca1:	76 02                	jbe    307ca5 <kalloc+0x22>
  307ca3:	eb 0d                	jmp    307cb2 <kalloc+0x2f>
  307ca5:	83 45 f0 08          	addl   $0x8,-0x10(%ebp)
  307ca9:	8b 45 f0             	mov    -0x10(%ebp),%eax
  307cac:	8b 00                	mov    (%eax),%eax
  307cae:	85 c0                	test   %eax,%eax
  307cb0:	75 e7                	jne    307c99 <kalloc+0x16>
  307cb2:	8b 45 f0             	mov    -0x10(%ebp),%eax
  307cb5:	8b 00                	mov    (%eax),%eax
  307cb7:	85 c0                	test   %eax,%eax
  307cb9:	75 10                	jne    307ccb <kalloc+0x48>
  307cbb:	83 ec 0c             	sub    $0xc,%esp
  307cbe:	68 a8 da 30 00       	push   $0x30daa8
  307cc3:	e8 c4 d9 ff ff       	call   30568c <panic>
  307cc8:	83 c4 10             	add    $0x10,%esp
  307ccb:	fa                   	cli    
  307ccc:	8b 45 f0             	mov    -0x10(%ebp),%eax
  307ccf:	8b 40 04             	mov    0x4(%eax),%eax
  307cd2:	89 45 f4             	mov    %eax,-0xc(%ebp)
  307cd5:	eb 15                	jmp    307cec <kalloc+0x69>
  307cd7:	8b 45 f4             	mov    -0xc(%ebp),%eax
  307cda:	8b 40 08             	mov    0x8(%eax),%eax
  307cdd:	85 c0                	test   %eax,%eax
  307cdf:	74 02                	je     307ce3 <kalloc+0x60>
  307ce1:	eb 0f                	jmp    307cf2 <kalloc+0x6f>
  307ce3:	8b 45 f4             	mov    -0xc(%ebp),%eax
  307ce6:	8b 40 04             	mov    0x4(%eax),%eax
  307ce9:	89 45 f4             	mov    %eax,-0xc(%ebp)
  307cec:	83 7d f4 00          	cmpl   $0x0,-0xc(%ebp)
  307cf0:	75 e5                	jne    307cd7 <kalloc+0x54>
  307cf2:	83 7d f4 00          	cmpl   $0x0,-0xc(%ebp)
  307cf6:	0f 85 c8 00 00 00    	jne    307dc4 <kalloc+0x141>
  307cfc:	c7 45 ec 00 00 00 00 	movl   $0x0,-0x14(%ebp)
  307d03:	a1 8c 26 31 00       	mov    0x31268c,%eax
  307d08:	85 c0                	test   %eax,%eax
  307d0a:	75 05                	jne    307d11 <kalloc+0x8e>
  307d0c:	e8 0f ff ff ff       	call   307c20 <bucket_init>
  307d11:	a1 8c 26 31 00       	mov    0x31268c,%eax
  307d16:	89 45 f4             	mov    %eax,-0xc(%ebp)
  307d19:	a1 8c 26 31 00       	mov    0x31268c,%eax
  307d1e:	8b 40 04             	mov    0x4(%eax),%eax
  307d21:	a3 8c 26 31 00       	mov    %eax,0x31268c
  307d26:	8b 45 f4             	mov    -0xc(%ebp),%eax
  307d29:	66 c7 40 0c 00 00    	movw   $0x0,0xc(%eax)
  307d2f:	8b 45 f0             	mov    -0x10(%ebp),%eax
  307d32:	8b 00                	mov    (%eax),%eax
  307d34:	89 c2                	mov    %eax,%edx
  307d36:	8b 45 f4             	mov    -0xc(%ebp),%eax
  307d39:	66 89 50 0e          	mov    %dx,0xe(%eax)
  307d3d:	e8 13 f5 ff ff       	call   307255 <get_kfree_page>
  307d42:	89 45 ec             	mov    %eax,-0x14(%ebp)
  307d45:	8b 45 f4             	mov    -0xc(%ebp),%eax
  307d48:	8b 55 ec             	mov    -0x14(%ebp),%edx
  307d4b:	89 50 08             	mov    %edx,0x8(%eax)
  307d4e:	8b 45 f4             	mov    -0xc(%ebp),%eax
  307d51:	8b 50 08             	mov    0x8(%eax),%edx
  307d54:	8b 45 f4             	mov    -0xc(%ebp),%eax
  307d57:	89 10                	mov    %edx,(%eax)
  307d59:	83 7d ec 00          	cmpl   $0x0,-0x14(%ebp)
  307d5d:	75 10                	jne    307d6f <kalloc+0xec>
  307d5f:	83 ec 0c             	sub    $0xc,%esp
  307d62:	68 c4 da 30 00       	push   $0x30dac4
  307d67:	e8 20 d9 ff ff       	call   30568c <panic>
  307d6c:	83 c4 10             	add    $0x10,%esp
  307d6f:	8b 45 f0             	mov    -0x10(%ebp),%eax
  307d72:	8b 08                	mov    (%eax),%ecx
  307d74:	b8 00 10 00 00       	mov    $0x1000,%eax
  307d79:	ba 00 00 00 00       	mov    $0x0,%edx
  307d7e:	f7 f1                	div    %ecx
  307d80:	89 45 e8             	mov    %eax,-0x18(%ebp)
  307d83:	eb 1b                	jmp    307da0 <kalloc+0x11d>
  307d85:	8b 45 f0             	mov    -0x10(%ebp),%eax
  307d88:	8b 10                	mov    (%eax),%edx
  307d8a:	8b 45 ec             	mov    -0x14(%ebp),%eax
  307d8d:	01 c2                	add    %eax,%edx
  307d8f:	8b 45 ec             	mov    -0x14(%ebp),%eax
  307d92:	89 10                	mov    %edx,(%eax)
  307d94:	8b 45 f0             	mov    -0x10(%ebp),%eax
  307d97:	8b 00                	mov    (%eax),%eax
  307d99:	01 45 ec             	add    %eax,-0x14(%ebp)
  307d9c:	83 6d e8 01          	subl   $0x1,-0x18(%ebp)
  307da0:	83 7d e8 01          	cmpl   $0x1,-0x18(%ebp)
  307da4:	7f df                	jg     307d85 <kalloc+0x102>
  307da6:	8b 45 ec             	mov    -0x14(%ebp),%eax
  307da9:	c7 00 00 00 00 00    	movl   $0x0,(%eax)
  307daf:	8b 45 f0             	mov    -0x10(%ebp),%eax
  307db2:	8b 50 04             	mov    0x4(%eax),%edx
  307db5:	8b 45 f4             	mov    -0xc(%ebp),%eax
  307db8:	89 50 04             	mov    %edx,0x4(%eax)
  307dbb:	8b 45 f0             	mov    -0x10(%ebp),%eax
  307dbe:	8b 55 f4             	mov    -0xc(%ebp),%edx
  307dc1:	89 50 04             	mov    %edx,0x4(%eax)
  307dc4:	8b 45 f4             	mov    -0xc(%ebp),%eax
  307dc7:	8b 40 08             	mov    0x8(%eax),%eax
  307dca:	89 45 e4             	mov    %eax,-0x1c(%ebp)
  307dcd:	8b 45 e4             	mov    -0x1c(%ebp),%eax
  307dd0:	8b 10                	mov    (%eax),%edx
  307dd2:	8b 45 f4             	mov    -0xc(%ebp),%eax
  307dd5:	89 50 08             	mov    %edx,0x8(%eax)
  307dd8:	8b 45 f4             	mov    -0xc(%ebp),%eax
  307ddb:	0f b7 40 0c          	movzwl 0xc(%eax),%eax
  307ddf:	8d 50 01             	lea    0x1(%eax),%edx
  307de2:	8b 45 f4             	mov    -0xc(%ebp),%eax
  307de5:	66 89 50 0c          	mov    %dx,0xc(%eax)
  307de9:	fb                   	sti    
  307dea:	8b 45 e4             	mov    -0x1c(%ebp),%eax
  307ded:	c9                   	leave  
  307dee:	c3                   	ret    

00307def <kfree_s>:
  307def:	55                   	push   %ebp
  307df0:	89 e5                	mov    %esp,%ebp
  307df2:	83 ec 18             	sub    $0x18,%esp
  307df5:	8b 45 08             	mov    0x8(%ebp),%eax
  307df8:	25 00 f0 ff ff       	and    $0xfffff000,%eax
  307dfd:	89 45 e8             	mov    %eax,-0x18(%ebp)
  307e00:	c7 45 f4 00 21 31 00 	movl   $0x312100,-0xc(%ebp)
  307e07:	eb 43                	jmp    307e4c <kfree_s+0x5d>
  307e09:	c7 45 ec 00 00 00 00 	movl   $0x0,-0x14(%ebp)
  307e10:	8b 45 f4             	mov    -0xc(%ebp),%eax
  307e13:	8b 00                	mov    (%eax),%eax
  307e15:	3b 45 0c             	cmp    0xc(%ebp),%eax
  307e18:	73 02                	jae    307e1c <kfree_s+0x2d>
  307e1a:	eb 2c                	jmp    307e48 <kfree_s+0x59>
  307e1c:	8b 45 f4             	mov    -0xc(%ebp),%eax
  307e1f:	8b 40 04             	mov    0x4(%eax),%eax
  307e22:	89 45 f0             	mov    %eax,-0x10(%ebp)
  307e25:	eb 1b                	jmp    307e42 <kfree_s+0x53>
  307e27:	8b 45 f0             	mov    -0x10(%ebp),%eax
  307e2a:	8b 00                	mov    (%eax),%eax
  307e2c:	3b 45 e8             	cmp    -0x18(%ebp),%eax
  307e2f:	75 02                	jne    307e33 <kfree_s+0x44>
  307e31:	eb 45                	jmp    307e78 <kfree_s+0x89>
  307e33:	8b 45 f0             	mov    -0x10(%ebp),%eax
  307e36:	89 45 ec             	mov    %eax,-0x14(%ebp)
  307e39:	8b 45 f0             	mov    -0x10(%ebp),%eax
  307e3c:	8b 40 04             	mov    0x4(%eax),%eax
  307e3f:	89 45 f0             	mov    %eax,-0x10(%ebp)
  307e42:	83 7d f0 00          	cmpl   $0x0,-0x10(%ebp)
  307e46:	75 df                	jne    307e27 <kfree_s+0x38>
  307e48:	83 45 f4 08          	addl   $0x8,-0xc(%ebp)
  307e4c:	8b 45 f4             	mov    -0xc(%ebp),%eax
  307e4f:	8b 00                	mov    (%eax),%eax
  307e51:	85 c0                	test   %eax,%eax
  307e53:	75 b4                	jne    307e09 <kfree_s+0x1a>
  307e55:	83 ec 08             	sub    $0x8,%esp
  307e58:	ff 75 08             	pushl  0x8(%ebp)
  307e5b:	68 e6 da 30 00       	push   $0x30dae6
  307e60:	e8 43 d8 ff ff       	call   3056a8 <printk>
  307e65:	83 c4 10             	add    $0x10,%esp
  307e68:	83 ec 0c             	sub    $0xc,%esp
  307e6b:	68 f0 da 30 00       	push   $0x30daf0
  307e70:	e8 17 d8 ff ff       	call   30568c <panic>
  307e75:	83 c4 10             	add    $0x10,%esp
  307e78:	fa                   	cli    
  307e79:	8b 45 f0             	mov    -0x10(%ebp),%eax
  307e7c:	8b 50 08             	mov    0x8(%eax),%edx
  307e7f:	8b 45 08             	mov    0x8(%ebp),%eax
  307e82:	89 10                	mov    %edx,(%eax)
  307e84:	8b 45 f0             	mov    -0x10(%ebp),%eax
  307e87:	0f b7 40 0c          	movzwl 0xc(%eax),%eax
  307e8b:	8d 50 ff             	lea    -0x1(%eax),%edx
  307e8e:	8b 45 f0             	mov    -0x10(%ebp),%eax
  307e91:	66 89 50 0c          	mov    %dx,0xc(%eax)
  307e95:	8b 45 f0             	mov    -0x10(%ebp),%eax
  307e98:	0f b7 40 0c          	movzwl 0xc(%eax),%eax
  307e9c:	66 85 c0             	test   %ax,%ax
  307e9f:	0f 85 a9 00 00 00    	jne    307f4e <kfree_s+0x15f>
  307ea5:	83 7d ec 00          	cmpl   $0x0,-0x14(%ebp)
  307ea9:	74 0b                	je     307eb6 <kfree_s+0xc7>
  307eab:	8b 45 ec             	mov    -0x14(%ebp),%eax
  307eae:	8b 40 04             	mov    0x4(%eax),%eax
  307eb1:	3b 45 f0             	cmp    -0x10(%ebp),%eax
  307eb4:	75 11                	jne    307ec7 <kfree_s+0xd8>
  307eb6:	83 7d ec 00          	cmpl   $0x0,-0x14(%ebp)
  307eba:	75 32                	jne    307eee <kfree_s+0xff>
  307ebc:	8b 45 f4             	mov    -0xc(%ebp),%eax
  307ebf:	8b 40 04             	mov    0x4(%eax),%eax
  307ec2:	3b 45 f0             	cmp    -0x10(%ebp),%eax
  307ec5:	74 27                	je     307eee <kfree_s+0xff>
  307ec7:	8b 45 f4             	mov    -0xc(%ebp),%eax
  307eca:	8b 40 04             	mov    0x4(%eax),%eax
  307ecd:	89 45 ec             	mov    %eax,-0x14(%ebp)
  307ed0:	eb 16                	jmp    307ee8 <kfree_s+0xf9>
  307ed2:	8b 45 ec             	mov    -0x14(%ebp),%eax
  307ed5:	8b 40 04             	mov    0x4(%eax),%eax
  307ed8:	3b 45 f0             	cmp    -0x10(%ebp),%eax
  307edb:	75 02                	jne    307edf <kfree_s+0xf0>
  307edd:	eb 0f                	jmp    307eee <kfree_s+0xff>
  307edf:	8b 45 ec             	mov    -0x14(%ebp),%eax
  307ee2:	8b 40 04             	mov    0x4(%eax),%eax
  307ee5:	89 45 ec             	mov    %eax,-0x14(%ebp)
  307ee8:	83 7d ec 00          	cmpl   $0x0,-0x14(%ebp)
  307eec:	75 e4                	jne    307ed2 <kfree_s+0xe3>
  307eee:	83 7d ec 00          	cmpl   $0x0,-0x14(%ebp)
  307ef2:	74 0e                	je     307f02 <kfree_s+0x113>
  307ef4:	8b 45 f0             	mov    -0x10(%ebp),%eax
  307ef7:	8b 50 04             	mov    0x4(%eax),%edx
  307efa:	8b 45 ec             	mov    -0x14(%ebp),%eax
  307efd:	89 50 04             	mov    %edx,0x4(%eax)
  307f00:	eb 27                	jmp    307f29 <kfree_s+0x13a>
  307f02:	8b 45 f4             	mov    -0xc(%ebp),%eax
  307f05:	8b 40 04             	mov    0x4(%eax),%eax
  307f08:	3b 45 f0             	cmp    -0x10(%ebp),%eax
  307f0b:	74 10                	je     307f1d <kfree_s+0x12e>
  307f0d:	83 ec 0c             	sub    $0xc,%esp
  307f10:	68 16 db 30 00       	push   $0x30db16
  307f15:	e8 72 d7 ff ff       	call   30568c <panic>
  307f1a:	83 c4 10             	add    $0x10,%esp
  307f1d:	8b 45 f0             	mov    -0x10(%ebp),%eax
  307f20:	8b 50 04             	mov    0x4(%eax),%edx
  307f23:	8b 45 f4             	mov    -0xc(%ebp),%eax
  307f26:	89 50 04             	mov    %edx,0x4(%eax)
  307f29:	8b 45 f0             	mov    -0x10(%ebp),%eax
  307f2c:	8b 00                	mov    (%eax),%eax
  307f2e:	83 ec 0c             	sub    $0xc,%esp
  307f31:	50                   	push   %eax
  307f32:	e8 ea f3 ff ff       	call   307321 <free_page>
  307f37:	83 c4 10             	add    $0x10,%esp
  307f3a:	8b 15 8c 26 31 00    	mov    0x31268c,%edx
  307f40:	8b 45 f0             	mov    -0x10(%ebp),%eax
  307f43:	89 50 04             	mov    %edx,0x4(%eax)
  307f46:	8b 45 f0             	mov    -0x10(%ebp),%eax
  307f49:	a3 8c 26 31 00       	mov    %eax,0x31268c
  307f4e:	fb                   	sti    
  307f4f:	c9                   	leave  
  307f50:	c3                   	ret    
  307f51:	66 90                	xchg   %ax,%ax
  307f53:	90                   	nop

00307f54 <ret>:
  307f54:	55                   	push   %ebp
  307f55:	89 e5                	mov    %esp,%ebp
  307f57:	57                   	push   %edi
  307f58:	56                   	push   %esi
  307f59:	53                   	push   %ebx
  307f5a:	83 ec 10             	sub    $0x10,%esp
  307f5d:	b8 02 00 00 00       	mov    $0x2,%eax
  307f62:	8b 5d 08             	mov    0x8(%ebp),%ebx
  307f65:	8b 4d 0c             	mov    0xc(%ebp),%ecx
  307f68:	ba 00 00 00 00       	mov    $0x0,%edx
  307f6d:	be 00 00 00 00       	mov    $0x0,%esi
  307f72:	bf 00 00 00 00       	mov    $0x0,%edi
  307f77:	cd 80                	int    $0x80
  307f79:	89 45 f0             	mov    %eax,-0x10(%ebp)
  307f7c:	8b 45 f0             	mov    -0x10(%ebp),%eax
  307f7f:	83 c4 10             	add    $0x10,%esp
  307f82:	5b                   	pop    %ebx
  307f83:	5e                   	pop    %esi
  307f84:	5f                   	pop    %edi
  307f85:	5d                   	pop    %ebp
  307f86:	c3                   	ret    

00307f87 <strcpy>:
  307f87:	55                   	push   %ebp
  307f88:	89 e5                	mov    %esp,%ebp
  307f8a:	57                   	push   %edi
  307f8b:	56                   	push   %esi
  307f8c:	8b 55 0c             	mov    0xc(%ebp),%edx
  307f8f:	8b 4d 08             	mov    0x8(%ebp),%ecx
  307f92:	89 d6                	mov    %edx,%esi
  307f94:	89 cf                	mov    %ecx,%edi
  307f96:	fc                   	cld    
  307f97:	ac                   	lods   %ds:(%esi),%al
  307f98:	aa                   	stos   %al,%es:(%edi)
  307f99:	84 c0                	test   %al,%al
  307f9b:	75 fa                	jne    307f97 <strcpy+0x10>
  307f9d:	8b 45 08             	mov    0x8(%ebp),%eax
  307fa0:	5e                   	pop    %esi
  307fa1:	5f                   	pop    %edi
  307fa2:	5d                   	pop    %ebp
  307fa3:	c3                   	ret    

00307fa4 <memcpy>:
  307fa4:	55                   	push   %ebp
  307fa5:	89 e5                	mov    %esp,%ebp
  307fa7:	57                   	push   %edi
  307fa8:	56                   	push   %esi
  307fa9:	53                   	push   %ebx
  307faa:	8b 45 10             	mov    0x10(%ebp),%eax
  307fad:	8b 55 0c             	mov    0xc(%ebp),%edx
  307fb0:	8b 5d 08             	mov    0x8(%ebp),%ebx
  307fb3:	89 c1                	mov    %eax,%ecx
  307fb5:	89 d6                	mov    %edx,%esi
  307fb7:	89 df                	mov    %ebx,%edi
  307fb9:	fc                   	cld    
  307fba:	f3 a4                	rep movsb %ds:(%esi),%es:(%edi)
  307fbc:	8b 45 08             	mov    0x8(%ebp),%eax
  307fbf:	5b                   	pop    %ebx
  307fc0:	5e                   	pop    %esi
  307fc1:	5f                   	pop    %edi
  307fc2:	5d                   	pop    %ebp
  307fc3:	c3                   	ret    

00307fc4 <share_items>:
  307fc4:	55                   	push   %ebp
  307fc5:	89 e5                	mov    %esp,%ebp
  307fc7:	83 ec 18             	sub    $0x18,%esp
  307fca:	c7 45 f4 00 00 00 00 	movl   $0x0,-0xc(%ebp)
  307fd1:	eb 3a                	jmp    30800d <share_items+0x49>
  307fd3:	8b 45 f4             	mov    -0xc(%ebp),%eax
  307fd6:	8d 14 85 00 00 00 00 	lea    0x0(,%eax,4),%edx
  307fdd:	8b 45 08             	mov    0x8(%ebp),%eax
  307fe0:	01 d0                	add    %edx,%eax
  307fe2:	0f b6 00             	movzbl (%eax),%eax
  307fe5:	83 e0 01             	and    $0x1,%eax
  307fe8:	84 c0                	test   %al,%al
  307fea:	74 1d                	je     308009 <share_items+0x45>
  307fec:	8b 45 f4             	mov    -0xc(%ebp),%eax
  307fef:	8d 14 85 00 00 00 00 	lea    0x0(,%eax,4),%edx
  307ff6:	8b 45 08             	mov    0x8(%ebp),%eax
  307ff9:	01 d0                	add    %edx,%eax
  307ffb:	8b 00                	mov    (%eax),%eax
  307ffd:	83 ec 0c             	sub    $0xc,%esp
  308000:	50                   	push   %eax
  308001:	e8 be f2 ff ff       	call   3072c4 <share_page>
  308006:	83 c4 10             	add    $0x10,%esp
  308009:	83 45 f4 01          	addl   $0x1,-0xc(%ebp)
  30800d:	81 7d f4 ff 03 00 00 	cmpl   $0x3ff,-0xc(%ebp)
  308014:	7e bd                	jle    307fd3 <share_items+0xf>
  308016:	c9                   	leave  
  308017:	c3                   	ret    

00308018 <copy_dir>:
  308018:	55                   	push   %ebp
  308019:	89 e5                	mov    %esp,%ebp
  30801b:	57                   	push   %edi
  30801c:	56                   	push   %esi
  30801d:	83 ec 10             	sub    $0x10,%esp
  308020:	c7 45 f0 00 00 00 00 	movl   $0x0,-0x10(%ebp)
  308027:	e8 bd f1 ff ff       	call   3071e9 <get_free_page>
  30802c:	89 45 f0             	mov    %eax,-0x10(%ebp)
  30802f:	83 7d f0 00          	cmpl   $0x0,-0x10(%ebp)
  308033:	75 10                	jne    308045 <copy_dir+0x2d>
  308035:	83 ec 0c             	sub    $0xc,%esp
  308038:	68 30 db 30 00       	push   $0x30db30
  30803d:	e8 4a d6 ff ff       	call   30568c <panic>
  308042:	83 c4 10             	add    $0x10,%esp
  308045:	c7 45 f4 03 00 00 00 	movl   $0x3,-0xc(%ebp)
  30804c:	eb 73                	jmp    3080c1 <copy_dir+0xa9>
  30804e:	8b 45 f4             	mov    -0xc(%ebp),%eax
  308051:	8d 14 85 00 00 00 00 	lea    0x0(,%eax,4),%edx
  308058:	8b 45 08             	mov    0x8(%ebp),%eax
  30805b:	01 d0                	add    %edx,%eax
  30805d:	0f b6 10             	movzbl (%eax),%edx
  308060:	83 e2 fd             	and    $0xfffffffd,%edx
  308063:	88 10                	mov    %dl,(%eax)
  308065:	8b 45 f4             	mov    -0xc(%ebp),%eax
  308068:	8d 14 85 00 00 00 00 	lea    0x0(,%eax,4),%edx
  30806f:	8b 45 08             	mov    0x8(%ebp),%eax
  308072:	01 d0                	add    %edx,%eax
  308074:	0f b6 00             	movzbl (%eax),%eax
  308077:	83 e0 01             	and    $0x1,%eax
  30807a:	84 c0                	test   %al,%al
  30807c:	74 3f                	je     3080bd <copy_dir+0xa5>
  30807e:	8b 45 f4             	mov    -0xc(%ebp),%eax
  308081:	8d 14 85 00 00 00 00 	lea    0x0(,%eax,4),%edx
  308088:	8b 45 08             	mov    0x8(%ebp),%eax
  30808b:	01 d0                	add    %edx,%eax
  30808d:	8b 00                	mov    (%eax),%eax
  30808f:	25 00 f0 ff ff       	and    $0xfffff000,%eax
  308094:	83 ec 0c             	sub    $0xc,%esp
  308097:	50                   	push   %eax
  308098:	e8 27 ff ff ff       	call   307fc4 <share_items>
  30809d:	83 c4 10             	add    $0x10,%esp
  3080a0:	8b 45 f4             	mov    -0xc(%ebp),%eax
  3080a3:	8d 14 85 00 00 00 00 	lea    0x0(,%eax,4),%edx
  3080aa:	8b 45 08             	mov    0x8(%ebp),%eax
  3080ad:	01 d0                	add    %edx,%eax
  3080af:	8b 00                	mov    (%eax),%eax
  3080b1:	83 ec 0c             	sub    $0xc,%esp
  3080b4:	50                   	push   %eax
  3080b5:	e8 0a f2 ff ff       	call   3072c4 <share_page>
  3080ba:	83 c4 10             	add    $0x10,%esp
  3080bd:	83 45 f4 01          	addl   $0x1,-0xc(%ebp)
  3080c1:	81 7d f4 ff 03 00 00 	cmpl   $0x3ff,-0xc(%ebp)
  3080c8:	7e 84                	jle    30804e <copy_dir+0x36>
  3080ca:	8b 45 08             	mov    0x8(%ebp),%eax
  3080cd:	8b 55 f0             	mov    -0x10(%ebp),%edx
  3080d0:	b9 00 04 00 00       	mov    $0x400,%ecx
  3080d5:	89 c6                	mov    %eax,%esi
  3080d7:	89 d7                	mov    %edx,%edi
  3080d9:	fc                   	cld    
  3080da:	f3 a5                	rep movsl %ds:(%esi),%es:(%edi)
  3080dc:	8b 45 f0             	mov    -0x10(%ebp),%eax
  3080df:	8d 65 f8             	lea    -0x8(%ebp),%esp
  3080e2:	5e                   	pop    %esi
  3080e3:	5f                   	pop    %edi
  3080e4:	5d                   	pop    %ebp
  3080e5:	c3                   	ret    

003080e6 <put_item>:
  3080e6:	55                   	push   %ebp
  3080e7:	89 e5                	mov    %esp,%ebp
  3080e9:	8b 45 10             	mov    0x10(%ebp),%eax
  3080ec:	8d 14 85 00 00 00 00 	lea    0x0(,%eax,4),%edx
  3080f3:	8b 45 08             	mov    0x8(%ebp),%eax
  3080f6:	01 d0                	add    %edx,%eax
  3080f8:	8b 55 0c             	mov    0xc(%ebp),%edx
  3080fb:	81 e2 00 f0 ff ff    	and    $0xfffff000,%edx
  308101:	83 ca 07             	or     $0x7,%edx
  308104:	89 10                	mov    %edx,(%eax)
  308106:	5d                   	pop    %ebp
  308107:	c3                   	ret    

00308108 <clone_space>:
  308108:	55                   	push   %ebp
  308109:	89 e5                	mov    %esp,%ebp
  30810b:	57                   	push   %edi
  30810c:	56                   	push   %esi
  30810d:	83 ec 10             	sub    $0x10,%esp
  308110:	c7 45 f4 00 00 00 00 	movl   $0x0,-0xc(%ebp)
  308117:	c7 45 f0 00 00 00 00 	movl   $0x0,-0x10(%ebp)
  30811e:	8b 45 08             	mov    0x8(%ebp),%eax
  308121:	83 c0 04             	add    $0x4,%eax
  308124:	8b 00                	mov    (%eax),%eax
  308126:	25 00 f0 ff ff       	and    $0xfffff000,%eax
  30812b:	89 45 ec             	mov    %eax,-0x14(%ebp)
  30812e:	83 ec 0c             	sub    $0xc,%esp
  308131:	ff 75 08             	pushl  0x8(%ebp)
  308134:	e8 df fe ff ff       	call   308018 <copy_dir>
  308139:	83 c4 10             	add    $0x10,%esp
  30813c:	89 45 f4             	mov    %eax,-0xc(%ebp)
  30813f:	e8 a5 f0 ff ff       	call   3071e9 <get_free_page>
  308144:	89 45 e8             	mov    %eax,-0x18(%ebp)
  308147:	83 7d e8 00          	cmpl   $0x0,-0x18(%ebp)
  30814b:	75 17                	jne    308164 <clone_space+0x5c>
  30814d:	83 ec 04             	sub    $0x4,%esp
  308150:	6a 4f                	push   $0x4f
  308152:	68 4e db 30 00       	push   $0x30db4e
  308157:	68 58 db 30 00       	push   $0x30db58
  30815c:	e8 47 d5 ff ff       	call   3056a8 <printk>
  308161:	83 c4 10             	add    $0x10,%esp
  308164:	8b 45 e8             	mov    -0x18(%ebp),%eax
  308167:	89 45 f0             	mov    %eax,-0x10(%ebp)
  30816a:	8b 45 ec             	mov    -0x14(%ebp),%eax
  30816d:	8b 55 f0             	mov    -0x10(%ebp),%edx
  308170:	b9 00 04 00 00       	mov    $0x400,%ecx
  308175:	89 c6                	mov    %eax,%esi
  308177:	89 d7                	mov    %edx,%edi
  308179:	fc                   	cld    
  30817a:	f3 a5                	rep movsl %ds:(%esi),%es:(%edi)
  30817c:	6a 07                	push   $0x7
  30817e:	68 ff 03 00 00       	push   $0x3ff
  308183:	ff 75 0c             	pushl  0xc(%ebp)
  308186:	ff 75 f0             	pushl  -0x10(%ebp)
  308189:	e8 58 ff ff ff       	call   3080e6 <put_item>
  30818e:	83 c4 10             	add    $0x10,%esp
  308191:	6a 07                	push   $0x7
  308193:	6a 01                	push   $0x1
  308195:	ff 75 f0             	pushl  -0x10(%ebp)
  308198:	ff 75 f4             	pushl  -0xc(%ebp)
  30819b:	e8 46 ff ff ff       	call   3080e6 <put_item>
  3081a0:	83 c4 10             	add    $0x10,%esp
  3081a3:	8b 45 f4             	mov    -0xc(%ebp),%eax
  3081a6:	8d 65 f8             	lea    -0x8(%ebp),%esp
  3081a9:	5e                   	pop    %esi
  3081aa:	5f                   	pop    %edi
  3081ab:	5d                   	pop    %ebp
  3081ac:	c3                   	ret    

003081ad <clone>:
  3081ad:	55                   	push   %ebp
  3081ae:	89 e5                	mov    %esp,%ebp
  3081b0:	83 ec 28             	sub    $0x28,%esp
  3081b3:	8b 45 08             	mov    0x8(%ebp),%eax
  3081b6:	89 45 f4             	mov    %eax,-0xc(%ebp)
  3081b9:	83 7d f4 02          	cmpl   $0x2,-0xc(%ebp)
  3081bd:	7f 18                	jg     3081d7 <clone+0x2a>
  3081bf:	83 7d f4 00          	cmpl   $0x0,-0xc(%ebp)
  3081c3:	78 12                	js     3081d7 <clone+0x2a>
  3081c5:	a1 04 26 31 00       	mov    0x312604,%eax
  3081ca:	8b 55 08             	mov    0x8(%ebp),%edx
  3081cd:	83 c2 08             	add    $0x8,%edx
  3081d0:	8b 44 90 08          	mov    0x8(%eax,%edx,4),%eax
  3081d4:	89 45 f4             	mov    %eax,-0xc(%ebp)
  3081d7:	8b 45 f4             	mov    -0xc(%ebp),%eax
  3081da:	8b 04 85 80 42 31 00 	mov    0x314280(,%eax,4),%eax
  3081e1:	89 45 f0             	mov    %eax,-0x10(%ebp)
  3081e4:	8b 45 f0             	mov    -0x10(%ebp),%eax
  3081e7:	89 45 ec             	mov    %eax,-0x14(%ebp)
  3081ea:	83 ec 0c             	sub    $0xc,%esp
  3081ed:	ff 75 ec             	pushl  -0x14(%ebp)
  3081f0:	e8 09 ef ff ff       	call   3070fe <cloneObject>
  3081f5:	83 c4 10             	add    $0x10,%esp
  3081f8:	89 45 e8             	mov    %eax,-0x18(%ebp)
  3081fb:	8b 45 e8             	mov    -0x18(%ebp),%eax
  3081fe:	89 45 e4             	mov    %eax,-0x1c(%ebp)
  308201:	83 7d e4 00          	cmpl   $0x0,-0x1c(%ebp)
  308205:	75 12                	jne    308219 <clone+0x6c>
  308207:	83 ec 08             	sub    $0x8,%esp
  30820a:	6a f4                	push   $0xfffffff4
  30820c:	ff 75 08             	pushl  0x8(%ebp)
  30820f:	e8 40 fd ff ff       	call   307f54 <ret>
  308214:	83 c4 10             	add    $0x10,%esp
  308217:	eb 5f                	jmp    308278 <clone+0xcb>
  308219:	8b 45 ec             	mov    -0x14(%ebp),%eax
  30821c:	8b 80 b4 00 00 00    	mov    0xb4(%eax),%eax
  308222:	83 ec 08             	sub    $0x8,%esp
  308225:	ff 75 e4             	pushl  -0x1c(%ebp)
  308228:	50                   	push   %eax
  308229:	e8 da fe ff ff       	call   308108 <clone_space>
  30822e:	83 c4 10             	add    $0x10,%esp
  308231:	89 c2                	mov    %eax,%edx
  308233:	8b 45 e4             	mov    -0x1c(%ebp),%eax
  308236:	89 90 b4 00 00 00    	mov    %edx,0xb4(%eax)
  30823c:	8b 45 ec             	mov    -0x14(%ebp),%eax
  30823f:	8b 80 a0 00 00 00    	mov    0xa0(%eax),%eax
  308245:	83 ec 0c             	sub    $0xc,%esp
  308248:	50                   	push   %eax
  308249:	e8 b2 0f 00 00       	call   309200 <copyvm>
  30824e:	83 c4 10             	add    $0x10,%esp
  308251:	8b 45 e4             	mov    -0x1c(%ebp),%eax
  308254:	8b 00                	mov    (%eax),%eax
  308256:	83 ec 08             	sub    $0x8,%esp
  308259:	6a 00                	push   $0x0
  30825b:	50                   	push   %eax
  30825c:	e8 f3 fc ff ff       	call   307f54 <ret>
  308261:	83 c4 10             	add    $0x10,%esp
  308264:	8b 45 e4             	mov    -0x1c(%ebp),%eax
  308267:	8b 00                	mov    (%eax),%eax
  308269:	83 ec 08             	sub    $0x8,%esp
  30826c:	50                   	push   %eax
  30826d:	ff 75 08             	pushl  0x8(%ebp)
  308270:	e8 df fc ff ff       	call   307f54 <ret>
  308275:	83 c4 10             	add    $0x10,%esp
  308278:	c9                   	leave  
  308279:	c3                   	ret    

0030827a <delete_table>:
  30827a:	55                   	push   %ebp
  30827b:	89 e5                	mov    %esp,%ebp
  30827d:	83 ec 18             	sub    $0x18,%esp
  308280:	c7 45 f4 00 00 00 00 	movl   $0x0,-0xc(%ebp)
  308287:	e9 8d 00 00 00       	jmp    308319 <delete_table+0x9f>
  30828c:	8b 45 f4             	mov    -0xc(%ebp),%eax
  30828f:	8d 14 85 00 00 00 00 	lea    0x0(,%eax,4),%edx
  308296:	8b 45 08             	mov    0x8(%ebp),%eax
  308299:	01 d0                	add    %edx,%eax
  30829b:	0f b6 00             	movzbl (%eax),%eax
  30829e:	83 e0 01             	and    $0x1,%eax
  3082a1:	84 c0                	test   %al,%al
  3082a3:	74 70                	je     308315 <delete_table+0x9b>
  3082a5:	8b 45 f4             	mov    -0xc(%ebp),%eax
  3082a8:	8d 14 85 00 00 00 00 	lea    0x0(,%eax,4),%edx
  3082af:	8b 45 08             	mov    0x8(%ebp),%eax
  3082b2:	01 d0                	add    %edx,%eax
  3082b4:	8b 00                	mov    (%eax),%eax
  3082b6:	83 ec 0c             	sub    $0xc,%esp
  3082b9:	50                   	push   %eax
  3082ba:	e8 62 f0 ff ff       	call   307321 <free_page>
  3082bf:	83 c4 10             	add    $0x10,%esp
  3082c2:	89 45 f0             	mov    %eax,-0x10(%ebp)
  3082c5:	83 7d f0 ff          	cmpl   $0xffffffff,-0x10(%ebp)
  3082c9:	75 4a                	jne    308315 <delete_table+0x9b>
  3082cb:	83 ec 04             	sub    $0x4,%esp
  3082ce:	6a 6a                	push   $0x6a
  3082d0:	68 4e db 30 00       	push   $0x30db4e
  3082d5:	68 7c db 30 00       	push   $0x30db7c
  3082da:	e8 c9 d3 ff ff       	call   3056a8 <printk>
  3082df:	83 c4 10             	add    $0x10,%esp
  3082e2:	8b 45 f4             	mov    -0xc(%ebp),%eax
  3082e5:	8d 14 85 00 00 00 00 	lea    0x0(,%eax,4),%edx
  3082ec:	8b 45 08             	mov    0x8(%ebp),%eax
  3082ef:	01 d0                	add    %edx,%eax
  3082f1:	8b 00                	mov    (%eax),%eax
  3082f3:	83 ec 0c             	sub    $0xc,%esp
  3082f6:	6a 6a                	push   $0x6a
  3082f8:	68 4e db 30 00       	push   $0x30db4e
  3082fd:	50                   	push   %eax
  3082fe:	ff 75 f4             	pushl  -0xc(%ebp)
  308301:	68 ac db 30 00       	push   $0x30dbac
  308306:	e8 9d d3 ff ff       	call   3056a8 <printk>
  30830b:	83 c4 20             	add    $0x20,%esp
  30830e:	b8 ff ff ff ff       	mov    $0xffffffff,%eax
  308313:	eb 16                	jmp    30832b <delete_table+0xb1>
  308315:	83 45 f4 01          	addl   $0x1,-0xc(%ebp)
  308319:	81 7d f4 ff 03 00 00 	cmpl   $0x3ff,-0xc(%ebp)
  308320:	0f 8e 66 ff ff ff    	jle    30828c <delete_table+0x12>
  308326:	b8 00 00 00 00       	mov    $0x0,%eax
  30832b:	c9                   	leave  
  30832c:	c3                   	ret    

0030832d <_delete>:
  30832d:	55                   	push   %ebp
  30832e:	89 e5                	mov    %esp,%ebp
  308330:	83 ec 18             	sub    $0x18,%esp
  308333:	c7 45 f4 03 00 00 00 	movl   $0x3,-0xc(%ebp)
  30833a:	e9 bd 00 00 00       	jmp    3083fc <_delete+0xcf>
  30833f:	8b 45 f4             	mov    -0xc(%ebp),%eax
  308342:	8d 14 85 00 00 00 00 	lea    0x0(,%eax,4),%edx
  308349:	8b 45 08             	mov    0x8(%ebp),%eax
  30834c:	01 d0                	add    %edx,%eax
  30834e:	0f b6 00             	movzbl (%eax),%eax
  308351:	83 e0 01             	and    $0x1,%eax
  308354:	84 c0                	test   %al,%al
  308356:	0f 84 9c 00 00 00    	je     3083f8 <_delete+0xcb>
  30835c:	8b 45 f4             	mov    -0xc(%ebp),%eax
  30835f:	8d 14 85 00 00 00 00 	lea    0x0(,%eax,4),%edx
  308366:	8b 45 08             	mov    0x8(%ebp),%eax
  308369:	01 d0                	add    %edx,%eax
  30836b:	8b 00                	mov    (%eax),%eax
  30836d:	25 00 f0 ff ff       	and    $0xfffff000,%eax
  308372:	83 ec 0c             	sub    $0xc,%esp
  308375:	50                   	push   %eax
  308376:	e8 ff fe ff ff       	call   30827a <delete_table>
  30837b:	83 c4 10             	add    $0x10,%esp
  30837e:	83 f8 ff             	cmp    $0xffffffff,%eax
  308381:	74 22                	je     3083a5 <_delete+0x78>
  308383:	8b 45 f4             	mov    -0xc(%ebp),%eax
  308386:	8d 14 85 00 00 00 00 	lea    0x0(,%eax,4),%edx
  30838d:	8b 45 08             	mov    0x8(%ebp),%eax
  308390:	01 d0                	add    %edx,%eax
  308392:	8b 00                	mov    (%eax),%eax
  308394:	83 ec 0c             	sub    $0xc,%esp
  308397:	50                   	push   %eax
  308398:	e8 84 ef ff ff       	call   307321 <free_page>
  30839d:	83 c4 10             	add    $0x10,%esp
  3083a0:	83 f8 ff             	cmp    $0xffffffff,%eax
  3083a3:	75 3c                	jne    3083e1 <_delete+0xb4>
  3083a5:	8b 45 f4             	mov    -0xc(%ebp),%eax
  3083a8:	8d 14 85 00 00 00 00 	lea    0x0(,%eax,4),%edx
  3083af:	8b 45 08             	mov    0x8(%ebp),%eax
  3083b2:	01 d0                	add    %edx,%eax
  3083b4:	8b 00                	mov    (%eax),%eax
  3083b6:	83 ec 0c             	sub    $0xc,%esp
  3083b9:	6a 77                	push   $0x77
  3083bb:	68 4e db 30 00       	push   $0x30db4e
  3083c0:	50                   	push   %eax
  3083c1:	ff 75 f4             	pushl  -0xc(%ebp)
  3083c4:	68 d4 db 30 00       	push   $0x30dbd4
  3083c9:	e8 da d2 ff ff       	call   3056a8 <printk>
  3083ce:	83 c4 20             	add    $0x20,%esp
  3083d1:	83 ec 0c             	sub    $0xc,%esp
  3083d4:	68 fa db 30 00       	push   $0x30dbfa
  3083d9:	e8 ae d2 ff ff       	call   30568c <panic>
  3083de:	83 c4 10             	add    $0x10,%esp
  3083e1:	8b 45 f4             	mov    -0xc(%ebp),%eax
  3083e4:	8d 14 85 00 00 00 00 	lea    0x0(,%eax,4),%edx
  3083eb:	8b 45 08             	mov    0x8(%ebp),%eax
  3083ee:	01 d0                	add    %edx,%eax
  3083f0:	0f b6 10             	movzbl (%eax),%edx
  3083f3:	83 e2 fe             	and    $0xfffffffe,%edx
  3083f6:	88 10                	mov    %dl,(%eax)
  3083f8:	83 45 f4 01          	addl   $0x1,-0xc(%ebp)
  3083fc:	81 7d f4 ff 03 00 00 	cmpl   $0x3ff,-0xc(%ebp)
  308403:	0f 8e 36 ff ff ff    	jle    30833f <_delete+0x12>
  308409:	c9                   	leave  
  30840a:	c3                   	ret    

0030840b <delete>:
  30840b:	55                   	push   %ebp
  30840c:	89 e5                	mov    %esp,%ebp
  30840e:	83 ec 28             	sub    $0x28,%esp
  308411:	8b 45 08             	mov    0x8(%ebp),%eax
  308414:	89 45 f4             	mov    %eax,-0xc(%ebp)
  308417:	83 7d f4 02          	cmpl   $0x2,-0xc(%ebp)
  30841b:	7f 18                	jg     308435 <delete+0x2a>
  30841d:	83 7d f4 00          	cmpl   $0x0,-0xc(%ebp)
  308421:	78 12                	js     308435 <delete+0x2a>
  308423:	a1 04 26 31 00       	mov    0x312604,%eax
  308428:	8b 55 08             	mov    0x8(%ebp),%edx
  30842b:	83 c2 08             	add    $0x8,%edx
  30842e:	8b 44 90 08          	mov    0x8(%eax,%edx,4),%eax
  308432:	89 45 f4             	mov    %eax,-0xc(%ebp)
  308435:	8b 45 f4             	mov    -0xc(%ebp),%eax
  308438:	8b 04 85 80 42 31 00 	mov    0x314280(,%eax,4),%eax
  30843f:	89 45 f0             	mov    %eax,-0x10(%ebp)
  308442:	8b 45 f0             	mov    -0x10(%ebp),%eax
  308445:	89 45 ec             	mov    %eax,-0x14(%ebp)
  308448:	8b 45 ec             	mov    -0x14(%ebp),%eax
  30844b:	8b 80 b4 00 00 00    	mov    0xb4(%eax),%eax
  308451:	89 45 e8             	mov    %eax,-0x18(%ebp)
  308454:	83 ec 0c             	sub    $0xc,%esp
  308457:	ff 75 e8             	pushl  -0x18(%ebp)
  30845a:	e8 ce fe ff ff       	call   30832d <_delete>
  30845f:	83 c4 10             	add    $0x10,%esp
  308462:	8b 45 e8             	mov    -0x18(%ebp),%eax
  308465:	83 ec 0c             	sub    $0xc,%esp
  308468:	50                   	push   %eax
  308469:	e8 b3 ee ff ff       	call   307321 <free_page>
  30846e:	83 c4 10             	add    $0x10,%esp
  308471:	89 45 e4             	mov    %eax,-0x1c(%ebp)
  308474:	83 7d e4 ff          	cmpl   $0xffffffff,-0x1c(%ebp)
  308478:	75 2a                	jne    3084a4 <delete+0x99>
  30847a:	83 ec 04             	sub    $0x4,%esp
  30847d:	68 85 00 00 00       	push   $0x85
  308482:	68 4e db 30 00       	push   $0x30db4e
  308487:	68 0c dc 30 00       	push   $0x30dc0c
  30848c:	e8 17 d2 ff ff       	call   3056a8 <printk>
  308491:	83 c4 10             	add    $0x10,%esp
  308494:	83 ec 0c             	sub    $0xc,%esp
  308497:	68 fa db 30 00       	push   $0x30dbfa
  30849c:	e8 eb d1 ff ff       	call   30568c <panic>
  3084a1:	83 c4 10             	add    $0x10,%esp
  3084a4:	8b 45 ec             	mov    -0x14(%ebp),%eax
  3084a7:	8b 80 a0 00 00 00    	mov    0xa0(%eax),%eax
  3084ad:	83 ec 0c             	sub    $0xc,%esp
  3084b0:	50                   	push   %eax
  3084b1:	e8 be 0c 00 00       	call   309174 <delvm>
  3084b6:	83 c4 10             	add    $0x10,%esp
  3084b9:	8b 45 ec             	mov    -0x14(%ebp),%eax
  3084bc:	c7 80 a0 00 00 00 00 	movl   $0x0,0xa0(%eax)
  3084c3:	00 00 00 
  3084c6:	8b 45 ec             	mov    -0x14(%ebp),%eax
  3084c9:	8b 40 0c             	mov    0xc(%eax),%eax
  3084cc:	83 ec 08             	sub    $0x8,%esp
  3084cf:	ff 75 08             	pushl  0x8(%ebp)
  3084d2:	50                   	push   %eax
  3084d3:	e8 7c fa ff ff       	call   307f54 <ret>
  3084d8:	83 c4 10             	add    $0x10,%esp
  3084db:	c9                   	leave  
  3084dc:	c3                   	ret    

003084dd <put_page>:
  3084dd:	55                   	push   %ebp
  3084de:	89 e5                	mov    %esp,%ebp
  3084e0:	83 ec 18             	sub    $0x18,%esp
  3084e3:	c7 45 f4 00 00 00 00 	movl   $0x0,-0xc(%ebp)
  3084ea:	8b 45 0c             	mov    0xc(%ebp),%eax
  3084ed:	c1 e8 16             	shr    $0x16,%eax
  3084f0:	8d 14 85 00 00 00 00 	lea    0x0(,%eax,4),%edx
  3084f7:	8b 45 08             	mov    0x8(%ebp),%eax
  3084fa:	01 d0                	add    %edx,%eax
  3084fc:	0f b6 00             	movzbl (%eax),%eax
  3084ff:	83 e0 01             	and    $0x1,%eax
  308502:	84 c0                	test   %al,%al
  308504:	75 2c                	jne    308532 <put_page+0x55>
  308506:	e8 de ec ff ff       	call   3071e9 <get_free_page>
  30850b:	89 45 f4             	mov    %eax,-0xc(%ebp)
  30850e:	83 7d f4 00          	cmpl   $0x0,-0xc(%ebp)
  308512:	75 07                	jne    30851b <put_page+0x3e>
  308514:	b8 ff ff ff ff       	mov    $0xffffffff,%eax
  308519:	eb 61                	jmp    30857c <put_page+0x9f>
  30851b:	8b 45 0c             	mov    0xc(%ebp),%eax
  30851e:	c1 e8 16             	shr    $0x16,%eax
  308521:	6a 07                	push   $0x7
  308523:	50                   	push   %eax
  308524:	ff 75 f4             	pushl  -0xc(%ebp)
  308527:	ff 75 08             	pushl  0x8(%ebp)
  30852a:	e8 b7 fb ff ff       	call   3080e6 <put_item>
  30852f:	83 c4 10             	add    $0x10,%esp
  308532:	83 7d 10 00          	cmpl   $0x0,0x10(%ebp)
  308536:	75 07                	jne    30853f <put_page+0x62>
  308538:	b8 ff ff ff ff       	mov    $0xffffffff,%eax
  30853d:	eb 3d                	jmp    30857c <put_page+0x9f>
  30853f:	8b 45 0c             	mov    0xc(%ebp),%eax
  308542:	c1 e8 16             	shr    $0x16,%eax
  308545:	8d 14 85 00 00 00 00 	lea    0x0(,%eax,4),%edx
  30854c:	8b 45 08             	mov    0x8(%ebp),%eax
  30854f:	01 d0                	add    %edx,%eax
  308551:	8b 00                	mov    (%eax),%eax
  308553:	25 00 f0 ff ff       	and    $0xfffff000,%eax
  308558:	89 45 f4             	mov    %eax,-0xc(%ebp)
  30855b:	8b 45 0c             	mov    0xc(%ebp),%eax
  30855e:	c1 e8 0c             	shr    $0xc,%eax
  308561:	25 ff 03 00 00       	and    $0x3ff,%eax
  308566:	6a 07                	push   $0x7
  308568:	50                   	push   %eax
  308569:	ff 75 10             	pushl  0x10(%ebp)
  30856c:	ff 75 f4             	pushl  -0xc(%ebp)
  30856f:	e8 72 fb ff ff       	call   3080e6 <put_item>
  308574:	83 c4 10             	add    $0x10,%esp
  308577:	b8 00 00 00 00       	mov    $0x0,%eax
  30857c:	c9                   	leave  
  30857d:	c3                   	ret    

0030857e <np_page>:
  30857e:	55                   	push   %ebp
  30857f:	89 e5                	mov    %esp,%ebp
  308581:	83 ec 18             	sub    $0x18,%esp
  308584:	8b 45 08             	mov    0x8(%ebp),%eax
  308587:	89 45 f4             	mov    %eax,-0xc(%ebp)
  30858a:	83 7d f4 02          	cmpl   $0x2,-0xc(%ebp)
  30858e:	7f 18                	jg     3085a8 <np_page+0x2a>
  308590:	83 7d f4 00          	cmpl   $0x0,-0xc(%ebp)
  308594:	78 12                	js     3085a8 <np_page+0x2a>
  308596:	a1 04 26 31 00       	mov    0x312604,%eax
  30859b:	8b 55 08             	mov    0x8(%ebp),%edx
  30859e:	83 c2 08             	add    $0x8,%edx
  3085a1:	8b 44 90 08          	mov    0x8(%eax,%edx,4),%eax
  3085a5:	89 45 f4             	mov    %eax,-0xc(%ebp)
  3085a8:	8b 45 f4             	mov    -0xc(%ebp),%eax
  3085ab:	8b 04 85 80 42 31 00 	mov    0x314280(,%eax,4),%eax
  3085b2:	89 45 f0             	mov    %eax,-0x10(%ebp)
  3085b5:	8b 45 f0             	mov    -0x10(%ebp),%eax
  3085b8:	89 45 ec             	mov    %eax,-0x14(%ebp)
  3085bb:	8b 45 ec             	mov    -0x14(%ebp),%eax
  3085be:	8b 80 a0 00 00 00    	mov    0xa0(%eax),%eax
  3085c4:	83 ec 08             	sub    $0x8,%esp
  3085c7:	ff 75 0c             	pushl  0xc(%ebp)
  3085ca:	50                   	push   %eax
  3085cb:	e8 9c 0c 00 00       	call   30926c <dovm>
  3085d0:	83 c4 10             	add    $0x10,%esp
  3085d3:	89 45 e8             	mov    %eax,-0x18(%ebp)
  3085d6:	8b 45 ec             	mov    -0x14(%ebp),%eax
  3085d9:	8b 80 b4 00 00 00    	mov    0xb4(%eax),%eax
  3085df:	83 ec 04             	sub    $0x4,%esp
  3085e2:	ff 75 e8             	pushl  -0x18(%ebp)
  3085e5:	ff 75 0c             	pushl  0xc(%ebp)
  3085e8:	50                   	push   %eax
  3085e9:	e8 ef fe ff ff       	call   3084dd <put_page>
  3085ee:	83 c4 10             	add    $0x10,%esp
  3085f1:	83 ec 08             	sub    $0x8,%esp
  3085f4:	50                   	push   %eax
  3085f5:	ff 75 08             	pushl  0x8(%ebp)
  3085f8:	e8 57 f9 ff ff       	call   307f54 <ret>
  3085fd:	83 c4 10             	add    $0x10,%esp
  308600:	c9                   	leave  
  308601:	c3                   	ret    

00308602 <_un_table>:
  308602:	55                   	push   %ebp
  308603:	89 e5                	mov    %esp,%ebp
  308605:	57                   	push   %edi
  308606:	56                   	push   %esi
  308607:	83 ec 10             	sub    $0x10,%esp
  30860a:	8b 45 0c             	mov    0xc(%ebp),%eax
  30860d:	c1 e8 16             	shr    $0x16,%eax
  308610:	8d 14 85 00 00 00 00 	lea    0x0(,%eax,4),%edx
  308617:	8b 45 08             	mov    0x8(%ebp),%eax
  30861a:	01 d0                	add    %edx,%eax
  30861c:	8b 00                	mov    (%eax),%eax
  30861e:	25 00 f0 ff ff       	and    $0xfffff000,%eax
  308623:	89 45 f4             	mov    %eax,-0xc(%ebp)
  308626:	c7 45 ec 00 00 00 00 	movl   $0x0,-0x14(%ebp)
  30862d:	8b 45 0c             	mov    0xc(%ebp),%eax
  308630:	c1 e8 16             	shr    $0x16,%eax
  308633:	8d 14 85 00 00 00 00 	lea    0x0(,%eax,4),%edx
  30863a:	8b 45 08             	mov    0x8(%ebp),%eax
  30863d:	01 d0                	add    %edx,%eax
  30863f:	0f b6 00             	movzbl (%eax),%eax
  308642:	83 e0 01             	and    $0x1,%eax
  308645:	84 c0                	test   %al,%al
  308647:	75 24                	jne    30866d <_un_table+0x6b>
  308649:	68 a5 00 00 00       	push   $0xa5
  30864e:	68 4e db 30 00       	push   $0x30db4e
  308653:	ff 75 0c             	pushl  0xc(%ebp)
  308656:	68 3c dc 30 00       	push   $0x30dc3c
  30865b:	e8 48 d0 ff ff       	call   3056a8 <printk>
  308660:	83 c4 10             	add    $0x10,%esp
  308663:	b8 00 00 00 00       	mov    $0x0,%eax
  308668:	e9 fc 00 00 00       	jmp    308769 <_un_table+0x167>
  30866d:	c7 45 f0 00 00 00 00 	movl   $0x0,-0x10(%ebp)
  308674:	eb 34                	jmp    3086aa <_un_table+0xa8>
  308676:	8b 45 f0             	mov    -0x10(%ebp),%eax
  308679:	8d 14 85 00 00 00 00 	lea    0x0(,%eax,4),%edx
  308680:	8b 45 f4             	mov    -0xc(%ebp),%eax
  308683:	01 d0                	add    %edx,%eax
  308685:	0f b6 00             	movzbl (%eax),%eax
  308688:	83 e0 01             	and    $0x1,%eax
  30868b:	84 c0                	test   %al,%al
  30868d:	74 17                	je     3086a6 <_un_table+0xa4>
  30868f:	8b 45 f0             	mov    -0x10(%ebp),%eax
  308692:	8d 14 85 00 00 00 00 	lea    0x0(,%eax,4),%edx
  308699:	8b 45 f4             	mov    -0xc(%ebp),%eax
  30869c:	01 d0                	add    %edx,%eax
  30869e:	0f b6 10             	movzbl (%eax),%edx
  3086a1:	83 e2 fd             	and    $0xfffffffd,%edx
  3086a4:	88 10                	mov    %dl,(%eax)
  3086a6:	83 45 f0 01          	addl   $0x1,-0x10(%ebp)
  3086aa:	81 7d f0 ff 03 00 00 	cmpl   $0x3ff,-0x10(%ebp)
  3086b1:	7e c3                	jle    308676 <_un_table+0x74>
  3086b3:	8b 45 0c             	mov    0xc(%ebp),%eax
  3086b6:	c1 e8 16             	shr    $0x16,%eax
  3086b9:	8d 14 85 00 00 00 00 	lea    0x0(,%eax,4),%edx
  3086c0:	8b 45 08             	mov    0x8(%ebp),%eax
  3086c3:	01 d0                	add    %edx,%eax
  3086c5:	8b 00                	mov    (%eax),%eax
  3086c7:	83 ec 0c             	sub    $0xc,%esp
  3086ca:	50                   	push   %eax
  3086cb:	e8 39 ec ff ff       	call   307309 <page_share_nr>
  3086d0:	83 c4 10             	add    $0x10,%esp
  3086d3:	83 f8 01             	cmp    $0x1,%eax
  3086d6:	0f 8e 8a 00 00 00    	jle    308766 <_un_table+0x164>
  3086dc:	8b 45 0c             	mov    0xc(%ebp),%eax
  3086df:	c1 e8 16             	shr    $0x16,%eax
  3086e2:	8d 14 85 00 00 00 00 	lea    0x0(,%eax,4),%edx
  3086e9:	8b 45 08             	mov    0x8(%ebp),%eax
  3086ec:	01 d0                	add    %edx,%eax
  3086ee:	8b 00                	mov    (%eax),%eax
  3086f0:	83 ec 0c             	sub    $0xc,%esp
  3086f3:	50                   	push   %eax
  3086f4:	e8 28 ec ff ff       	call   307321 <free_page>
  3086f9:	83 c4 10             	add    $0x10,%esp
  3086fc:	89 45 e8             	mov    %eax,-0x18(%ebp)
  3086ff:	83 7d e8 ff          	cmpl   $0xffffffff,-0x18(%ebp)
  308703:	75 34                	jne    308739 <_un_table+0x137>
  308705:	83 ec 04             	sub    $0x4,%esp
  308708:	68 b2 00 00 00       	push   $0xb2
  30870d:	68 4e db 30 00       	push   $0x30db4e
  308712:	68 74 dc 30 00       	push   $0x30dc74
  308717:	e8 8c cf ff ff       	call   3056a8 <printk>
  30871c:	83 c4 10             	add    $0x10,%esp
  30871f:	68 b2 00 00 00       	push   $0xb2
  308724:	68 4e db 30 00       	push   $0x30db4e
  308729:	ff 75 0c             	pushl  0xc(%ebp)
  30872c:	68 b8 dc 30 00       	push   $0x30dcb8
  308731:	e8 72 cf ff ff       	call   3056a8 <printk>
  308736:	83 c4 10             	add    $0x10,%esp
  308739:	e8 ab ea ff ff       	call   3071e9 <get_free_page>
  30873e:	89 45 ec             	mov    %eax,-0x14(%ebp)
  308741:	83 7d ec 00          	cmpl   $0x0,-0x14(%ebp)
  308745:	75 07                	jne    30874e <_un_table+0x14c>
  308747:	b8 00 00 00 00       	mov    $0x0,%eax
  30874c:	eb 1b                	jmp    308769 <_un_table+0x167>
  30874e:	8b 45 f4             	mov    -0xc(%ebp),%eax
  308751:	8b 55 ec             	mov    -0x14(%ebp),%edx
  308754:	b9 00 04 00 00       	mov    $0x400,%ecx
  308759:	89 c6                	mov    %eax,%esi
  30875b:	89 d7                	mov    %edx,%edi
  30875d:	fc                   	cld    
  30875e:	f3 a5                	rep movsl %ds:(%esi),%es:(%edi)
  308760:	8b 45 ec             	mov    -0x14(%ebp),%eax
  308763:	89 45 f4             	mov    %eax,-0xc(%ebp)
  308766:	8b 45 f4             	mov    -0xc(%ebp),%eax
  308769:	8d 65 f8             	lea    -0x8(%ebp),%esp
  30876c:	5e                   	pop    %esi
  30876d:	5f                   	pop    %edi
  30876e:	5d                   	pop    %ebp
  30876f:	c3                   	ret    

00308770 <_un_page>:
  308770:	55                   	push   %ebp
  308771:	89 e5                	mov    %esp,%ebp
  308773:	57                   	push   %edi
  308774:	56                   	push   %esi
  308775:	83 ec 10             	sub    $0x10,%esp
  308778:	8b 45 0c             	mov    0xc(%ebp),%eax
  30877b:	c1 e8 0c             	shr    $0xc,%eax
  30877e:	25 ff 03 00 00       	and    $0x3ff,%eax
  308783:	8d 14 85 00 00 00 00 	lea    0x0(,%eax,4),%edx
  30878a:	8b 45 08             	mov    0x8(%ebp),%eax
  30878d:	01 d0                	add    %edx,%eax
  30878f:	8b 00                	mov    (%eax),%eax
  308791:	25 00 f0 ff ff       	and    $0xfffff000,%eax
  308796:	89 45 f4             	mov    %eax,-0xc(%ebp)
  308799:	c7 45 f0 00 00 00 00 	movl   $0x0,-0x10(%ebp)
  3087a0:	8b 45 0c             	mov    0xc(%ebp),%eax
  3087a3:	c1 e8 0c             	shr    $0xc,%eax
  3087a6:	25 ff 03 00 00       	and    $0x3ff,%eax
  3087ab:	8d 14 85 00 00 00 00 	lea    0x0(,%eax,4),%edx
  3087b2:	8b 45 08             	mov    0x8(%ebp),%eax
  3087b5:	01 d0                	add    %edx,%eax
  3087b7:	0f b6 00             	movzbl (%eax),%eax
  3087ba:	83 e0 01             	and    $0x1,%eax
  3087bd:	84 c0                	test   %al,%al
  3087bf:	75 24                	jne    3087e5 <_un_page+0x75>
  3087c1:	68 c1 00 00 00       	push   $0xc1
  3087c6:	68 4e db 30 00       	push   $0x30db4e
  3087cb:	ff 75 0c             	pushl  0xc(%ebp)
  3087ce:	68 fc dc 30 00       	push   $0x30dcfc
  3087d3:	e8 d0 ce ff ff       	call   3056a8 <printk>
  3087d8:	83 c4 10             	add    $0x10,%esp
  3087db:	b8 00 00 00 00       	mov    $0x0,%eax
  3087e0:	e9 c0 00 00 00       	jmp    3088a5 <_un_page+0x135>
  3087e5:	8b 45 0c             	mov    0xc(%ebp),%eax
  3087e8:	c1 e8 0c             	shr    $0xc,%eax
  3087eb:	25 ff 03 00 00       	and    $0x3ff,%eax
  3087f0:	8d 14 85 00 00 00 00 	lea    0x0(,%eax,4),%edx
  3087f7:	8b 45 08             	mov    0x8(%ebp),%eax
  3087fa:	01 d0                	add    %edx,%eax
  3087fc:	8b 00                	mov    (%eax),%eax
  3087fe:	83 ec 0c             	sub    $0xc,%esp
  308801:	50                   	push   %eax
  308802:	e8 02 eb ff ff       	call   307309 <page_share_nr>
  308807:	83 c4 10             	add    $0x10,%esp
  30880a:	83 f8 01             	cmp    $0x1,%eax
  30880d:	0f 8e 8f 00 00 00    	jle    3088a2 <_un_page+0x132>
  308813:	8b 45 0c             	mov    0xc(%ebp),%eax
  308816:	c1 e8 0c             	shr    $0xc,%eax
  308819:	25 ff 03 00 00       	and    $0x3ff,%eax
  30881e:	8d 14 85 00 00 00 00 	lea    0x0(,%eax,4),%edx
  308825:	8b 45 08             	mov    0x8(%ebp),%eax
  308828:	01 d0                	add    %edx,%eax
  30882a:	8b 00                	mov    (%eax),%eax
  30882c:	83 ec 0c             	sub    $0xc,%esp
  30882f:	50                   	push   %eax
  308830:	e8 ec ea ff ff       	call   307321 <free_page>
  308835:	83 c4 10             	add    $0x10,%esp
  308838:	89 45 ec             	mov    %eax,-0x14(%ebp)
  30883b:	83 7d ec ff          	cmpl   $0xffffffff,-0x14(%ebp)
  30883f:	75 34                	jne    308875 <_un_page+0x105>
  308841:	83 ec 04             	sub    $0x4,%esp
  308844:	68 c8 00 00 00       	push   $0xc8
  308849:	68 4e db 30 00       	push   $0x30db4e
  30884e:	68 28 dd 30 00       	push   $0x30dd28
  308853:	e8 50 ce ff ff       	call   3056a8 <printk>
  308858:	83 c4 10             	add    $0x10,%esp
  30885b:	68 c8 00 00 00       	push   $0xc8
  308860:	68 4e db 30 00       	push   $0x30db4e
  308865:	ff 75 0c             	pushl  0xc(%ebp)
  308868:	68 b8 dc 30 00       	push   $0x30dcb8
  30886d:	e8 36 ce ff ff       	call   3056a8 <printk>
  308872:	83 c4 10             	add    $0x10,%esp
  308875:	e8 6f e9 ff ff       	call   3071e9 <get_free_page>
  30887a:	89 45 f0             	mov    %eax,-0x10(%ebp)
  30887d:	83 7d f0 00          	cmpl   $0x0,-0x10(%ebp)
  308881:	75 07                	jne    30888a <_un_page+0x11a>
  308883:	b8 00 00 00 00       	mov    $0x0,%eax
  308888:	eb 1b                	jmp    3088a5 <_un_page+0x135>
  30888a:	8b 45 f4             	mov    -0xc(%ebp),%eax
  30888d:	8b 55 f0             	mov    -0x10(%ebp),%edx
  308890:	b9 00 04 00 00       	mov    $0x400,%ecx
  308895:	89 c6                	mov    %eax,%esi
  308897:	89 d7                	mov    %edx,%edi
  308899:	fc                   	cld    
  30889a:	f3 a5                	rep movsl %ds:(%esi),%es:(%edi)
  30889c:	8b 45 f0             	mov    -0x10(%ebp),%eax
  30889f:	89 45 f4             	mov    %eax,-0xc(%ebp)
  3088a2:	8b 45 f4             	mov    -0xc(%ebp),%eax
  3088a5:	8d 65 f8             	lea    -0x8(%ebp),%esp
  3088a8:	5e                   	pop    %esi
  3088a9:	5f                   	pop    %edi
  3088aa:	5d                   	pop    %ebp
  3088ab:	c3                   	ret    

003088ac <nw_page>:
  3088ac:	55                   	push   %ebp
  3088ad:	89 e5                	mov    %esp,%ebp
  3088af:	83 ec 28             	sub    $0x28,%esp
  3088b2:	8b 45 08             	mov    0x8(%ebp),%eax
  3088b5:	89 45 f4             	mov    %eax,-0xc(%ebp)
  3088b8:	83 7d f4 02          	cmpl   $0x2,-0xc(%ebp)
  3088bc:	7f 18                	jg     3088d6 <nw_page+0x2a>
  3088be:	83 7d f4 00          	cmpl   $0x0,-0xc(%ebp)
  3088c2:	78 12                	js     3088d6 <nw_page+0x2a>
  3088c4:	a1 04 26 31 00       	mov    0x312604,%eax
  3088c9:	8b 55 08             	mov    0x8(%ebp),%edx
  3088cc:	83 c2 08             	add    $0x8,%edx
  3088cf:	8b 44 90 08          	mov    0x8(%eax,%edx,4),%eax
  3088d3:	89 45 f4             	mov    %eax,-0xc(%ebp)
  3088d6:	8b 45 f4             	mov    -0xc(%ebp),%eax
  3088d9:	8b 04 85 80 42 31 00 	mov    0x314280(,%eax,4),%eax
  3088e0:	89 45 f0             	mov    %eax,-0x10(%ebp)
  3088e3:	8b 45 f0             	mov    -0x10(%ebp),%eax
  3088e6:	89 45 ec             	mov    %eax,-0x14(%ebp)
  3088e9:	8b 45 ec             	mov    -0x14(%ebp),%eax
  3088ec:	8b 80 b4 00 00 00    	mov    0xb4(%eax),%eax
  3088f2:	83 ec 08             	sub    $0x8,%esp
  3088f5:	ff 75 0c             	pushl  0xc(%ebp)
  3088f8:	50                   	push   %eax
  3088f9:	e8 04 fd ff ff       	call   308602 <_un_table>
  3088fe:	83 c4 10             	add    $0x10,%esp
  308901:	89 45 e8             	mov    %eax,-0x18(%ebp)
  308904:	83 7d e8 00          	cmpl   $0x0,-0x18(%ebp)
  308908:	75 10                	jne    30891a <nw_page+0x6e>
  30890a:	83 ec 08             	sub    $0x8,%esp
  30890d:	6a ff                	push   $0xffffffff
  30890f:	ff 75 08             	pushl  0x8(%ebp)
  308912:	e8 3d f6 ff ff       	call   307f54 <ret>
  308917:	83 c4 10             	add    $0x10,%esp
  30891a:	8b 45 0c             	mov    0xc(%ebp),%eax
  30891d:	c1 e8 16             	shr    $0x16,%eax
  308920:	89 c2                	mov    %eax,%edx
  308922:	8b 45 ec             	mov    -0x14(%ebp),%eax
  308925:	8b 80 b4 00 00 00    	mov    0xb4(%eax),%eax
  30892b:	6a 07                	push   $0x7
  30892d:	52                   	push   %edx
  30892e:	ff 75 e8             	pushl  -0x18(%ebp)
  308931:	50                   	push   %eax
  308932:	e8 af f7 ff ff       	call   3080e6 <put_item>
  308937:	83 c4 10             	add    $0x10,%esp
  30893a:	83 ec 08             	sub    $0x8,%esp
  30893d:	ff 75 0c             	pushl  0xc(%ebp)
  308940:	ff 75 e8             	pushl  -0x18(%ebp)
  308943:	e8 28 fe ff ff       	call   308770 <_un_page>
  308948:	83 c4 10             	add    $0x10,%esp
  30894b:	89 45 e4             	mov    %eax,-0x1c(%ebp)
  30894e:	83 7d e4 00          	cmpl   $0x0,-0x1c(%ebp)
  308952:	75 10                	jne    308964 <nw_page+0xb8>
  308954:	83 ec 08             	sub    $0x8,%esp
  308957:	6a ff                	push   $0xffffffff
  308959:	ff 75 08             	pushl  0x8(%ebp)
  30895c:	e8 f3 f5 ff ff       	call   307f54 <ret>
  308961:	83 c4 10             	add    $0x10,%esp
  308964:	8b 45 0c             	mov    0xc(%ebp),%eax
  308967:	c1 e8 0c             	shr    $0xc,%eax
  30896a:	25 ff 03 00 00       	and    $0x3ff,%eax
  30896f:	6a 07                	push   $0x7
  308971:	50                   	push   %eax
  308972:	ff 75 e4             	pushl  -0x1c(%ebp)
  308975:	ff 75 e8             	pushl  -0x18(%ebp)
  308978:	e8 69 f7 ff ff       	call   3080e6 <put_item>
  30897d:	83 c4 10             	add    $0x10,%esp
  308980:	83 ec 08             	sub    $0x8,%esp
  308983:	6a 00                	push   $0x0
  308985:	ff 75 08             	pushl  0x8(%ebp)
  308988:	e8 c7 f5 ff ff       	call   307f54 <ret>
  30898d:	83 c4 10             	add    $0x10,%esp
  308990:	c9                   	leave  
  308991:	c3                   	ret    

00308992 <__va>:
  308992:	55                   	push   %ebp
  308993:	89 e5                	mov    %esp,%ebp
  308995:	83 ec 10             	sub    $0x10,%esp
  308998:	8b 45 0c             	mov    0xc(%ebp),%eax
  30899b:	c1 e8 16             	shr    $0x16,%eax
  30899e:	8d 14 85 00 00 00 00 	lea    0x0(,%eax,4),%edx
  3089a5:	8b 45 08             	mov    0x8(%ebp),%eax
  3089a8:	01 d0                	add    %edx,%eax
  3089aa:	8b 00                	mov    (%eax),%eax
  3089ac:	25 00 f0 ff ff       	and    $0xfffff000,%eax
  3089b1:	89 45 fc             	mov    %eax,-0x4(%ebp)
  3089b4:	8b 45 0c             	mov    0xc(%ebp),%eax
  3089b7:	c1 e8 0c             	shr    $0xc,%eax
  3089ba:	25 ff 03 00 00       	and    $0x3ff,%eax
  3089bf:	8d 14 85 00 00 00 00 	lea    0x0(,%eax,4),%edx
  3089c6:	8b 45 fc             	mov    -0x4(%ebp),%eax
  3089c9:	01 d0                	add    %edx,%eax
  3089cb:	8b 00                	mov    (%eax),%eax
  3089cd:	25 00 f0 ff ff       	and    $0xfffff000,%eax
  3089d2:	89 c2                	mov    %eax,%edx
  3089d4:	8b 45 0c             	mov    0xc(%ebp),%eax
  3089d7:	25 ff 0f 00 00       	and    $0xfff,%eax
  3089dc:	01 d0                	add    %edx,%eax
  3089de:	c9                   	leave  
  3089df:	c3                   	ret    

003089e0 <mm_execvp>:
  3089e0:	55                   	push   %ebp
  3089e1:	89 e5                	mov    %esp,%ebp
  3089e3:	83 ec 28             	sub    $0x28,%esp
  3089e6:	8b 45 08             	mov    0x8(%ebp),%eax
  3089e9:	89 45 f4             	mov    %eax,-0xc(%ebp)
  3089ec:	83 7d f4 02          	cmpl   $0x2,-0xc(%ebp)
  3089f0:	7f 18                	jg     308a0a <mm_execvp+0x2a>
  3089f2:	83 7d f4 00          	cmpl   $0x0,-0xc(%ebp)
  3089f6:	78 12                	js     308a0a <mm_execvp+0x2a>
  3089f8:	a1 04 26 31 00       	mov    0x312604,%eax
  3089fd:	8b 55 08             	mov    0x8(%ebp),%edx
  308a00:	83 c2 08             	add    $0x8,%edx
