
objs/bin/nosh:     file format elf32-i386


Disassembly of section .text:

00c00000 <memcpy>:
  c00000:	55                   	push   %ebp
  c00001:	89 e5                	mov    %esp,%ebp
  c00003:	57                   	push   %edi
  c00004:	56                   	push   %esi
  c00005:	53                   	push   %ebx
  c00006:	8b 45 10             	mov    0x10(%ebp),%eax
  c00009:	8b 55 0c             	mov    0xc(%ebp),%edx
  c0000c:	8b 5d 08             	mov    0x8(%ebp),%ebx
  c0000f:	89 c1                	mov    %eax,%ecx
  c00011:	89 d6                	mov    %edx,%esi
  c00013:	89 df                	mov    %ebx,%edi
  c00015:	fc                   	cld    
  c00016:	f3 a4                	rep movsb %ds:(%esi),%es:(%edi)
  c00018:	8b 45 08             	mov    0x8(%ebp),%eax
  c0001b:	5b                   	pop    %ebx
  c0001c:	5e                   	pop    %esi
  c0001d:	5f                   	pop    %edi
  c0001e:	5d                   	pop    %ebp
  c0001f:	c3                   	ret    

00c00020 <newList>:
  c00020:	55                   	push   %ebp
  c00021:	89 e5                	mov    %esp,%ebp
  c00023:	83 ec 18             	sub    $0x18,%esp
  c00026:	83 7d 08 00          	cmpl   $0x0,0x8(%ebp)
  c0002a:	74 2d                	je     c00059 <newList+0x39>
  c0002c:	8b 45 08             	mov    0x8(%ebp),%eax
  c0002f:	8b 00                	mov    (%eax),%eax
  c00031:	83 f8 02             	cmp    $0x2,%eax
  c00034:	74 23                	je     c00059 <newList+0x39>
  c00036:	8b 45 08             	mov    0x8(%ebp),%eax
  c00039:	89 45 e8             	mov    %eax,-0x18(%ebp)
  c0003c:	c7 45 ec 00 00 00 00 	movl   $0x0,-0x14(%ebp)
  c00043:	83 ec 04             	sub    $0x4,%esp
  c00046:	ff 75 ec             	pushl  -0x14(%ebp)
  c00049:	ff 75 e8             	pushl  -0x18(%ebp)
  c0004c:	6a 02                	push   $0x2
  c0004e:	e8 5d 20 00 00       	call   c020b0 <newObject>
  c00053:	83 c4 10             	add    $0x10,%esp
  c00056:	89 45 08             	mov    %eax,0x8(%ebp)
  c00059:	c7 45 f0 00 00 00 00 	movl   $0x0,-0x10(%ebp)
  c00060:	c7 45 f4 00 00 00 00 	movl   $0x0,-0xc(%ebp)
  c00067:	8b 45 08             	mov    0x8(%ebp),%eax
  c0006a:	89 45 f0             	mov    %eax,-0x10(%ebp)
  c0006d:	83 ec 04             	sub    $0x4,%esp
  c00070:	ff 75 f4             	pushl  -0xc(%ebp)
  c00073:	ff 75 f0             	pushl  -0x10(%ebp)
  c00076:	6a 03                	push   $0x3
  c00078:	e8 33 20 00 00       	call   c020b0 <newObject>
  c0007d:	83 c4 10             	add    $0x10,%esp
  c00080:	c9                   	leave  
  c00081:	c3                   	ret    

00c00082 <yydestruct>:
  c00082:	55                   	push   %ebp
  c00083:	89 e5                	mov    %esp,%ebp
  c00085:	83 7d 08 00          	cmpl   $0x0,0x8(%ebp)
  c00089:	75 07                	jne    c00092 <yydestruct+0x10>
  c0008b:	c7 45 08 17 44 c0 00 	movl   $0xc04417,0x8(%ebp)
  c00092:	90                   	nop
  c00093:	5d                   	pop    %ebp
  c00094:	c3                   	ret    

00c00095 <yyparse>:
  c00095:	55                   	push   %ebp
  c00096:	89 e5                	mov    %esp,%ebp
  c00098:	81 ec 28 05 00 00    	sub    $0x528,%esp
  c0009e:	c7 45 d0 00 00 00 00 	movl   $0x0,-0x30(%ebp)
  c000a5:	c7 45 cc 00 00 00 00 	movl   $0x0,-0x34(%ebp)
  c000ac:	8d 85 00 fe ff ff    	lea    -0x200(%ebp),%eax
  c000b2:	89 45 ec             	mov    %eax,-0x14(%ebp)
  c000b5:	8b 45 ec             	mov    -0x14(%ebp),%eax
  c000b8:	89 45 e8             	mov    %eax,-0x18(%ebp)
  c000bb:	8d 85 e0 fa ff ff    	lea    -0x520(%ebp),%eax
  c000c1:	89 45 e4             	mov    %eax,-0x1c(%ebp)
  c000c4:	8b 45 e4             	mov    -0x1c(%ebp),%eax
  c000c7:	89 45 e0             	mov    %eax,-0x20(%ebp)
  c000ca:	c7 45 dc c8 00 00 00 	movl   $0xc8,-0x24(%ebp)
  c000d1:	c7 45 f4 00 00 00 00 	movl   $0x0,-0xc(%ebp)
  c000d8:	c7 45 f0 00 00 00 00 	movl   $0x0,-0x10(%ebp)
  c000df:	c7 05 c8 59 c2 00 00 	movl   $0x0,0xc259c8
  c000e6:	00 00 00 
  c000e9:	c7 05 d0 59 c2 00 fe 	movl   $0xfffffffe,0xc259d0
  c000f0:	ff ff ff 
  c000f3:	eb 04                	jmp    c000f9 <yyparse+0x64>
  c000f5:	83 45 e8 02          	addl   $0x2,-0x18(%ebp)
  c000f9:	8b 45 f4             	mov    -0xc(%ebp),%eax
  c000fc:	89 c2                	mov    %eax,%edx
  c000fe:	8b 45 e8             	mov    -0x18(%ebp),%eax
  c00101:	66 89 10             	mov    %dx,(%eax)
  c00104:	8b 45 dc             	mov    -0x24(%ebp),%eax
  c00107:	05 ff ff ff 7f       	add    $0x7fffffff,%eax
  c0010c:	8d 14 00             	lea    (%eax,%eax,1),%edx
  c0010f:	8b 45 ec             	mov    -0x14(%ebp),%eax
  c00112:	01 d0                	add    %edx,%eax
  c00114:	3b 45 e8             	cmp    -0x18(%ebp),%eax
  c00117:	0f 87 25 01 00 00    	ja     c00242 <yyparse+0x1ad>
  c0011d:	8b 55 e8             	mov    -0x18(%ebp),%edx
  c00120:	8b 45 ec             	mov    -0x14(%ebp),%eax
  c00123:	29 c2                	sub    %eax,%edx
  c00125:	89 d0                	mov    %edx,%eax
  c00127:	d1 f8                	sar    %eax
  c00129:	83 c0 01             	add    $0x1,%eax
  c0012c:	89 45 c8             	mov    %eax,-0x38(%ebp)
  c0012f:	81 7d dc 0f 27 00 00 	cmpl   $0x270f,-0x24(%ebp)
  c00136:	76 05                	jbe    c0013d <yyparse+0xa8>
  c00138:	e9 d3 05 00 00       	jmp    c00710 <yyparse+0x67b>
  c0013d:	d1 65 dc             	shll   -0x24(%ebp)
  c00140:	81 7d dc 10 27 00 00 	cmpl   $0x2710,-0x24(%ebp)
  c00147:	76 07                	jbe    c00150 <yyparse+0xbb>
  c00149:	c7 45 dc 10 27 00 00 	movl   $0x2710,-0x24(%ebp)
  c00150:	8b 45 ec             	mov    -0x14(%ebp),%eax
  c00153:	89 45 c4             	mov    %eax,-0x3c(%ebp)
  c00156:	8b 55 dc             	mov    -0x24(%ebp),%edx
  c00159:	89 d0                	mov    %edx,%eax
  c0015b:	01 c0                	add    %eax,%eax
  c0015d:	01 d0                	add    %edx,%eax
  c0015f:	01 c0                	add    %eax,%eax
  c00161:	83 c0 03             	add    $0x3,%eax
  c00164:	83 ec 0c             	sub    $0xc,%esp
  c00167:	50                   	push   %eax
  c00168:	e8 ea 38 00 00       	call   c03a57 <malloc>
  c0016d:	83 c4 10             	add    $0x10,%esp
  c00170:	89 45 c0             	mov    %eax,-0x40(%ebp)
  c00173:	83 7d c0 00          	cmpl   $0x0,-0x40(%ebp)
  c00177:	75 05                	jne    c0017e <yyparse+0xe9>
  c00179:	e9 92 05 00 00       	jmp    c00710 <yyparse+0x67b>
  c0017e:	8b 55 c8             	mov    -0x38(%ebp),%edx
  c00181:	8b 45 c0             	mov    -0x40(%ebp),%eax
  c00184:	83 ec 04             	sub    $0x4,%esp
  c00187:	52                   	push   %edx
  c00188:	ff 75 ec             	pushl  -0x14(%ebp)
  c0018b:	50                   	push   %eax
  c0018c:	e8 6f fe ff ff       	call   c00000 <memcpy>
  c00191:	83 c4 10             	add    $0x10,%esp
  c00194:	8b 45 c0             	mov    -0x40(%ebp),%eax
  c00197:	89 45 ec             	mov    %eax,-0x14(%ebp)
  c0019a:	8b 45 dc             	mov    -0x24(%ebp),%eax
  c0019d:	01 c0                	add    %eax,%eax
  c0019f:	83 c0 03             	add    $0x3,%eax
  c001a2:	89 45 bc             	mov    %eax,-0x44(%ebp)
  c001a5:	8b 45 bc             	mov    -0x44(%ebp),%eax
  c001a8:	c1 e8 02             	shr    $0x2,%eax
  c001ab:	c1 e0 02             	shl    $0x2,%eax
  c001ae:	01 45 c0             	add    %eax,-0x40(%ebp)
  c001b1:	8b 55 c8             	mov    -0x38(%ebp),%edx
  c001b4:	8b 45 c0             	mov    -0x40(%ebp),%eax
  c001b7:	83 ec 04             	sub    $0x4,%esp
  c001ba:	52                   	push   %edx
  c001bb:	ff 75 e4             	pushl  -0x1c(%ebp)
  c001be:	50                   	push   %eax
  c001bf:	e8 3c fe ff ff       	call   c00000 <memcpy>
  c001c4:	83 c4 10             	add    $0x10,%esp
  c001c7:	8b 45 c0             	mov    -0x40(%ebp),%eax
  c001ca:	89 45 e4             	mov    %eax,-0x1c(%ebp)
  c001cd:	8b 45 dc             	mov    -0x24(%ebp),%eax
  c001d0:	c1 e0 02             	shl    $0x2,%eax
  c001d3:	83 c0 03             	add    $0x3,%eax
  c001d6:	89 45 b8             	mov    %eax,-0x48(%ebp)
  c001d9:	8b 45 b8             	mov    -0x48(%ebp),%eax
  c001dc:	c1 e8 02             	shr    $0x2,%eax
  c001df:	c1 e0 02             	shl    $0x2,%eax
  c001e2:	01 45 c0             	add    %eax,-0x40(%ebp)
  c001e5:	8d 85 00 fe ff ff    	lea    -0x200(%ebp),%eax
  c001eb:	39 45 c4             	cmp    %eax,-0x3c(%ebp)
  c001ee:	74 0e                	je     c001fe <yyparse+0x169>
  c001f0:	83 ec 0c             	sub    $0xc,%esp
  c001f3:	ff 75 c4             	pushl  -0x3c(%ebp)
  c001f6:	e8 af 36 00 00       	call   c038aa <free>
  c001fb:	83 c4 10             	add    $0x10,%esp
  c001fe:	8b 45 c8             	mov    -0x38(%ebp),%eax
  c00201:	05 ff ff ff 7f       	add    $0x7fffffff,%eax
  c00206:	8d 14 00             	lea    (%eax,%eax,1),%edx
  c00209:	8b 45 ec             	mov    -0x14(%ebp),%eax
  c0020c:	01 d0                	add    %edx,%eax
  c0020e:	89 45 e8             	mov    %eax,-0x18(%ebp)
  c00211:	8b 45 c8             	mov    -0x38(%ebp),%eax
  c00214:	05 ff ff ff 3f       	add    $0x3fffffff,%eax
  c00219:	8d 14 85 00 00 00 00 	lea    0x0(,%eax,4),%edx
  c00220:	8b 45 e4             	mov    -0x1c(%ebp),%eax
  c00223:	01 d0                	add    %edx,%eax
  c00225:	89 45 e0             	mov    %eax,-0x20(%ebp)
  c00228:	8b 45 dc             	mov    -0x24(%ebp),%eax
  c0022b:	05 ff ff ff 7f       	add    $0x7fffffff,%eax
  c00230:	8d 14 00             	lea    (%eax,%eax,1),%edx
  c00233:	8b 45 ec             	mov    -0x14(%ebp),%eax
  c00236:	01 d0                	add    %edx,%eax
  c00238:	3b 45 e8             	cmp    -0x18(%ebp),%eax
  c0023b:	77 05                	ja     c00242 <yyparse+0x1ad>
  c0023d:	e9 c5 04 00 00       	jmp    c00707 <yyparse+0x672>
  c00242:	83 7d f4 0e          	cmpl   $0xe,-0xc(%ebp)
  c00246:	75 0d                	jne    c00255 <yyparse+0x1c0>
  c00248:	90                   	nop
  c00249:	c7 45 d4 00 00 00 00 	movl   $0x0,-0x2c(%ebp)
  c00250:	e9 d2 04 00 00       	jmp    c00727 <yyparse+0x692>
  c00255:	90                   	nop
  c00256:	8b 45 f4             	mov    -0xc(%ebp),%eax
  c00259:	05 b9 43 c0 00       	add    $0xc043b9,%eax
  c0025e:	0f b6 00             	movzbl (%eax),%eax
  c00261:	0f be c0             	movsbl %al,%eax
  c00264:	89 45 d8             	mov    %eax,-0x28(%ebp)
  c00267:	83 7d d8 f6          	cmpl   $0xfffffff6,-0x28(%ebp)
  c0026b:	75 05                	jne    c00272 <yyparse+0x1dd>
  c0026d:	e9 c2 00 00 00       	jmp    c00334 <yyparse+0x29f>
  c00272:	a1 d0 59 c2 00       	mov    0xc259d0,%eax
  c00277:	83 f8 fe             	cmp    $0xfffffffe,%eax
  c0027a:	75 0a                	jne    c00286 <yyparse+0x1f1>
  c0027c:	e8 54 06 00 00       	call   c008d5 <yylex>
  c00281:	a3 d0 59 c2 00       	mov    %eax,0xc259d0
  c00286:	a1 d0 59 c2 00       	mov    0xc259d0,%eax
  c0028b:	85 c0                	test   %eax,%eax
  c0028d:	7f 11                	jg     c002a0 <yyparse+0x20b>
  c0028f:	c7 45 d0 00 00 00 00 	movl   $0x0,-0x30(%ebp)
  c00296:	8b 45 d0             	mov    -0x30(%ebp),%eax
  c00299:	a3 d0 59 c2 00       	mov    %eax,0xc259d0
  c0029e:	eb 25                	jmp    c002c5 <yyparse+0x230>
  c002a0:	a1 d0 59 c2 00       	mov    0xc259d0,%eax
  c002a5:	3d 04 01 00 00       	cmp    $0x104,%eax
  c002aa:	77 11                	ja     c002bd <yyparse+0x228>
  c002ac:	a1 d0 59 c2 00       	mov    0xc259d0,%eax
  c002b1:	0f b6 80 80 42 c0 00 	movzbl 0xc04280(%eax),%eax
  c002b8:	0f b6 c0             	movzbl %al,%eax
  c002bb:	eb 05                	jmp    c002c2 <yyparse+0x22d>
  c002bd:	b8 02 00 00 00       	mov    $0x2,%eax
  c002c2:	89 45 d0             	mov    %eax,-0x30(%ebp)
  c002c5:	8b 45 d0             	mov    -0x30(%ebp),%eax
  c002c8:	01 45 d8             	add    %eax,-0x28(%ebp)
  c002cb:	83 7d d8 00          	cmpl   $0x0,-0x28(%ebp)
  c002cf:	78 63                	js     c00334 <yyparse+0x29f>
  c002d1:	83 7d d8 19          	cmpl   $0x19,-0x28(%ebp)
  c002d5:	7f 5d                	jg     c00334 <yyparse+0x29f>
  c002d7:	8b 45 d8             	mov    -0x28(%ebp),%eax
  c002da:	05 eb 43 c0 00       	add    $0xc043eb,%eax
  c002df:	0f b6 00             	movzbl (%eax),%eax
  c002e2:	0f be c0             	movsbl %al,%eax
  c002e5:	3b 45 d0             	cmp    -0x30(%ebp),%eax
  c002e8:	75 4a                	jne    c00334 <yyparse+0x29f>
  c002ea:	8b 45 d8             	mov    -0x28(%ebp),%eax
  c002ed:	05 d1 43 c0 00       	add    $0xc043d1,%eax
  c002f2:	0f b6 00             	movzbl (%eax),%eax
  c002f5:	0f b6 c0             	movzbl %al,%eax
  c002f8:	89 45 d8             	mov    %eax,-0x28(%ebp)
  c002fb:	83 7d d8 00          	cmpl   $0x0,-0x28(%ebp)
  c002ff:	7f 05                	jg     c00306 <yyparse+0x271>
  c00301:	f7 5d d8             	negl   -0x28(%ebp)
  c00304:	eb 5a                	jmp    c00360 <yyparse+0x2cb>
  c00306:	83 7d f0 00          	cmpl   $0x0,-0x10(%ebp)
  c0030a:	74 04                	je     c00310 <yyparse+0x27b>
  c0030c:	83 6d f0 01          	subl   $0x1,-0x10(%ebp)
  c00310:	c7 05 d0 59 c2 00 fe 	movl   $0xfffffffe,0xc259d0
  c00317:	ff ff ff 
  c0031a:	8b 45 d8             	mov    -0x28(%ebp),%eax
  c0031d:	89 45 f4             	mov    %eax,-0xc(%ebp)
  c00320:	83 45 e0 04          	addl   $0x4,-0x20(%ebp)
  c00324:	8b 45 e0             	mov    -0x20(%ebp),%eax
  c00327:	8b 15 cc 59 c2 00    	mov    0xc259cc,%edx
  c0032d:	89 10                	mov    %edx,(%eax)
  c0032f:	e9 c1 fd ff ff       	jmp    c000f5 <yyparse+0x60>
  c00334:	8b 45 f4             	mov    -0xc(%ebp),%eax
  c00337:	05 a1 43 c0 00       	add    $0xc043a1,%eax
  c0033c:	0f b6 00             	movzbl (%eax),%eax
  c0033f:	0f b6 c0             	movzbl %al,%eax
  c00342:	89 45 d8             	mov    %eax,-0x28(%ebp)
  c00345:	83 7d d8 00          	cmpl   $0x0,-0x28(%ebp)
  c00349:	75 14                	jne    c0035f <yyparse+0x2ca>
  c0034b:	90                   	nop
  c0034c:	a1 d0 59 c2 00       	mov    0xc259d0,%eax
  c00351:	83 f8 fe             	cmp    $0xfffffffe,%eax
  c00354:	0f 84 90 02 00 00    	je     c005ea <yyparse+0x555>
  c0035a:	e9 67 02 00 00       	jmp    c005c6 <yyparse+0x531>
  c0035f:	90                   	nop
  c00360:	8b 45 d8             	mov    -0x28(%ebp),%eax
  c00363:	05 93 43 c0 00       	add    $0xc04393,%eax
  c00368:	0f b6 00             	movzbl (%eax),%eax
  c0036b:	0f b6 c0             	movzbl %al,%eax
  c0036e:	89 45 cc             	mov    %eax,-0x34(%ebp)
  c00371:	b8 01 00 00 00       	mov    $0x1,%eax
  c00376:	2b 45 cc             	sub    -0x34(%ebp),%eax
  c00379:	8d 14 85 00 00 00 00 	lea    0x0(,%eax,4),%edx
  c00380:	8b 45 e0             	mov    -0x20(%ebp),%eax
  c00383:	01 d0                	add    %edx,%eax
  c00385:	8b 00                	mov    (%eax),%eax
  c00387:	89 85 dc fa ff ff    	mov    %eax,-0x524(%ebp)
  c0038d:	83 7d d8 0d          	cmpl   $0xd,-0x28(%ebp)
  c00391:	0f 87 82 01 00 00    	ja     c00519 <yyparse+0x484>
  c00397:	8b 45 d8             	mov    -0x28(%ebp),%eax
  c0039a:	c1 e0 02             	shl    $0x2,%eax
  c0039d:	05 90 44 c0 00       	add    $0xc04490,%eax
  c003a2:	8b 00                	mov    (%eax),%eax
  c003a4:	ff e0                	jmp    *%eax
  c003a6:	8b 45 e0             	mov    -0x20(%ebp),%eax
  c003a9:	8b 00                	mov    (%eax),%eax
  c003ab:	83 ec 0c             	sub    $0xc,%esp
  c003ae:	50                   	push   %eax
  c003af:	e8 9a 24 00 00       	call   c0284e <eval>
  c003b4:	83 c4 10             	add    $0x10,%esp
  c003b7:	83 ec 0c             	sub    $0xc,%esp
  c003ba:	50                   	push   %eax
  c003bb:	e8 33 26 00 00       	call   c029f3 <display>
  c003c0:	83 c4 10             	add    $0x10,%esp
  c003c3:	e9 52 01 00 00       	jmp    c0051a <yyparse+0x485>
  c003c8:	8b 45 e0             	mov    -0x20(%ebp),%eax
  c003cb:	8b 00                	mov    (%eax),%eax
  c003cd:	83 ec 0c             	sub    $0xc,%esp
  c003d0:	50                   	push   %eax
  c003d1:	e8 78 24 00 00       	call   c0284e <eval>
  c003d6:	83 c4 10             	add    $0x10,%esp
  c003d9:	83 ec 0c             	sub    $0xc,%esp
  c003dc:	50                   	push   %eax
  c003dd:	e8 11 26 00 00       	call   c029f3 <display>
  c003e2:	83 c4 10             	add    $0x10,%esp
  c003e5:	e9 30 01 00 00       	jmp    c0051a <yyparse+0x485>
  c003ea:	83 ec 0c             	sub    $0xc,%esp
  c003ed:	6a 00                	push   $0x0
  c003ef:	e8 2c fc ff ff       	call   c00020 <newList>
  c003f4:	83 c4 10             	add    $0x10,%esp
  c003f7:	89 85 dc fa ff ff    	mov    %eax,-0x524(%ebp)
  c003fd:	e9 18 01 00 00       	jmp    c0051a <yyparse+0x485>
  c00402:	8b 45 e0             	mov    -0x20(%ebp),%eax
  c00405:	83 e8 04             	sub    $0x4,%eax
  c00408:	8b 00                	mov    (%eax),%eax
  c0040a:	83 ec 0c             	sub    $0xc,%esp
  c0040d:	50                   	push   %eax
  c0040e:	e8 0d fc ff ff       	call   c00020 <newList>
  c00413:	83 c4 10             	add    $0x10,%esp
  c00416:	89 85 dc fa ff ff    	mov    %eax,-0x524(%ebp)
  c0041c:	e9 f9 00 00 00       	jmp    c0051a <yyparse+0x485>
  c00421:	c7 45 90 00 00 00 00 	movl   $0x0,-0x70(%ebp)
  c00428:	c7 45 94 00 00 00 00 	movl   $0x0,-0x6c(%ebp)
  c0042f:	8b 45 e0             	mov    -0x20(%ebp),%eax
  c00432:	8b 00                	mov    (%eax),%eax
  c00434:	89 45 90             	mov    %eax,-0x70(%ebp)
  c00437:	83 ec 04             	sub    $0x4,%esp
  c0043a:	ff 75 94             	pushl  -0x6c(%ebp)
  c0043d:	ff 75 90             	pushl  -0x70(%ebp)
  c00440:	6a 04                	push   $0x4
  c00442:	e8 69 1c 00 00       	call   c020b0 <newObject>
  c00447:	83 c4 10             	add    $0x10,%esp
  c0044a:	89 85 dc fa ff ff    	mov    %eax,-0x524(%ebp)
  c00450:	e9 c5 00 00 00       	jmp    c0051a <yyparse+0x485>
  c00455:	c7 45 98 00 00 00 00 	movl   $0x0,-0x68(%ebp)
  c0045c:	c7 45 9c 00 00 00 00 	movl   $0x0,-0x64(%ebp)
  c00463:	8b 45 e0             	mov    -0x20(%ebp),%eax
  c00466:	8b 00                	mov    (%eax),%eax
  c00468:	89 45 98             	mov    %eax,-0x68(%ebp)
  c0046b:	83 ec 04             	sub    $0x4,%esp
  c0046e:	ff 75 9c             	pushl  -0x64(%ebp)
  c00471:	ff 75 98             	pushl  -0x68(%ebp)
  c00474:	6a 06                	push   $0x6
  c00476:	e8 35 1c 00 00       	call   c020b0 <newObject>
  c0047b:	83 c4 10             	add    $0x10,%esp
  c0047e:	89 85 dc fa ff ff    	mov    %eax,-0x524(%ebp)
  c00484:	e9 91 00 00 00       	jmp    c0051a <yyparse+0x485>
  c00489:	c7 45 a0 00 00 00 00 	movl   $0x0,-0x60(%ebp)
  c00490:	c7 45 a4 00 00 00 00 	movl   $0x0,-0x5c(%ebp)
  c00497:	8b 45 e0             	mov    -0x20(%ebp),%eax
  c0049a:	8b 00                	mov    (%eax),%eax
  c0049c:	89 45 a0             	mov    %eax,-0x60(%ebp)
  c0049f:	83 ec 04             	sub    $0x4,%esp
  c004a2:	ff 75 a4             	pushl  -0x5c(%ebp)
  c004a5:	ff 75 a0             	pushl  -0x60(%ebp)
  c004a8:	6a 05                	push   $0x5
  c004aa:	e8 01 1c 00 00       	call   c020b0 <newObject>
  c004af:	83 c4 10             	add    $0x10,%esp
  c004b2:	89 85 dc fa ff ff    	mov    %eax,-0x524(%ebp)
  c004b8:	eb 60                	jmp    c0051a <yyparse+0x485>
  c004ba:	c7 45 a8 00 00 00 00 	movl   $0x0,-0x58(%ebp)
  c004c1:	c7 45 ac 00 00 00 00 	movl   $0x0,-0x54(%ebp)
  c004c8:	8b 45 e0             	mov    -0x20(%ebp),%eax
  c004cb:	8b 00                	mov    (%eax),%eax
  c004cd:	89 45 a8             	mov    %eax,-0x58(%ebp)
  c004d0:	83 ec 04             	sub    $0x4,%esp
  c004d3:	ff 75 ac             	pushl  -0x54(%ebp)
  c004d6:	ff 75 a8             	pushl  -0x58(%ebp)
  c004d9:	6a 07                	push   $0x7
  c004db:	e8 d0 1b 00 00       	call   c020b0 <newObject>
  c004e0:	83 c4 10             	add    $0x10,%esp
  c004e3:	89 85 dc fa ff ff    	mov    %eax,-0x524(%ebp)
  c004e9:	eb 2f                	jmp    c0051a <yyparse+0x485>
  c004eb:	8b 45 e0             	mov    -0x20(%ebp),%eax
  c004ee:	83 e8 04             	sub    $0x4,%eax
  c004f1:	8b 00                	mov    (%eax),%eax
  c004f3:	89 45 b0             	mov    %eax,-0x50(%ebp)
  c004f6:	8b 45 e0             	mov    -0x20(%ebp),%eax
  c004f9:	8b 00                	mov    (%eax),%eax
  c004fb:	89 45 b4             	mov    %eax,-0x4c(%ebp)
  c004fe:	83 ec 04             	sub    $0x4,%esp
  c00501:	ff 75 b4             	pushl  -0x4c(%ebp)
  c00504:	ff 75 b0             	pushl  -0x50(%ebp)
  c00507:	6a 02                	push   $0x2
  c00509:	e8 a2 1b 00 00       	call   c020b0 <newObject>
  c0050e:	83 c4 10             	add    $0x10,%esp
  c00511:	89 85 dc fa ff ff    	mov    %eax,-0x524(%ebp)
  c00517:	eb 01                	jmp    c0051a <yyparse+0x485>
  c00519:	90                   	nop
  c0051a:	8b 45 cc             	mov    -0x34(%ebp),%eax
  c0051d:	c1 e0 02             	shl    $0x2,%eax
  c00520:	f7 d8                	neg    %eax
  c00522:	01 45 e0             	add    %eax,-0x20(%ebp)
  c00525:	8b 45 cc             	mov    -0x34(%ebp),%eax
  c00528:	01 c0                	add    %eax,%eax
  c0052a:	f7 d8                	neg    %eax
  c0052c:	01 45 e8             	add    %eax,-0x18(%ebp)
  c0052f:	c7 45 cc 00 00 00 00 	movl   $0x0,-0x34(%ebp)
  c00536:	83 45 e0 04          	addl   $0x4,-0x20(%ebp)
  c0053a:	8b 45 e0             	mov    -0x20(%ebp),%eax
  c0053d:	8b 95 dc fa ff ff    	mov    -0x524(%ebp),%edx
  c00543:	89 10                	mov    %edx,(%eax)
  c00545:	8b 45 d8             	mov    -0x28(%ebp),%eax
  c00548:	05 85 43 c0 00       	add    $0xc04385,%eax
  c0054d:	0f b6 00             	movzbl (%eax),%eax
  c00550:	0f b6 c0             	movzbl %al,%eax
  c00553:	89 45 d8             	mov    %eax,-0x28(%ebp)
  c00556:	8b 45 d8             	mov    -0x28(%ebp),%eax
  c00559:	83 e8 09             	sub    $0x9,%eax
  c0055c:	0f b6 80 cb 43 c0 00 	movzbl 0xc043cb(%eax),%eax
  c00563:	0f be d0             	movsbl %al,%edx
  c00566:	8b 45 e8             	mov    -0x18(%ebp),%eax
  c00569:	0f b7 00             	movzwl (%eax),%eax
  c0056c:	98                   	cwtl   
  c0056d:	01 d0                	add    %edx,%eax
  c0056f:	89 45 f4             	mov    %eax,-0xc(%ebp)
  c00572:	83 7d f4 00          	cmpl   $0x0,-0xc(%ebp)
  c00576:	78 36                	js     c005ae <yyparse+0x519>
  c00578:	83 7d f4 19          	cmpl   $0x19,-0xc(%ebp)
  c0057c:	7f 30                	jg     c005ae <yyparse+0x519>
  c0057e:	8b 45 f4             	mov    -0xc(%ebp),%eax
  c00581:	05 eb 43 c0 00       	add    $0xc043eb,%eax
  c00586:	0f b6 00             	movzbl (%eax),%eax
  c00589:	66 0f be d0          	movsbw %al,%dx
  c0058d:	8b 45 e8             	mov    -0x18(%ebp),%eax
  c00590:	0f b7 00             	movzwl (%eax),%eax
  c00593:	66 39 c2             	cmp    %ax,%dx
  c00596:	75 16                	jne    c005ae <yyparse+0x519>
  c00598:	8b 45 f4             	mov    -0xc(%ebp),%eax
  c0059b:	05 d1 43 c0 00       	add    $0xc043d1,%eax
  c005a0:	0f b6 00             	movzbl (%eax),%eax
  c005a3:	0f b6 c0             	movzbl %al,%eax
  c005a6:	89 45 f4             	mov    %eax,-0xc(%ebp)
  c005a9:	e9 47 fb ff ff       	jmp    c000f5 <yyparse+0x60>
  c005ae:	8b 45 d8             	mov    -0x28(%ebp),%eax
  c005b1:	83 e8 09             	sub    $0x9,%eax
  c005b4:	0f b6 80 b3 43 c0 00 	movzbl 0xc043b3(%eax),%eax
  c005bb:	0f be c0             	movsbl %al,%eax
  c005be:	89 45 f4             	mov    %eax,-0xc(%ebp)
  c005c1:	e9 2f fb ff ff       	jmp    c000f5 <yyparse+0x60>
  c005c6:	a1 d0 59 c2 00       	mov    0xc259d0,%eax
  c005cb:	3d 04 01 00 00       	cmp    $0x104,%eax
  c005d0:	77 11                	ja     c005e3 <yyparse+0x54e>
  c005d2:	a1 d0 59 c2 00       	mov    0xc259d0,%eax
  c005d7:	0f b6 80 80 42 c0 00 	movzbl 0xc04280(%eax),%eax
  c005de:	0f b6 c0             	movzbl %al,%eax
  c005e1:	eb 0c                	jmp    c005ef <yyparse+0x55a>
  c005e3:	b8 02 00 00 00       	mov    $0x2,%eax
  c005e8:	eb 05                	jmp    c005ef <yyparse+0x55a>
  c005ea:	b8 fe ff ff ff       	mov    $0xfffffffe,%eax
  c005ef:	89 45 d0             	mov    %eax,-0x30(%ebp)
  c005f2:	83 7d f0 00          	cmpl   $0x0,-0x10(%ebp)
  c005f6:	75 1d                	jne    c00615 <yyparse+0x580>
  c005f8:	a1 c8 59 c2 00       	mov    0xc259c8,%eax
  c005fd:	83 c0 01             	add    $0x1,%eax
  c00600:	a3 c8 59 c2 00       	mov    %eax,0xc259c8
  c00605:	83 ec 0c             	sub    $0xc,%esp
  c00608:	68 20 44 c0 00       	push   $0xc04420
  c0060d:	e8 ef 01 00 00       	call   c00801 <yyerror>
  c00612:	83 c4 10             	add    $0x10,%esp
  c00615:	83 7d f0 03          	cmpl   $0x3,-0x10(%ebp)
  c00619:	75 39                	jne    c00654 <yyparse+0x5bf>
  c0061b:	a1 d0 59 c2 00       	mov    0xc259d0,%eax
  c00620:	85 c0                	test   %eax,%eax
  c00622:	7f 0e                	jg     c00632 <yyparse+0x59d>
  c00624:	a1 d0 59 c2 00       	mov    0xc259d0,%eax
  c00629:	85 c0                	test   %eax,%eax
  c0062b:	75 27                	jne    c00654 <yyparse+0x5bf>
  c0062d:	e9 d5 00 00 00       	jmp    c00707 <yyparse+0x672>
  c00632:	83 ec 04             	sub    $0x4,%esp
  c00635:	68 cc 59 c2 00       	push   $0xc259cc
  c0063a:	ff 75 d0             	pushl  -0x30(%ebp)
  c0063d:	68 2d 44 c0 00       	push   $0xc0442d
  c00642:	e8 3b fa ff ff       	call   c00082 <yydestruct>
  c00647:	83 c4 10             	add    $0x10,%esp
  c0064a:	c7 05 d0 59 c2 00 fe 	movl   $0xfffffffe,0xc259d0
  c00651:	ff ff ff 
  c00654:	90                   	nop
  c00655:	c7 45 f0 03 00 00 00 	movl   $0x3,-0x10(%ebp)
  c0065c:	8b 45 f4             	mov    -0xc(%ebp),%eax
  c0065f:	05 b9 43 c0 00       	add    $0xc043b9,%eax
  c00664:	0f b6 00             	movzbl (%eax),%eax
  c00667:	0f be c0             	movsbl %al,%eax
  c0066a:	89 45 d8             	mov    %eax,-0x28(%ebp)
  c0066d:	83 7d d8 f6          	cmpl   $0xfffffff6,-0x28(%ebp)
  c00671:	74 51                	je     c006c4 <yyparse+0x62f>
  c00673:	83 45 d8 01          	addl   $0x1,-0x28(%ebp)
  c00677:	83 7d d8 00          	cmpl   $0x0,-0x28(%ebp)
  c0067b:	78 47                	js     c006c4 <yyparse+0x62f>
  c0067d:	83 7d d8 19          	cmpl   $0x19,-0x28(%ebp)
  c00681:	7f 41                	jg     c006c4 <yyparse+0x62f>
  c00683:	8b 45 d8             	mov    -0x28(%ebp),%eax
  c00686:	05 eb 43 c0 00       	add    $0xc043eb,%eax
  c0068b:	0f b6 00             	movzbl (%eax),%eax
  c0068e:	3c 01                	cmp    $0x1,%al
  c00690:	75 32                	jne    c006c4 <yyparse+0x62f>
  c00692:	8b 45 d8             	mov    -0x28(%ebp),%eax
  c00695:	05 d1 43 c0 00       	add    $0xc043d1,%eax
  c0069a:	0f b6 00             	movzbl (%eax),%eax
  c0069d:	0f b6 c0             	movzbl %al,%eax
  c006a0:	89 45 d8             	mov    %eax,-0x28(%ebp)
  c006a3:	83 7d d8 00          	cmpl   $0x0,-0x28(%ebp)
  c006a7:	7e 1b                	jle    c006c4 <yyparse+0x62f>
  c006a9:	90                   	nop
  c006aa:	83 45 e0 04          	addl   $0x4,-0x20(%ebp)
  c006ae:	8b 45 e0             	mov    -0x20(%ebp),%eax
  c006b1:	8b 15 cc 59 c2 00    	mov    0xc259cc,%edx
  c006b7:	89 10                	mov    %edx,(%eax)
  c006b9:	8b 45 d8             	mov    -0x28(%ebp),%eax
  c006bc:	89 45 f4             	mov    %eax,-0xc(%ebp)
  c006bf:	e9 31 fa ff ff       	jmp    c000f5 <yyparse+0x60>
  c006c4:	8b 45 e8             	mov    -0x18(%ebp),%eax
  c006c7:	3b 45 ec             	cmp    -0x14(%ebp),%eax
  c006ca:	75 02                	jne    c006ce <yyparse+0x639>
  c006cc:	eb 39                	jmp    c00707 <yyparse+0x672>
  c006ce:	8b 45 f4             	mov    -0xc(%ebp),%eax
  c006d1:	05 05 44 c0 00       	add    $0xc04405,%eax
  c006d6:	0f b6 00             	movzbl (%eax),%eax
  c006d9:	0f b6 c0             	movzbl %al,%eax
  c006dc:	83 ec 04             	sub    $0x4,%esp
  c006df:	ff 75 e0             	pushl  -0x20(%ebp)
  c006e2:	50                   	push   %eax
  c006e3:	68 3f 44 c0 00       	push   $0xc0443f
  c006e8:	e8 95 f9 ff ff       	call   c00082 <yydestruct>
  c006ed:	83 c4 10             	add    $0x10,%esp
  c006f0:	83 6d e0 04          	subl   $0x4,-0x20(%ebp)
  c006f4:	83 6d e8 02          	subl   $0x2,-0x18(%ebp)
  c006f8:	8b 45 e8             	mov    -0x18(%ebp),%eax
  c006fb:	0f b7 00             	movzwl (%eax),%eax
  c006fe:	98                   	cwtl   
  c006ff:	89 45 f4             	mov    %eax,-0xc(%ebp)
  c00702:	e9 55 ff ff ff       	jmp    c0065c <yyparse+0x5c7>
  c00707:	c7 45 d4 01 00 00 00 	movl   $0x1,-0x2c(%ebp)
  c0070e:	eb 17                	jmp    c00727 <yyparse+0x692>
  c00710:	83 ec 0c             	sub    $0xc,%esp
  c00713:	68 4e 44 c0 00       	push   $0xc0444e
  c00718:	e8 e4 00 00 00       	call   c00801 <yyerror>
  c0071d:	83 c4 10             	add    $0x10,%esp
  c00720:	c7 45 d4 02 00 00 00 	movl   $0x2,-0x2c(%ebp)
  c00727:	a1 d0 59 c2 00       	mov    0xc259d0,%eax
  c0072c:	83 f8 fe             	cmp    $0xfffffffe,%eax
  c0072f:	74 3d                	je     c0076e <yyparse+0x6d9>
  c00731:	a1 d0 59 c2 00       	mov    0xc259d0,%eax
  c00736:	3d 04 01 00 00       	cmp    $0x104,%eax
  c0073b:	77 11                	ja     c0074e <yyparse+0x6b9>
  c0073d:	a1 d0 59 c2 00       	mov    0xc259d0,%eax
  c00742:	0f b6 80 80 42 c0 00 	movzbl 0xc04280(%eax),%eax
  c00749:	0f b6 c0             	movzbl %al,%eax
  c0074c:	eb 05                	jmp    c00753 <yyparse+0x6be>
  c0074e:	b8 02 00 00 00       	mov    $0x2,%eax
  c00753:	89 45 d0             	mov    %eax,-0x30(%ebp)
  c00756:	83 ec 04             	sub    $0x4,%esp
  c00759:	68 cc 59 c2 00       	push   $0xc259cc
  c0075e:	ff 75 d0             	pushl  -0x30(%ebp)
  c00761:	68 5f 44 c0 00       	push   $0xc0445f
  c00766:	e8 17 f9 ff ff       	call   c00082 <yydestruct>
  c0076b:	83 c4 10             	add    $0x10,%esp
  c0076e:	8b 45 cc             	mov    -0x34(%ebp),%eax
  c00771:	c1 e0 02             	shl    $0x2,%eax
  c00774:	f7 d8                	neg    %eax
  c00776:	01 45 e0             	add    %eax,-0x20(%ebp)
  c00779:	8b 45 cc             	mov    -0x34(%ebp),%eax
  c0077c:	01 c0                	add    %eax,%eax
  c0077e:	f7 d8                	neg    %eax
  c00780:	01 45 e8             	add    %eax,-0x18(%ebp)
  c00783:	eb 2d                	jmp    c007b2 <yyparse+0x71d>
  c00785:	8b 45 e8             	mov    -0x18(%ebp),%eax
  c00788:	0f b7 00             	movzwl (%eax),%eax
  c0078b:	98                   	cwtl   
  c0078c:	0f b6 80 05 44 c0 00 	movzbl 0xc04405(%eax),%eax
  c00793:	0f b6 c0             	movzbl %al,%eax
  c00796:	83 ec 04             	sub    $0x4,%esp
  c00799:	ff 75 e0             	pushl  -0x20(%ebp)
  c0079c:	50                   	push   %eax
  c0079d:	68 7d 44 c0 00       	push   $0xc0447d
  c007a2:	e8 db f8 ff ff       	call   c00082 <yydestruct>
  c007a7:	83 c4 10             	add    $0x10,%esp
  c007aa:	83 6d e0 04          	subl   $0x4,-0x20(%ebp)
  c007ae:	83 6d e8 02          	subl   $0x2,-0x18(%ebp)
  c007b2:	8b 45 e8             	mov    -0x18(%ebp),%eax
  c007b5:	3b 45 ec             	cmp    -0x14(%ebp),%eax
  c007b8:	75 cb                	jne    c00785 <yyparse+0x6f0>
  c007ba:	8d 85 00 fe ff ff    	lea    -0x200(%ebp),%eax
  c007c0:	39 45 ec             	cmp    %eax,-0x14(%ebp)
  c007c3:	74 0e                	je     c007d3 <yyparse+0x73e>
  c007c5:	83 ec 0c             	sub    $0xc,%esp
  c007c8:	ff 75 ec             	pushl  -0x14(%ebp)
  c007cb:	e8 da 30 00 00       	call   c038aa <free>
  c007d0:	83 c4 10             	add    $0x10,%esp
  c007d3:	8b 45 d4             	mov    -0x2c(%ebp),%eax
  c007d6:	c9                   	leave  
  c007d7:	c3                   	ret    

00c007d8 <main>:
  c007d8:	8d 4c 24 04          	lea    0x4(%esp),%ecx
  c007dc:	83 e4 f0             	and    $0xfffffff0,%esp
  c007df:	ff 71 fc             	pushl  -0x4(%ecx)
  c007e2:	55                   	push   %ebp
  c007e3:	89 e5                	mov    %esp,%ebp
  c007e5:	51                   	push   %ecx
  c007e6:	83 ec 04             	sub    $0x4,%esp
  c007e9:	e8 a5 1e 00 00       	call   c02693 <built>
  c007ee:	e8 a2 f8 ff ff       	call   c00095 <yyparse>
  c007f3:	b8 00 00 00 00       	mov    $0x0,%eax
  c007f8:	83 c4 04             	add    $0x4,%esp
  c007fb:	59                   	pop    %ecx
  c007fc:	5d                   	pop    %ebp
  c007fd:	8d 61 fc             	lea    -0x4(%ecx),%esp
  c00800:	c3                   	ret    

00c00801 <yyerror>:
  c00801:	55                   	push   %ebp
  c00802:	89 e5                	mov    %esp,%ebp
  c00804:	83 ec 08             	sub    $0x8,%esp
  c00807:	83 ec 08             	sub    $0x8,%esp
  c0080a:	ff 75 08             	pushl  0x8(%ebp)
  c0080d:	68 c8 44 c0 00       	push   $0xc044c8
  c00812:	e8 59 32 00 00       	call   c03a70 <printf>
  c00817:	83 c4 10             	add    $0x10,%esp
  c0081a:	c9                   	leave  
  c0081b:	c3                   	ret    

00c0081c <strlen>:
  c0081c:	55                   	push   %ebp
  c0081d:	89 e5                	mov    %esp,%ebp
  c0081f:	57                   	push   %edi
  c00820:	8b 55 08             	mov    0x8(%ebp),%edx
  c00823:	b8 00 00 00 00       	mov    $0x0,%eax
  c00828:	b9 ff ff ff ff       	mov    $0xffffffff,%ecx
  c0082d:	89 d7                	mov    %edx,%edi
  c0082f:	fc                   	cld    
  c00830:	f2 ae                	repnz scas %es:(%edi),%al
  c00832:	f7 d1                	not    %ecx
  c00834:	49                   	dec    %ecx
  c00835:	89 c8                	mov    %ecx,%eax
  c00837:	5f                   	pop    %edi
  c00838:	5d                   	pop    %ebp
  c00839:	c3                   	ret    

00c0083a <memcpy>:
  c0083a:	55                   	push   %ebp
  c0083b:	89 e5                	mov    %esp,%ebp
  c0083d:	57                   	push   %edi
  c0083e:	56                   	push   %esi
  c0083f:	53                   	push   %ebx
  c00840:	8b 45 10             	mov    0x10(%ebp),%eax
  c00843:	8b 55 0c             	mov    0xc(%ebp),%edx
  c00846:	8b 5d 08             	mov    0x8(%ebp),%ebx
  c00849:	89 c1                	mov    %eax,%ecx
  c0084b:	89 d6                	mov    %edx,%esi
  c0084d:	89 df                	mov    %ebx,%edi
  c0084f:	fc                   	cld    
  c00850:	f3 a4                	rep movsb %ds:(%esi),%es:(%edi)
  c00852:	8b 45 08             	mov    0x8(%ebp),%eax
  c00855:	5b                   	pop    %ebx
  c00856:	5e                   	pop    %esi
  c00857:	5f                   	pop    %edi
  c00858:	5d                   	pop    %ebp
  c00859:	c3                   	ret    

00c0085a <memset>:
  c0085a:	55                   	push   %ebp
  c0085b:	89 e5                	mov    %esp,%ebp
  c0085d:	57                   	push   %edi
  c0085e:	83 ec 04             	sub    $0x4,%esp
  c00861:	8b 45 0c             	mov    0xc(%ebp),%eax
  c00864:	88 45 f8             	mov    %al,-0x8(%ebp)
  c00867:	0f b6 45 f8          	movzbl -0x8(%ebp),%eax
  c0086b:	8b 55 08             	mov    0x8(%ebp),%edx
  c0086e:	8b 4d 10             	mov    0x10(%ebp),%ecx
  c00871:	89 d7                	mov    %edx,%edi
  c00873:	fc                   	cld    
  c00874:	f3 aa                	rep stos %al,%es:(%edi)
  c00876:	8b 45 08             	mov    0x8(%ebp),%eax
  c00879:	83 c4 04             	add    $0x4,%esp
  c0087c:	5f                   	pop    %edi
  c0087d:	5d                   	pop    %ebp
  c0087e:	c3                   	ret    

00c0087f <fileno>:
  c0087f:	55                   	push   %ebp
  c00880:	89 e5                	mov    %esp,%ebp
  c00882:	8b 45 08             	mov    0x8(%ebp),%eax
  c00885:	8b 00                	mov    (%eax),%eax
  c00887:	5d                   	pop    %ebp
  c00888:	c3                   	ret    

00c00889 <strdup>:
  c00889:	55                   	push   %ebp
  c0088a:	89 e5                	mov    %esp,%ebp
  c0088c:	83 ec 18             	sub    $0x18,%esp
  c0088f:	ff 75 08             	pushl  0x8(%ebp)
  c00892:	e8 85 ff ff ff       	call   c0081c <strlen>
  c00897:	83 c4 04             	add    $0x4,%esp
  c0089a:	83 c0 01             	add    $0x1,%eax
  c0089d:	89 45 f4             	mov    %eax,-0xc(%ebp)
  c008a0:	83 ec 0c             	sub    $0xc,%esp
  c008a3:	ff 75 f4             	pushl  -0xc(%ebp)
  c008a6:	e8 ac 31 00 00       	call   c03a57 <malloc>
  c008ab:	83 c4 10             	add    $0x10,%esp
  c008ae:	89 45 f0             	mov    %eax,-0x10(%ebp)
  c008b1:	83 7d f0 00          	cmpl   $0x0,-0x10(%ebp)
  c008b5:	75 07                	jne    c008be <strdup+0x35>
  c008b7:	b8 00 00 00 00       	mov    $0x0,%eax
  c008bc:	eb 15                	jmp    c008d3 <strdup+0x4a>
  c008be:	8b 45 f4             	mov    -0xc(%ebp),%eax
  c008c1:	83 ec 04             	sub    $0x4,%esp
  c008c4:	50                   	push   %eax
  c008c5:	ff 75 08             	pushl  0x8(%ebp)
  c008c8:	ff 75 f0             	pushl  -0x10(%ebp)
  c008cb:	e8 6a ff ff ff       	call   c0083a <memcpy>
  c008d0:	83 c4 10             	add    $0x10,%esp
  c008d3:	c9                   	leave  
  c008d4:	c3                   	ret    

00c008d5 <yylex>:
  c008d5:	55                   	push   %ebp
  c008d6:	89 e5                	mov    %esp,%ebp
  c008d8:	57                   	push   %edi
  c008d9:	56                   	push   %esi
  c008da:	53                   	push   %ebx
  c008db:	83 ec 1c             	sub    $0x1c,%esp
  c008de:	a1 70 80 c0 00       	mov    0xc08070,%eax
  c008e3:	85 c0                	test   %eax,%eax
  c008e5:	0f 85 95 00 00 00    	jne    c00980 <yylex+0xab>
  c008eb:	c7 05 70 80 c0 00 01 	movl   $0x1,0xc08070
  c008f2:	00 00 00 
  c008f5:	a1 74 80 c0 00       	mov    0xc08074,%eax
  c008fa:	85 c0                	test   %eax,%eax
  c008fc:	75 0a                	jne    c00908 <yylex+0x33>
  c008fe:	c7 05 74 80 c0 00 01 	movl   $0x1,0xc08074
  c00905:	00 00 00 
  c00908:	a1 44 80 c0 00       	mov    0xc08044,%eax
  c0090d:	85 c0                	test   %eax,%eax
  c0090f:	75 0a                	jne    c0091b <yylex+0x46>
  c00911:	a1 04 80 c0 00       	mov    0xc08004,%eax
  c00916:	a3 44 80 c0 00       	mov    %eax,0xc08044
  c0091b:	a1 48 80 c0 00       	mov    0xc08048,%eax
  c00920:	85 c0                	test   %eax,%eax
  c00922:	75 0a                	jne    c0092e <yylex+0x59>
  c00924:	a1 08 80 c0 00       	mov    0xc08008,%eax
  c00929:	a3 48 80 c0 00       	mov    %eax,0xc08048
  c0092e:	a1 60 80 c0 00       	mov    0xc08060,%eax
  c00933:	85 c0                	test   %eax,%eax
  c00935:	74 16                	je     c0094d <yylex+0x78>
  c00937:	a1 60 80 c0 00       	mov    0xc08060,%eax
  c0093c:	8b 15 58 80 c0 00    	mov    0xc08058,%edx
  c00942:	c1 e2 02             	shl    $0x2,%edx
  c00945:	01 d0                	add    %edx,%eax
  c00947:	8b 00                	mov    (%eax),%eax
  c00949:	85 c0                	test   %eax,%eax
  c0094b:	75 2e                	jne    c0097b <yylex+0xa6>
  c0094d:	e8 ac 11 00 00       	call   c01afe <yyensure_buffer_stack>
  c00952:	a1 60 80 c0 00       	mov    0xc08060,%eax
  c00957:	8b 15 58 80 c0 00    	mov    0xc08058,%edx
  c0095d:	c1 e2 02             	shl    $0x2,%edx
  c00960:	8d 1c 10             	lea    (%eax,%edx,1),%ebx
  c00963:	a1 44 80 c0 00       	mov    0xc08044,%eax
  c00968:	83 ec 08             	sub    $0x8,%esp
  c0096b:	68 00 40 00 00       	push   $0x4000
  c00970:	50                   	push   %eax
  c00971:	e8 f3 0d 00 00       	call   c01769 <yy_create_buffer>
  c00976:	83 c4 10             	add    $0x10,%esp
  c00979:	89 03                	mov    %eax,(%ebx)
  c0097b:	e8 80 0d 00 00       	call   c01700 <yy_load_buffer_state>
  c00980:	8b 35 6c 80 c0 00    	mov    0xc0806c,%esi
  c00986:	0f b6 05 64 80 c0 00 	movzbl 0xc08064,%eax
  c0098d:	88 06                	mov    %al,(%esi)
  c0098f:	89 f7                	mov    %esi,%edi
  c00991:	8b 1d 74 80 c0 00    	mov    0xc08074,%ebx
  c00997:	0f b6 06             	movzbl (%esi),%eax
  c0099a:	0f b6 c0             	movzbl %al,%eax
  c0099d:	8b 04 85 40 45 c0 00 	mov    0xc04540(,%eax,4),%eax
  c009a4:	89 c1                	mov    %eax,%ecx
  c009a6:	0f b7 84 1b 00 45 c0 	movzwl 0xc04500(%ebx,%ebx,1),%eax
  c009ad:	00 
  c009ae:	66 85 c0             	test   %ax,%ax
  c009b1:	74 0c                	je     c009bf <yylex+0xea>
  c009b3:	89 1d 7c 80 c0 00    	mov    %ebx,0xc0807c
  c009b9:	89 35 80 80 c0 00    	mov    %esi,0xc08080
  c009bf:	eb 1e                	jmp    c009df <yylex+0x10a>
  c009c1:	0f b7 84 1b c0 49 c0 	movzwl 0xc049c0(%ebx,%ebx,1),%eax
  c009c8:	00 
  c009c9:	0f bf d8             	movswl %ax,%ebx
  c009cc:	83 fb 18             	cmp    $0x18,%ebx
  c009cf:	7e 0e                	jle    c009df <yylex+0x10a>
  c009d1:	89 c8                	mov    %ecx,%eax
  c009d3:	0f b6 c0             	movzbl %al,%eax
  c009d6:	8b 04 85 40 49 c0 00 	mov    0xc04940(,%eax,4),%eax
  c009dd:	89 c1                	mov    %eax,%ecx
  c009df:	0f b7 84 1b 80 49 c0 	movzwl 0xc04980(%ebx,%ebx,1),%eax
  c009e6:	00 
  c009e7:	0f bf d0             	movswl %ax,%edx
  c009ea:	89 c8                	mov    %ecx,%eax
  c009ec:	0f b6 c0             	movzbl %al,%eax
  c009ef:	01 d0                	add    %edx,%eax
  c009f1:	0f b7 84 00 c0 4a c0 	movzwl 0xc04ac0(%eax,%eax,1),%eax
  c009f8:	00 
  c009f9:	98                   	cwtl   
  c009fa:	39 d8                	cmp    %ebx,%eax
  c009fc:	75 c3                	jne    c009c1 <yylex+0xec>
  c009fe:	0f b7 84 1b 80 49 c0 	movzwl 0xc04980(%ebx,%ebx,1),%eax
  c00a05:	00 
  c00a06:	0f bf d0             	movswl %ax,%edx
  c00a09:	89 c8                	mov    %ecx,%eax
  c00a0b:	0f b6 c0             	movzbl %al,%eax
  c00a0e:	01 d0                	add    %edx,%eax
  c00a10:	0f b7 84 00 00 4a c0 	movzwl 0xc04a00(%eax,%eax,1),%eax
  c00a17:	00 
  c00a18:	0f bf d8             	movswl %ax,%ebx
  c00a1b:	83 c6 01             	add    $0x1,%esi
  c00a1e:	0f b7 84 1b 80 49 c0 	movzwl 0xc04980(%ebx,%ebx,1),%eax
  c00a25:	00 
  c00a26:	66 83 f8 4e          	cmp    $0x4e,%ax
  c00a2a:	0f 85 67 ff ff ff    	jne    c00997 <yylex+0xc2>
  c00a30:	0f b7 84 1b 00 45 c0 	movzwl 0xc04500(%ebx,%ebx,1),%eax
  c00a37:	00 
  c00a38:	0f bf d8             	movswl %ax,%ebx
  c00a3b:	85 db                	test   %ebx,%ebx
  c00a3d:	75 17                	jne    c00a56 <yylex+0x181>
  c00a3f:	8b 35 80 80 c0 00    	mov    0xc08080,%esi
  c00a45:	8b 1d 7c 80 c0 00    	mov    0xc0807c,%ebx
  c00a4b:	0f b7 84 1b 00 45 c0 	movzwl 0xc04500(%ebx,%ebx,1),%eax
  c00a52:	00 
  c00a53:	0f bf d8             	movswl %ax,%ebx
  c00a56:	89 3d d8 59 c2 00    	mov    %edi,0xc259d8
  c00a5c:	89 f2                	mov    %esi,%edx
  c00a5e:	89 f8                	mov    %edi,%eax
  c00a60:	29 c2                	sub    %eax,%edx
  c00a62:	89 d0                	mov    %edx,%eax
  c00a64:	a3 dc 59 c2 00       	mov    %eax,0xc259dc
  c00a69:	0f b6 06             	movzbl (%esi),%eax
  c00a6c:	a2 64 80 c0 00       	mov    %al,0xc08064
  c00a71:	c6 06 00             	movb   $0x0,(%esi)
  c00a74:	89 35 6c 80 c0 00    	mov    %esi,0xc0806c
  c00a7a:	83 fb 0a             	cmp    $0xa,%ebx
  c00a7d:	74 41                	je     c00ac0 <yylex+0x1eb>
  c00a7f:	8b 04 9d 80 4b c0 00 	mov    0xc04b80(,%ebx,4),%eax
  c00a86:	85 c0                	test   %eax,%eax
  c00a88:	74 36                	je     c00ac0 <yylex+0x1eb>
  c00a8a:	c7 45 e4 00 00 00 00 	movl   $0x0,-0x1c(%ebp)
  c00a91:	eb 23                	jmp    c00ab6 <yylex+0x1e1>
  c00a93:	8b 15 d8 59 c2 00    	mov    0xc259d8,%edx
  c00a99:	8b 45 e4             	mov    -0x1c(%ebp),%eax
  c00a9c:	01 d0                	add    %edx,%eax
  c00a9e:	0f b6 00             	movzbl (%eax),%eax
  c00aa1:	3c 0a                	cmp    $0xa,%al
  c00aa3:	75 0d                	jne    c00ab2 <yylex+0x1dd>
  c00aa5:	a1 0c 80 c0 00       	mov    0xc0800c,%eax
  c00aaa:	83 c0 01             	add    $0x1,%eax
  c00aad:	a3 0c 80 c0 00       	mov    %eax,0xc0800c
  c00ab2:	83 45 e4 01          	addl   $0x1,-0x1c(%ebp)
  c00ab6:	a1 dc 59 c2 00       	mov    0xc259dc,%eax
  c00abb:	39 45 e4             	cmp    %eax,-0x1c(%ebp)
  c00abe:	72 d3                	jb     c00a93 <yylex+0x1be>
  c00ac0:	83 fb 0b             	cmp    $0xb,%ebx
  c00ac3:	0f 87 d8 02 00 00    	ja     c00da1 <yylex+0x4cc>
  c00ac9:	8b 04 9d f0 4b c0 00 	mov    0xc04bf0(,%ebx,4),%eax
  c00ad0:	ff e0                	jmp    *%eax
  c00ad2:	0f b6 05 64 80 c0 00 	movzbl 0xc08064,%eax
  c00ad9:	88 06                	mov    %al,(%esi)
  c00adb:	8b 35 80 80 c0 00    	mov    0xc08080,%esi
  c00ae1:	8b 1d 7c 80 c0 00    	mov    0xc0807c,%ebx
  c00ae7:	e9 44 ff ff ff       	jmp    c00a30 <yylex+0x15b>
  c00aec:	a1 d8 59 c2 00       	mov    0xc259d8,%eax
  c00af1:	0f b6 00             	movzbl (%eax),%eax
  c00af4:	0f be c0             	movsbl %al,%eax
  c00af7:	e9 c0 02 00 00       	jmp    c00dbc <yylex+0x4e7>
  c00afc:	a1 d8 59 c2 00       	mov    0xc259d8,%eax
  c00b01:	83 ec 0c             	sub    $0xc,%esp
  c00b04:	50                   	push   %eax
  c00b05:	e8 77 20 00 00       	call   c02b81 <atoi>
  c00b0a:	83 c4 10             	add    $0x10,%esp
  c00b0d:	a3 cc 59 c2 00       	mov    %eax,0xc259cc
  c00b12:	b8 02 01 00 00       	mov    $0x102,%eax
  c00b17:	e9 a0 02 00 00       	jmp    c00dbc <yylex+0x4e7>
  c00b1c:	a1 d8 59 c2 00       	mov    0xc259d8,%eax
  c00b21:	83 ec 0c             	sub    $0xc,%esp
  c00b24:	50                   	push   %eax
  c00b25:	e8 57 20 00 00       	call   c02b81 <atoi>
  c00b2a:	83 c4 10             	add    $0x10,%esp
  c00b2d:	a3 cc 59 c2 00       	mov    %eax,0xc259cc
  c00b32:	b8 02 01 00 00       	mov    $0x102,%eax
  c00b37:	e9 80 02 00 00       	jmp    c00dbc <yylex+0x4e7>
  c00b3c:	a1 d8 59 c2 00       	mov    0xc259d8,%eax
  c00b41:	83 ec 0c             	sub    $0xc,%esp
  c00b44:	50                   	push   %eax
  c00b45:	e8 37 20 00 00       	call   c02b81 <atoi>
  c00b4a:	83 c4 10             	add    $0x10,%esp
  c00b4d:	a3 cc 59 c2 00       	mov    %eax,0xc259cc
  c00b52:	b8 02 01 00 00       	mov    $0x102,%eax
  c00b57:	e9 60 02 00 00       	jmp    c00dbc <yylex+0x4e7>
  c00b5c:	a1 d8 59 c2 00       	mov    0xc259d8,%eax
  c00b61:	8b 15 dc 59 c2 00    	mov    0xc259dc,%edx
  c00b67:	83 ea 01             	sub    $0x1,%edx
  c00b6a:	01 d0                	add    %edx,%eax
  c00b6c:	c6 00 00             	movb   $0x0,(%eax)
  c00b6f:	a1 d8 59 c2 00       	mov    0xc259d8,%eax
  c00b74:	83 c0 01             	add    $0x1,%eax
  c00b77:	83 ec 0c             	sub    $0xc,%esp
  c00b7a:	50                   	push   %eax
  c00b7b:	e8 09 fd ff ff       	call   c00889 <strdup>
  c00b80:	83 c4 10             	add    $0x10,%esp
  c00b83:	a3 cc 59 c2 00       	mov    %eax,0xc259cc
  c00b88:	b8 04 01 00 00       	mov    $0x104,%eax
  c00b8d:	e9 2a 02 00 00       	jmp    c00dbc <yylex+0x4e7>
  c00b92:	a1 d8 59 c2 00       	mov    0xc259d8,%eax
  c00b97:	83 ec 0c             	sub    $0xc,%esp
  c00b9a:	50                   	push   %eax
  c00b9b:	e8 27 21 00 00       	call   c02cc7 <lookup>
  c00ba0:	83 c4 10             	add    $0x10,%esp
  c00ba3:	a3 cc 59 c2 00       	mov    %eax,0xc259cc
  c00ba8:	b8 03 01 00 00       	mov    $0x103,%eax
  c00bad:	e9 0a 02 00 00       	jmp    c00dbc <yylex+0x4e7>
  c00bb2:	83 ec 0c             	sub    $0xc,%esp
  c00bb5:	68 a8 4b c0 00       	push   $0xc04ba8
  c00bba:	e8 f9 11 00 00       	call   c01db8 <yy_fatal_error>
  c00bbf:	83 c4 10             	add    $0x10,%esp
  c00bc2:	e9 f0 01 00 00       	jmp    c00db7 <yylex+0x4e2>
  c00bc7:	b8 00 00 00 00       	mov    $0x0,%eax
  c00bcc:	e9 eb 01 00 00       	jmp    c00dbc <yylex+0x4e7>
  c00bd1:	89 f2                	mov    %esi,%edx
  c00bd3:	a1 d8 59 c2 00       	mov    0xc259d8,%eax
  c00bd8:	29 c2                	sub    %eax,%edx
  c00bda:	89 d0                	mov    %edx,%eax
  c00bdc:	83 e8 01             	sub    $0x1,%eax
  c00bdf:	89 45 e0             	mov    %eax,-0x20(%ebp)
  c00be2:	0f b6 05 64 80 c0 00 	movzbl 0xc08064,%eax
  c00be9:	88 06                	mov    %al,(%esi)
  c00beb:	a1 60 80 c0 00       	mov    0xc08060,%eax
  c00bf0:	8b 15 58 80 c0 00    	mov    0xc08058,%edx
  c00bf6:	c1 e2 02             	shl    $0x2,%edx
  c00bf9:	01 d0                	add    %edx,%eax
  c00bfb:	8b 00                	mov    (%eax),%eax
  c00bfd:	8b 40 2c             	mov    0x2c(%eax),%eax
  c00c00:	85 c0                	test   %eax,%eax
  c00c02:	75 4d                	jne    c00c51 <yylex+0x37c>
  c00c04:	a1 60 80 c0 00       	mov    0xc08060,%eax
  c00c09:	8b 15 58 80 c0 00    	mov    0xc08058,%edx
  c00c0f:	c1 e2 02             	shl    $0x2,%edx
  c00c12:	01 d0                	add    %edx,%eax
  c00c14:	8b 00                	mov    (%eax),%eax
  c00c16:	8b 40 10             	mov    0x10(%eax),%eax
  c00c19:	a3 68 80 c0 00       	mov    %eax,0xc08068
  c00c1e:	a1 60 80 c0 00       	mov    0xc08060,%eax
  c00c23:	8b 15 58 80 c0 00    	mov    0xc08058,%edx
  c00c29:	c1 e2 02             	shl    $0x2,%edx
  c00c2c:	01 d0                	add    %edx,%eax
  c00c2e:	8b 00                	mov    (%eax),%eax
  c00c30:	8b 15 44 80 c0 00    	mov    0xc08044,%edx
  c00c36:	89 10                	mov    %edx,(%eax)
  c00c38:	a1 60 80 c0 00       	mov    0xc08060,%eax
  c00c3d:	8b 15 58 80 c0 00    	mov    0xc08058,%edx
  c00c43:	c1 e2 02             	shl    $0x2,%edx
  c00c46:	01 d0                	add    %edx,%eax
  c00c48:	8b 00                	mov    (%eax),%eax
  c00c4a:	c7 40 2c 01 00 00 00 	movl   $0x1,0x2c(%eax)
  c00c51:	a1 60 80 c0 00       	mov    0xc08060,%eax
  c00c56:	8b 15 58 80 c0 00    	mov    0xc08058,%edx
  c00c5c:	c1 e2 02             	shl    $0x2,%edx
  c00c5f:	01 d0                	add    %edx,%eax
  c00c61:	8b 00                	mov    (%eax),%eax
  c00c63:	8b 50 04             	mov    0x4(%eax),%edx
  c00c66:	a1 68 80 c0 00       	mov    0xc08068,%eax
  c00c6b:	01 c2                	add    %eax,%edx
  c00c6d:	a1 6c 80 c0 00       	mov    0xc0806c,%eax
  c00c72:	39 c2                	cmp    %eax,%edx
  c00c74:	72 58                	jb     c00cce <yylex+0x3f9>
  c00c76:	8b 15 d8 59 c2 00    	mov    0xc259d8,%edx
  c00c7c:	8b 45 e0             	mov    -0x20(%ebp),%eax
  c00c7f:	01 d0                	add    %edx,%eax
  c00c81:	a3 6c 80 c0 00       	mov    %eax,0xc0806c
  c00c86:	e8 35 05 00 00       	call   c011c0 <yy_get_previous_state>
  c00c8b:	89 c3                	mov    %eax,%ebx
  c00c8d:	83 ec 0c             	sub    $0xc,%esp
  c00c90:	53                   	push   %ebx
  c00c91:	e8 ea 05 00 00       	call   c01280 <yy_try_NUL_trans>
  c00c96:	83 c4 10             	add    $0x10,%esp
  c00c99:	89 45 dc             	mov    %eax,-0x24(%ebp)
  c00c9c:	8b 3d d8 59 c2 00    	mov    0xc259d8,%edi
  c00ca2:	83 7d dc 00          	cmpl   $0x0,-0x24(%ebp)
  c00ca6:	74 1b                	je     c00cc3 <yylex+0x3ee>
  c00ca8:	a1 6c 80 c0 00       	mov    0xc0806c,%eax
  c00cad:	83 c0 01             	add    $0x1,%eax
  c00cb0:	a3 6c 80 c0 00       	mov    %eax,0xc0806c
  c00cb5:	8b 35 6c 80 c0 00    	mov    0xc0806c,%esi
  c00cbb:	8b 5d dc             	mov    -0x24(%ebp),%ebx
  c00cbe:	e9 d4 fc ff ff       	jmp    c00997 <yylex+0xc2>
  c00cc3:	8b 35 6c 80 c0 00    	mov    0xc0806c,%esi
  c00cc9:	e9 62 fd ff ff       	jmp    c00a30 <yylex+0x15b>
  c00cce:	e8 f1 00 00 00       	call   c00dc4 <yy_get_next_buffer>
  c00cd3:	83 f8 01             	cmp    $0x1,%eax
  c00cd6:	74 12                	je     c00cea <yylex+0x415>
  c00cd8:	83 f8 02             	cmp    $0x2,%eax
  c00cdb:	0f 84 85 00 00 00    	je     c00d66 <yylex+0x491>
  c00ce1:	85 c0                	test   %eax,%eax
  c00ce3:	74 59                	je     c00d3e <yylex+0x469>
  c00ce5:	e9 cd 00 00 00       	jmp    c00db7 <yylex+0x4e2>
  c00cea:	c7 05 78 80 c0 00 00 	movl   $0x0,0xc08078
  c00cf1:	00 00 00 
  c00cf4:	e8 92 12 00 00       	call   c01f8b <yywrap>
  c00cf9:	85 c0                	test   %eax,%eax
  c00cfb:	74 23                	je     c00d20 <yylex+0x44b>
  c00cfd:	a1 d8 59 c2 00       	mov    0xc259d8,%eax
  c00d02:	a3 6c 80 c0 00       	mov    %eax,0xc0806c
  c00d07:	a1 74 80 c0 00       	mov    0xc08074,%eax
  c00d0c:	83 e8 01             	sub    $0x1,%eax
  c00d0f:	89 c2                	mov    %eax,%edx
  c00d11:	c1 ea 1f             	shr    $0x1f,%edx
  c00d14:	01 d0                	add    %edx,%eax
  c00d16:	d1 f8                	sar    %eax
  c00d18:	8d 58 0b             	lea    0xb(%eax),%ebx
  c00d1b:	e9 a0 fd ff ff       	jmp    c00ac0 <yylex+0x1eb>
  c00d20:	a1 78 80 c0 00       	mov    0xc08078,%eax
  c00d25:	85 c0                	test   %eax,%eax
  c00d27:	75 13                	jne    c00d3c <yylex+0x467>
  c00d29:	a1 44 80 c0 00       	mov    0xc08044,%eax
  c00d2e:	83 ec 0c             	sub    $0xc,%esp
  c00d31:	50                   	push   %eax
  c00d32:	e8 7a 08 00 00       	call   c015b1 <yyrestart>
  c00d37:	83 c4 10             	add    $0x10,%esp
  c00d3a:	eb 63                	jmp    c00d9f <yylex+0x4ca>
  c00d3c:	eb 61                	jmp    c00d9f <yylex+0x4ca>
  c00d3e:	8b 15 d8 59 c2 00    	mov    0xc259d8,%edx
  c00d44:	8b 45 e0             	mov    -0x20(%ebp),%eax
  c00d47:	01 d0                	add    %edx,%eax
  c00d49:	a3 6c 80 c0 00       	mov    %eax,0xc0806c
  c00d4e:	e8 6d 04 00 00       	call   c011c0 <yy_get_previous_state>
  c00d53:	89 c3                	mov    %eax,%ebx
  c00d55:	8b 35 6c 80 c0 00    	mov    0xc0806c,%esi
  c00d5b:	8b 3d d8 59 c2 00    	mov    0xc259d8,%edi
  c00d61:	e9 31 fc ff ff       	jmp    c00997 <yylex+0xc2>
  c00d66:	a1 60 80 c0 00       	mov    0xc08060,%eax
  c00d6b:	8b 15 58 80 c0 00    	mov    0xc08058,%edx
  c00d71:	c1 e2 02             	shl    $0x2,%edx
  c00d74:	01 d0                	add    %edx,%eax
  c00d76:	8b 00                	mov    (%eax),%eax
  c00d78:	8b 50 04             	mov    0x4(%eax),%edx
  c00d7b:	a1 68 80 c0 00       	mov    0xc08068,%eax
  c00d80:	01 d0                	add    %edx,%eax
  c00d82:	a3 6c 80 c0 00       	mov    %eax,0xc0806c
  c00d87:	e8 34 04 00 00       	call   c011c0 <yy_get_previous_state>
  c00d8c:	89 c3                	mov    %eax,%ebx
  c00d8e:	8b 35 6c 80 c0 00    	mov    0xc0806c,%esi
  c00d94:	8b 3d d8 59 c2 00    	mov    0xc259d8,%edi
  c00d9a:	e9 91 fc ff ff       	jmp    c00a30 <yylex+0x15b>
  c00d9f:	eb 16                	jmp    c00db7 <yylex+0x4e2>
  c00da1:	83 ec 0c             	sub    $0xc,%esp
  c00da4:	68 bc 4b c0 00       	push   $0xc04bbc
  c00da9:	e8 0a 10 00 00       	call   c01db8 <yy_fatal_error>
  c00dae:	83 c4 10             	add    $0x10,%esp
  c00db1:	e9 ca fb ff ff       	jmp    c00980 <yylex+0xab>
  c00db6:	90                   	nop
  c00db7:	e9 c4 fb ff ff       	jmp    c00980 <yylex+0xab>
  c00dbc:	8d 65 f4             	lea    -0xc(%ebp),%esp
  c00dbf:	5b                   	pop    %ebx
  c00dc0:	5e                   	pop    %esi
  c00dc1:	5f                   	pop    %edi
  c00dc2:	5d                   	pop    %ebp
  c00dc3:	c3                   	ret    

00c00dc4 <yy_get_next_buffer>:
  c00dc4:	55                   	push   %ebp
  c00dc5:	89 e5                	mov    %esp,%ebp
  c00dc7:	57                   	push   %edi
  c00dc8:	56                   	push   %esi
  c00dc9:	53                   	push   %ebx
  c00dca:	83 ec 3c             	sub    $0x3c,%esp
  c00dcd:	a1 60 80 c0 00       	mov    0xc08060,%eax
  c00dd2:	8b 15 58 80 c0 00    	mov    0xc08058,%edx
  c00dd8:	c1 e2 02             	shl    $0x2,%edx
  c00ddb:	01 d0                	add    %edx,%eax
  c00ddd:	8b 00                	mov    (%eax),%eax
  c00ddf:	8b 78 04             	mov    0x4(%eax),%edi
  c00de2:	a1 d8 59 c2 00       	mov    0xc259d8,%eax
  c00de7:	89 45 c4             	mov    %eax,-0x3c(%ebp)
  c00dea:	a1 60 80 c0 00       	mov    0xc08060,%eax
  c00def:	8b 15 58 80 c0 00    	mov    0xc08058,%edx
  c00df5:	c1 e2 02             	shl    $0x2,%edx
  c00df8:	01 d0                	add    %edx,%eax
  c00dfa:	8b 00                	mov    (%eax),%eax
  c00dfc:	8b 40 04             	mov    0x4(%eax),%eax
  c00dff:	8b 15 68 80 c0 00    	mov    0xc08068,%edx
  c00e05:	83 c2 01             	add    $0x1,%edx
  c00e08:	01 c2                	add    %eax,%edx
  c00e0a:	a1 6c 80 c0 00       	mov    0xc0806c,%eax
  c00e0f:	39 c2                	cmp    %eax,%edx
  c00e11:	73 10                	jae    c00e23 <yy_get_next_buffer+0x5f>
  c00e13:	83 ec 0c             	sub    $0xc,%esp
  c00e16:	68 20 4c c0 00       	push   $0xc04c20
  c00e1b:	e8 98 0f 00 00       	call   c01db8 <yy_fatal_error>
  c00e20:	83 c4 10             	add    $0x10,%esp
  c00e23:	a1 60 80 c0 00       	mov    0xc08060,%eax
  c00e28:	8b 15 58 80 c0 00    	mov    0xc08058,%edx
  c00e2e:	c1 e2 02             	shl    $0x2,%edx
  c00e31:	01 d0                	add    %edx,%eax
  c00e33:	8b 00                	mov    (%eax),%eax
  c00e35:	8b 40 28             	mov    0x28(%eax),%eax
  c00e38:	85 c0                	test   %eax,%eax
  c00e3a:	75 29                	jne    c00e65 <yy_get_next_buffer+0xa1>
  c00e3c:	a1 6c 80 c0 00       	mov    0xc0806c,%eax
  c00e41:	89 c2                	mov    %eax,%edx
  c00e43:	a1 d8 59 c2 00       	mov    0xc259d8,%eax
  c00e48:	29 c2                	sub    %eax,%edx
  c00e4a:	89 d0                	mov    %edx,%eax
  c00e4c:	83 f8 01             	cmp    $0x1,%eax
  c00e4f:	75 0a                	jne    c00e5b <yy_get_next_buffer+0x97>
  c00e51:	b8 01 00 00 00       	mov    $0x1,%eax
  c00e56:	e9 5d 03 00 00       	jmp    c011b8 <yy_get_next_buffer+0x3f4>
  c00e5b:	b8 02 00 00 00       	mov    $0x2,%eax
  c00e60:	e9 53 03 00 00       	jmp    c011b8 <yy_get_next_buffer+0x3f4>
  c00e65:	a1 6c 80 c0 00       	mov    0xc0806c,%eax
  c00e6a:	89 c2                	mov    %eax,%edx
  c00e6c:	a1 d8 59 c2 00       	mov    0xc259d8,%eax
  c00e71:	29 c2                	sub    %eax,%edx
  c00e73:	89 d0                	mov    %edx,%eax
  c00e75:	8d 58 ff             	lea    -0x1(%eax),%ebx
  c00e78:	be 00 00 00 00       	mov    $0x0,%esi
  c00e7d:	eb 16                	jmp    c00e95 <yy_get_next_buffer+0xd1>
  c00e7f:	89 f8                	mov    %edi,%eax
  c00e81:	8d 78 01             	lea    0x1(%eax),%edi
  c00e84:	8b 55 c4             	mov    -0x3c(%ebp),%edx
  c00e87:	8d 4a 01             	lea    0x1(%edx),%ecx
  c00e8a:	89 4d c4             	mov    %ecx,-0x3c(%ebp)
  c00e8d:	0f b6 12             	movzbl (%edx),%edx
  c00e90:	88 10                	mov    %dl,(%eax)
  c00e92:	83 c6 01             	add    $0x1,%esi
  c00e95:	39 de                	cmp    %ebx,%esi
  c00e97:	7c e6                	jl     c00e7f <yy_get_next_buffer+0xbb>
  c00e99:	a1 60 80 c0 00       	mov    0xc08060,%eax
  c00e9e:	8b 15 58 80 c0 00    	mov    0xc08058,%edx
  c00ea4:	c1 e2 02             	shl    $0x2,%edx
  c00ea7:	01 d0                	add    %edx,%eax
  c00ea9:	8b 00                	mov    (%eax),%eax
  c00eab:	8b 40 2c             	mov    0x2c(%eax),%eax
  c00eae:	83 f8 02             	cmp    $0x2,%eax
  c00eb1:	75 2a                	jne    c00edd <yy_get_next_buffer+0x119>
  c00eb3:	a1 60 80 c0 00       	mov    0xc08060,%eax
  c00eb8:	8b 15 58 80 c0 00    	mov    0xc08058,%edx
  c00ebe:	c1 e2 02             	shl    $0x2,%edx
  c00ec1:	01 d0                	add    %edx,%eax
  c00ec3:	8b 00                	mov    (%eax),%eax
  c00ec5:	c7 05 68 80 c0 00 00 	movl   $0x0,0xc08068
  c00ecc:	00 00 00 
  c00ecf:	8b 15 68 80 c0 00    	mov    0xc08068,%edx
  c00ed5:	89 50 10             	mov    %edx,0x10(%eax)
  c00ed8:	e9 81 01 00 00       	jmp    c0105e <yy_get_next_buffer+0x29a>
  c00edd:	a1 60 80 c0 00       	mov    0xc08060,%eax
  c00ee2:	8b 15 58 80 c0 00    	mov    0xc08058,%edx
  c00ee8:	c1 e2 02             	shl    $0x2,%edx
  c00eeb:	01 d0                	add    %edx,%eax
  c00eed:	8b 00                	mov    (%eax),%eax
  c00eef:	8b 50 0c             	mov    0xc(%eax),%edx
  c00ef2:	89 d8                	mov    %ebx,%eax
  c00ef4:	29 c2                	sub    %eax,%edx
  c00ef6:	89 d0                	mov    %edx,%eax
  c00ef8:	83 e8 01             	sub    $0x1,%eax
  c00efb:	89 45 e0             	mov    %eax,-0x20(%ebp)
  c00efe:	e9 e5 00 00 00       	jmp    c00fe8 <yy_get_next_buffer+0x224>
  c00f03:	a1 60 80 c0 00       	mov    0xc08060,%eax
  c00f08:	8b 15 58 80 c0 00    	mov    0xc08058,%edx
  c00f0e:	c1 e2 02             	shl    $0x2,%edx
  c00f11:	01 d0                	add    %edx,%eax
  c00f13:	8b 00                	mov    (%eax),%eax
  c00f15:	89 45 dc             	mov    %eax,-0x24(%ebp)
  c00f18:	a1 6c 80 c0 00       	mov    0xc0806c,%eax
  c00f1d:	89 c2                	mov    %eax,%edx
  c00f1f:	8b 45 dc             	mov    -0x24(%ebp),%eax
  c00f22:	8b 40 04             	mov    0x4(%eax),%eax
  c00f25:	29 c2                	sub    %eax,%edx
  c00f27:	89 d0                	mov    %edx,%eax
  c00f29:	89 45 d8             	mov    %eax,-0x28(%ebp)
  c00f2c:	8b 45 dc             	mov    -0x24(%ebp),%eax
  c00f2f:	8b 40 14             	mov    0x14(%eax),%eax
  c00f32:	85 c0                	test   %eax,%eax
  c00f34:	74 5d                	je     c00f93 <yy_get_next_buffer+0x1cf>
  c00f36:	8b 45 dc             	mov    -0x24(%ebp),%eax
  c00f39:	8b 40 0c             	mov    0xc(%eax),%eax
  c00f3c:	01 c0                	add    %eax,%eax
  c00f3e:	89 45 d4             	mov    %eax,-0x2c(%ebp)
  c00f41:	83 7d d4 00          	cmpl   $0x0,-0x2c(%ebp)
  c00f45:	75 19                	jne    c00f60 <yy_get_next_buffer+0x19c>
  c00f47:	8b 45 dc             	mov    -0x24(%ebp),%eax
  c00f4a:	8b 50 0c             	mov    0xc(%eax),%edx
  c00f4d:	8b 45 dc             	mov    -0x24(%ebp),%eax
  c00f50:	8b 40 0c             	mov    0xc(%eax),%eax
  c00f53:	c1 e8 03             	shr    $0x3,%eax
  c00f56:	01 c2                	add    %eax,%edx
  c00f58:	8b 45 dc             	mov    -0x24(%ebp),%eax
  c00f5b:	89 50 0c             	mov    %edx,0xc(%eax)
  c00f5e:	eb 0f                	jmp    c00f6f <yy_get_next_buffer+0x1ab>
  c00f60:	8b 45 dc             	mov    -0x24(%ebp),%eax
  c00f63:	8b 40 0c             	mov    0xc(%eax),%eax
  c00f66:	8d 14 00             	lea    (%eax,%eax,1),%edx
  c00f69:	8b 45 dc             	mov    -0x24(%ebp),%eax
  c00f6c:	89 50 0c             	mov    %edx,0xc(%eax)
  c00f6f:	8b 45 dc             	mov    -0x24(%ebp),%eax
  c00f72:	8b 40 0c             	mov    0xc(%eax),%eax
  c00f75:	8d 50 02             	lea    0x2(%eax),%edx
  c00f78:	8b 45 dc             	mov    -0x24(%ebp),%eax
  c00f7b:	8b 40 04             	mov    0x4(%eax),%eax
  c00f7e:	83 ec 08             	sub    $0x8,%esp
  c00f81:	52                   	push   %edx
  c00f82:	50                   	push   %eax
  c00f83:	e8 d4 0f 00 00       	call   c01f5c <yyrealloc>
  c00f88:	83 c4 10             	add    $0x10,%esp
  c00f8b:	8b 55 dc             	mov    -0x24(%ebp),%edx
  c00f8e:	89 42 04             	mov    %eax,0x4(%edx)
  c00f91:	eb 0a                	jmp    c00f9d <yy_get_next_buffer+0x1d9>
  c00f93:	8b 45 dc             	mov    -0x24(%ebp),%eax
  c00f96:	c7 40 04 00 00 00 00 	movl   $0x0,0x4(%eax)
  c00f9d:	8b 45 dc             	mov    -0x24(%ebp),%eax
  c00fa0:	8b 40 04             	mov    0x4(%eax),%eax
  c00fa3:	85 c0                	test   %eax,%eax
  c00fa5:	75 10                	jne    c00fb7 <yy_get_next_buffer+0x1f3>
  c00fa7:	83 ec 0c             	sub    $0xc,%esp
  c00faa:	68 58 4c c0 00       	push   $0xc04c58
  c00faf:	e8 04 0e 00 00       	call   c01db8 <yy_fatal_error>
  c00fb4:	83 c4 10             	add    $0x10,%esp
  c00fb7:	8b 45 dc             	mov    -0x24(%ebp),%eax
  c00fba:	8b 50 04             	mov    0x4(%eax),%edx
  c00fbd:	8b 45 d8             	mov    -0x28(%ebp),%eax
  c00fc0:	01 d0                	add    %edx,%eax
  c00fc2:	a3 6c 80 c0 00       	mov    %eax,0xc0806c
  c00fc7:	a1 60 80 c0 00       	mov    0xc08060,%eax
  c00fcc:	8b 15 58 80 c0 00    	mov    0xc08058,%edx
  c00fd2:	c1 e2 02             	shl    $0x2,%edx
  c00fd5:	01 d0                	add    %edx,%eax
  c00fd7:	8b 00                	mov    (%eax),%eax
  c00fd9:	8b 50 0c             	mov    0xc(%eax),%edx
  c00fdc:	89 d8                	mov    %ebx,%eax
  c00fde:	29 c2                	sub    %eax,%edx
  c00fe0:	89 d0                	mov    %edx,%eax
  c00fe2:	83 e8 01             	sub    $0x1,%eax
  c00fe5:	89 45 e0             	mov    %eax,-0x20(%ebp)
  c00fe8:	83 7d e0 00          	cmpl   $0x0,-0x20(%ebp)
  c00fec:	0f 84 11 ff ff ff    	je     c00f03 <yy_get_next_buffer+0x13f>
  c00ff2:	81 7d e0 00 20 00 00 	cmpl   $0x2000,-0x20(%ebp)
  c00ff9:	76 07                	jbe    c01002 <yy_get_next_buffer+0x23e>
  c00ffb:	c7 45 e0 00 20 00 00 	movl   $0x2000,-0x20(%ebp)
  c01002:	8b 75 e0             	mov    -0x20(%ebp),%esi
  c01005:	a1 60 80 c0 00       	mov    0xc08060,%eax
  c0100a:	8b 15 58 80 c0 00    	mov    0xc08058,%edx
  c01010:	c1 e2 02             	shl    $0x2,%edx
  c01013:	01 d0                	add    %edx,%eax
  c01015:	8b 00                	mov    (%eax),%eax
  c01017:	8b 50 04             	mov    0x4(%eax),%edx
  c0101a:	89 d8                	mov    %ebx,%eax
  c0101c:	8d 3c 02             	lea    (%edx,%eax,1),%edi
  c0101f:	a1 04 80 c0 00       	mov    0xc08004,%eax
  c01024:	83 ec 0c             	sub    $0xc,%esp
  c01027:	50                   	push   %eax
  c01028:	e8 52 f8 ff ff       	call   c0087f <fileno>
  c0102d:	83 c4 10             	add    $0x10,%esp
  c01030:	83 ec 04             	sub    $0x4,%esp
  c01033:	56                   	push   %esi
  c01034:	57                   	push   %edi
  c01035:	50                   	push   %eax
  c01036:	e8 3a 22 00 00       	call   c03275 <read>
  c0103b:	83 c4 10             	add    $0x10,%esp
  c0103e:	a3 68 80 c0 00       	mov    %eax,0xc08068
  c01043:	a1 60 80 c0 00       	mov    0xc08060,%eax
  c01048:	8b 15 58 80 c0 00    	mov    0xc08058,%edx
  c0104e:	c1 e2 02             	shl    $0x2,%edx
  c01051:	01 d0                	add    %edx,%eax
  c01053:	8b 00                	mov    (%eax),%eax
  c01055:	8b 15 68 80 c0 00    	mov    0xc08068,%edx
  c0105b:	89 50 10             	mov    %edx,0x10(%eax)
  c0105e:	a1 68 80 c0 00       	mov    0xc08068,%eax
  c01063:	85 c0                	test   %eax,%eax
  c01065:	75 40                	jne    c010a7 <yy_get_next_buffer+0x2e3>
  c01067:	85 db                	test   %ebx,%ebx
  c01069:	75 1a                	jne    c01085 <yy_get_next_buffer+0x2c1>
  c0106b:	c7 45 e4 01 00 00 00 	movl   $0x1,-0x1c(%ebp)
  c01072:	a1 44 80 c0 00       	mov    0xc08044,%eax
  c01077:	83 ec 0c             	sub    $0xc,%esp
  c0107a:	50                   	push   %eax
  c0107b:	e8 31 05 00 00       	call   c015b1 <yyrestart>
  c01080:	83 c4 10             	add    $0x10,%esp
  c01083:	eb 29                	jmp    c010ae <yy_get_next_buffer+0x2ea>
  c01085:	c7 45 e4 02 00 00 00 	movl   $0x2,-0x1c(%ebp)
  c0108c:	a1 60 80 c0 00       	mov    0xc08060,%eax
  c01091:	8b 15 58 80 c0 00    	mov    0xc08058,%edx
  c01097:	c1 e2 02             	shl    $0x2,%edx
  c0109a:	01 d0                	add    %edx,%eax
  c0109c:	8b 00                	mov    (%eax),%eax
  c0109e:	c7 40 2c 02 00 00 00 	movl   $0x2,0x2c(%eax)
  c010a5:	eb 07                	jmp    c010ae <yy_get_next_buffer+0x2ea>
  c010a7:	c7 45 e4 00 00 00 00 	movl   $0x0,-0x1c(%ebp)
  c010ae:	8b 15 68 80 c0 00    	mov    0xc08068,%edx
  c010b4:	89 d8                	mov    %ebx,%eax
  c010b6:	8d 0c 02             	lea    (%edx,%eax,1),%ecx
  c010b9:	a1 60 80 c0 00       	mov    0xc08060,%eax
  c010be:	8b 15 58 80 c0 00    	mov    0xc08058,%edx
  c010c4:	c1 e2 02             	shl    $0x2,%edx
  c010c7:	01 d0                	add    %edx,%eax
  c010c9:	8b 00                	mov    (%eax),%eax
  c010cb:	8b 40 0c             	mov    0xc(%eax),%eax
  c010ce:	39 c1                	cmp    %eax,%ecx
  c010d0:	76 78                	jbe    c0114a <yy_get_next_buffer+0x386>
  c010d2:	8b 15 68 80 c0 00    	mov    0xc08068,%edx
  c010d8:	89 d8                	mov    %ebx,%eax
  c010da:	01 c2                	add    %eax,%edx
  c010dc:	a1 68 80 c0 00       	mov    0xc08068,%eax
  c010e1:	d1 e8                	shr    %eax
  c010e3:	01 d0                	add    %edx,%eax
  c010e5:	89 45 d0             	mov    %eax,-0x30(%ebp)
  c010e8:	a1 60 80 c0 00       	mov    0xc08060,%eax
  c010ed:	8b 15 58 80 c0 00    	mov    0xc08058,%edx
  c010f3:	c1 e2 02             	shl    $0x2,%edx
  c010f6:	01 d0                	add    %edx,%eax
  c010f8:	8b 30                	mov    (%eax),%esi
  c010fa:	a1 60 80 c0 00       	mov    0xc08060,%eax
  c010ff:	8b 15 58 80 c0 00    	mov    0xc08058,%edx
  c01105:	c1 e2 02             	shl    $0x2,%edx
  c01108:	01 d0                	add    %edx,%eax
  c0110a:	8b 00                	mov    (%eax),%eax
  c0110c:	8b 40 04             	mov    0x4(%eax),%eax
  c0110f:	83 ec 08             	sub    $0x8,%esp
  c01112:	ff 75 d0             	pushl  -0x30(%ebp)
  c01115:	50                   	push   %eax
  c01116:	e8 41 0e 00 00       	call   c01f5c <yyrealloc>
  c0111b:	83 c4 10             	add    $0x10,%esp
  c0111e:	89 46 04             	mov    %eax,0x4(%esi)
  c01121:	a1 60 80 c0 00       	mov    0xc08060,%eax
  c01126:	8b 15 58 80 c0 00    	mov    0xc08058,%edx
  c0112c:	c1 e2 02             	shl    $0x2,%edx
  c0112f:	01 d0                	add    %edx,%eax
  c01131:	8b 00                	mov    (%eax),%eax
  c01133:	8b 40 04             	mov    0x4(%eax),%eax
  c01136:	85 c0                	test   %eax,%eax
  c01138:	75 10                	jne    c0114a <yy_get_next_buffer+0x386>
  c0113a:	83 ec 0c             	sub    $0xc,%esp
  c0113d:	68 84 4c c0 00       	push   $0xc04c84
  c01142:	e8 71 0c 00 00       	call   c01db8 <yy_fatal_error>
  c01147:	83 c4 10             	add    $0x10,%esp
  c0114a:	8b 15 68 80 c0 00    	mov    0xc08068,%edx
  c01150:	89 d8                	mov    %ebx,%eax
  c01152:	01 d0                	add    %edx,%eax
  c01154:	a3 68 80 c0 00       	mov    %eax,0xc08068
  c01159:	a1 60 80 c0 00       	mov    0xc08060,%eax
  c0115e:	8b 15 58 80 c0 00    	mov    0xc08058,%edx
  c01164:	c1 e2 02             	shl    $0x2,%edx
  c01167:	01 d0                	add    %edx,%eax
  c01169:	8b 00                	mov    (%eax),%eax
  c0116b:	8b 50 04             	mov    0x4(%eax),%edx
  c0116e:	a1 68 80 c0 00       	mov    0xc08068,%eax
  c01173:	01 d0                	add    %edx,%eax
  c01175:	c6 00 00             	movb   $0x0,(%eax)
  c01178:	a1 60 80 c0 00       	mov    0xc08060,%eax
  c0117d:	8b 15 58 80 c0 00    	mov    0xc08058,%edx
  c01183:	c1 e2 02             	shl    $0x2,%edx
  c01186:	01 d0                	add    %edx,%eax
  c01188:	8b 00                	mov    (%eax),%eax
  c0118a:	8b 40 04             	mov    0x4(%eax),%eax
  c0118d:	8b 15 68 80 c0 00    	mov    0xc08068,%edx
  c01193:	83 c2 01             	add    $0x1,%edx
  c01196:	01 d0                	add    %edx,%eax
  c01198:	c6 00 00             	movb   $0x0,(%eax)
  c0119b:	a1 60 80 c0 00       	mov    0xc08060,%eax
  c011a0:	8b 15 58 80 c0 00    	mov    0xc08058,%edx
  c011a6:	c1 e2 02             	shl    $0x2,%edx
  c011a9:	01 d0                	add    %edx,%eax
  c011ab:	8b 00                	mov    (%eax),%eax
  c011ad:	8b 40 04             	mov    0x4(%eax),%eax
  c011b0:	a3 d8 59 c2 00       	mov    %eax,0xc259d8
  c011b5:	8b 45 e4             	mov    -0x1c(%ebp),%eax
  c011b8:	8d 65 f4             	lea    -0xc(%ebp),%esp
  c011bb:	5b                   	pop    %ebx
  c011bc:	5e                   	pop    %esi
  c011bd:	5f                   	pop    %edi
  c011be:	5d                   	pop    %ebp
  c011bf:	c3                   	ret    

00c011c0 <yy_get_previous_state>:
  c011c0:	55                   	push   %ebp
  c011c1:	89 e5                	mov    %esp,%ebp
  c011c3:	57                   	push   %edi
  c011c4:	56                   	push   %esi
  c011c5:	53                   	push   %ebx
  c011c6:	8b 1d 74 80 c0 00    	mov    0xc08074,%ebx
  c011cc:	8b 35 d8 59 c2 00    	mov    0xc259d8,%esi
  c011d2:	e9 95 00 00 00       	jmp    c0126c <yy_get_previous_state+0xac>
  c011d7:	0f b6 06             	movzbl (%esi),%eax
  c011da:	84 c0                	test   %al,%al
  c011dc:	74 0f                	je     c011ed <yy_get_previous_state+0x2d>
  c011de:	0f b6 06             	movzbl (%esi),%eax
  c011e1:	0f b6 c0             	movzbl %al,%eax
  c011e4:	8b 04 85 40 45 c0 00 	mov    0xc04540(,%eax,4),%eax
  c011eb:	eb 05                	jmp    c011f2 <yy_get_previous_state+0x32>
  c011ed:	b8 01 00 00 00       	mov    $0x1,%eax
  c011f2:	89 c7                	mov    %eax,%edi
  c011f4:	0f b7 84 1b 00 45 c0 	movzwl 0xc04500(%ebx,%ebx,1),%eax
  c011fb:	00 
  c011fc:	66 85 c0             	test   %ax,%ax
  c011ff:	74 0c                	je     c0120d <yy_get_previous_state+0x4d>
  c01201:	89 1d 7c 80 c0 00    	mov    %ebx,0xc0807c
  c01207:	89 35 80 80 c0 00    	mov    %esi,0xc08080
  c0120d:	eb 1e                	jmp    c0122d <yy_get_previous_state+0x6d>
  c0120f:	0f b7 84 1b c0 49 c0 	movzwl 0xc049c0(%ebx,%ebx,1),%eax
  c01216:	00 
  c01217:	0f bf d8             	movswl %ax,%ebx
  c0121a:	83 fb 18             	cmp    $0x18,%ebx
  c0121d:	7e 0e                	jle    c0122d <yy_get_previous_state+0x6d>
  c0121f:	89 f8                	mov    %edi,%eax
  c01221:	0f b6 c0             	movzbl %al,%eax
  c01224:	8b 04 85 40 49 c0 00 	mov    0xc04940(,%eax,4),%eax
  c0122b:	89 c7                	mov    %eax,%edi
  c0122d:	0f b7 84 1b 80 49 c0 	movzwl 0xc04980(%ebx,%ebx,1),%eax
  c01234:	00 
  c01235:	0f bf d0             	movswl %ax,%edx
  c01238:	89 f8                	mov    %edi,%eax
  c0123a:	0f b6 c0             	movzbl %al,%eax
  c0123d:	01 d0                	add    %edx,%eax
  c0123f:	0f b7 84 00 c0 4a c0 	movzwl 0xc04ac0(%eax,%eax,1),%eax
  c01246:	00 
  c01247:	98                   	cwtl   
  c01248:	39 d8                	cmp    %ebx,%eax
  c0124a:	75 c3                	jne    c0120f <yy_get_previous_state+0x4f>
  c0124c:	0f b7 84 1b 80 49 c0 	movzwl 0xc04980(%ebx,%ebx,1),%eax
  c01253:	00 
  c01254:	0f bf d0             	movswl %ax,%edx
  c01257:	89 f8                	mov    %edi,%eax
  c01259:	0f b6 c0             	movzbl %al,%eax
  c0125c:	01 d0                	add    %edx,%eax
  c0125e:	0f b7 84 00 00 4a c0 	movzwl 0xc04a00(%eax,%eax,1),%eax
  c01265:	00 
  c01266:	0f bf d8             	movswl %ax,%ebx
  c01269:	83 c6 01             	add    $0x1,%esi
  c0126c:	a1 6c 80 c0 00       	mov    0xc0806c,%eax
  c01271:	39 c6                	cmp    %eax,%esi
  c01273:	0f 82 5e ff ff ff    	jb     c011d7 <yy_get_previous_state+0x17>
  c01279:	89 d8                	mov    %ebx,%eax
  c0127b:	5b                   	pop    %ebx
  c0127c:	5e                   	pop    %esi
  c0127d:	5f                   	pop    %edi
  c0127e:	5d                   	pop    %ebp
  c0127f:	c3                   	ret    

00c01280 <yy_try_NUL_trans>:
  c01280:	55                   	push   %ebp
  c01281:	89 e5                	mov    %esp,%ebp
  c01283:	56                   	push   %esi
  c01284:	53                   	push   %ebx
  c01285:	8b 35 6c 80 c0 00    	mov    0xc0806c,%esi
  c0128b:	bb 01 00 00 00       	mov    $0x1,%ebx
  c01290:	8b 45 08             	mov    0x8(%ebp),%eax
  c01293:	0f b7 84 00 00 45 c0 	movzwl 0xc04500(%eax,%eax,1),%eax
  c0129a:	00 
  c0129b:	66 85 c0             	test   %ax,%ax
  c0129e:	74 0e                	je     c012ae <yy_try_NUL_trans+0x2e>
  c012a0:	8b 45 08             	mov    0x8(%ebp),%eax
  c012a3:	a3 7c 80 c0 00       	mov    %eax,0xc0807c
  c012a8:	89 35 80 80 c0 00    	mov    %esi,0xc08080
  c012ae:	eb 21                	jmp    c012d1 <yy_try_NUL_trans+0x51>
  c012b0:	8b 45 08             	mov    0x8(%ebp),%eax
  c012b3:	0f b7 84 00 c0 49 c0 	movzwl 0xc049c0(%eax,%eax,1),%eax
  c012ba:	00 
  c012bb:	98                   	cwtl   
  c012bc:	89 45 08             	mov    %eax,0x8(%ebp)
  c012bf:	83 7d 08 18          	cmpl   $0x18,0x8(%ebp)
  c012c3:	7e 0c                	jle    c012d1 <yy_try_NUL_trans+0x51>
  c012c5:	0f b6 c3             	movzbl %bl,%eax
  c012c8:	8b 04 85 40 49 c0 00 	mov    0xc04940(,%eax,4),%eax
  c012cf:	89 c3                	mov    %eax,%ebx
  c012d1:	8b 45 08             	mov    0x8(%ebp),%eax
  c012d4:	0f b7 84 00 80 49 c0 	movzwl 0xc04980(%eax,%eax,1),%eax
  c012db:	00 
  c012dc:	0f bf d0             	movswl %ax,%edx
  c012df:	0f b6 c3             	movzbl %bl,%eax
  c012e2:	01 d0                	add    %edx,%eax
  c012e4:	0f b7 84 00 c0 4a c0 	movzwl 0xc04ac0(%eax,%eax,1),%eax
  c012eb:	00 
  c012ec:	98                   	cwtl   
  c012ed:	3b 45 08             	cmp    0x8(%ebp),%eax
  c012f0:	75 be                	jne    c012b0 <yy_try_NUL_trans+0x30>
  c012f2:	8b 45 08             	mov    0x8(%ebp),%eax
  c012f5:	0f b7 84 00 80 49 c0 	movzwl 0xc04980(%eax,%eax,1),%eax
  c012fc:	00 
  c012fd:	0f bf d0             	movswl %ax,%edx
  c01300:	0f b6 c3             	movzbl %bl,%eax
  c01303:	01 d0                	add    %edx,%eax
  c01305:	0f b7 84 00 00 4a c0 	movzwl 0xc04a00(%eax,%eax,1),%eax
  c0130c:	00 
  c0130d:	98                   	cwtl   
  c0130e:	89 45 08             	mov    %eax,0x8(%ebp)
  c01311:	83 7d 08 18          	cmpl   $0x18,0x8(%ebp)
  c01315:	0f 94 c0             	sete   %al
  c01318:	0f b6 d8             	movzbl %al,%ebx
  c0131b:	85 db                	test   %ebx,%ebx
  c0131d:	75 05                	jne    c01324 <yy_try_NUL_trans+0xa4>
  c0131f:	8b 45 08             	mov    0x8(%ebp),%eax
  c01322:	eb 05                	jmp    c01329 <yy_try_NUL_trans+0xa9>
  c01324:	b8 00 00 00 00       	mov    $0x0,%eax
  c01329:	5b                   	pop    %ebx
  c0132a:	5e                   	pop    %esi
  c0132b:	5d                   	pop    %ebp
  c0132c:	c3                   	ret    

00c0132d <yyunput>:
  c0132d:	55                   	push   %ebp
  c0132e:	89 e5                	mov    %esp,%ebp
  c01330:	57                   	push   %edi
  c01331:	56                   	push   %esi
  c01332:	53                   	push   %ebx
  c01333:	83 ec 0c             	sub    $0xc,%esp
  c01336:	8b 1d 6c 80 c0 00    	mov    0xc0806c,%ebx
  c0133c:	0f b6 05 64 80 c0 00 	movzbl 0xc08064,%eax
  c01343:	88 03                	mov    %al,(%ebx)
  c01345:	a1 60 80 c0 00       	mov    0xc08060,%eax
  c0134a:	8b 15 58 80 c0 00    	mov    0xc08058,%edx
  c01350:	c1 e2 02             	shl    $0x2,%edx
  c01353:	01 d0                	add    %edx,%eax
  c01355:	8b 00                	mov    (%eax),%eax
  c01357:	8b 40 04             	mov    0x4(%eax),%eax
  c0135a:	83 c0 02             	add    $0x2,%eax
  c0135d:	39 d8                	cmp    %ebx,%eax
  c0135f:	0f 86 ed 00 00 00    	jbe    c01452 <yyunput+0x125>
  c01365:	a1 68 80 c0 00       	mov    0xc08068,%eax
  c0136a:	8d 70 02             	lea    0x2(%eax),%esi
  c0136d:	a1 60 80 c0 00       	mov    0xc08060,%eax
  c01372:	8b 15 58 80 c0 00    	mov    0xc08058,%edx
  c01378:	c1 e2 02             	shl    $0x2,%edx
  c0137b:	01 d0                	add    %edx,%eax
  c0137d:	8b 00                	mov    (%eax),%eax
  c0137f:	8b 50 04             	mov    0x4(%eax),%edx
  c01382:	a1 60 80 c0 00       	mov    0xc08060,%eax
  c01387:	8b 0d 58 80 c0 00    	mov    0xc08058,%ecx
  c0138d:	c1 e1 02             	shl    $0x2,%ecx
  c01390:	01 c8                	add    %ecx,%eax
  c01392:	8b 00                	mov    (%eax),%eax
  c01394:	8b 40 0c             	mov    0xc(%eax),%eax
  c01397:	83 c0 02             	add    $0x2,%eax
  c0139a:	8d 3c 02             	lea    (%edx,%eax,1),%edi
  c0139d:	a1 60 80 c0 00       	mov    0xc08060,%eax
  c013a2:	8b 15 58 80 c0 00    	mov    0xc08058,%edx
  c013a8:	c1 e2 02             	shl    $0x2,%edx
  c013ab:	01 d0                	add    %edx,%eax
  c013ad:	8b 00                	mov    (%eax),%eax
  c013af:	8b 40 04             	mov    0x4(%eax),%eax
  c013b2:	01 c6                	add    %eax,%esi
  c013b4:	eb 0b                	jmp    c013c1 <yyunput+0x94>
  c013b6:	83 ef 01             	sub    $0x1,%edi
  c013b9:	83 ee 01             	sub    $0x1,%esi
  c013bc:	0f b6 06             	movzbl (%esi),%eax
  c013bf:	88 07                	mov    %al,(%edi)
  c013c1:	a1 60 80 c0 00       	mov    0xc08060,%eax
  c013c6:	8b 15 58 80 c0 00    	mov    0xc08058,%edx
  c013cc:	c1 e2 02             	shl    $0x2,%edx
  c013cf:	01 d0                	add    %edx,%eax
  c013d1:	8b 00                	mov    (%eax),%eax
  c013d3:	8b 40 04             	mov    0x4(%eax),%eax
  c013d6:	39 f0                	cmp    %esi,%eax
  c013d8:	72 dc                	jb     c013b6 <yyunput+0x89>
  c013da:	89 fa                	mov    %edi,%edx
  c013dc:	89 f0                	mov    %esi,%eax
  c013de:	29 c2                	sub    %eax,%edx
  c013e0:	89 d0                	mov    %edx,%eax
  c013e2:	01 c3                	add    %eax,%ebx
  c013e4:	89 fa                	mov    %edi,%edx
  c013e6:	89 f0                	mov    %esi,%eax
  c013e8:	29 c2                	sub    %eax,%edx
  c013ea:	89 d0                	mov    %edx,%eax
  c013ec:	01 45 0c             	add    %eax,0xc(%ebp)
  c013ef:	a1 60 80 c0 00       	mov    0xc08060,%eax
  c013f4:	8b 15 58 80 c0 00    	mov    0xc08058,%edx
  c013fa:	c1 e2 02             	shl    $0x2,%edx
  c013fd:	01 d0                	add    %edx,%eax
  c013ff:	8b 00                	mov    (%eax),%eax
  c01401:	8b 15 60 80 c0 00    	mov    0xc08060,%edx
  c01407:	8b 0d 58 80 c0 00    	mov    0xc08058,%ecx
  c0140d:	c1 e1 02             	shl    $0x2,%ecx
  c01410:	01 ca                	add    %ecx,%edx
  c01412:	8b 12                	mov    (%edx),%edx
  c01414:	8b 52 0c             	mov    0xc(%edx),%edx
  c01417:	89 15 68 80 c0 00    	mov    %edx,0xc08068
  c0141d:	8b 15 68 80 c0 00    	mov    0xc08068,%edx
  c01423:	89 50 10             	mov    %edx,0x10(%eax)
  c01426:	a1 60 80 c0 00       	mov    0xc08060,%eax
  c0142b:	8b 15 58 80 c0 00    	mov    0xc08058,%edx
  c01431:	c1 e2 02             	shl    $0x2,%edx
  c01434:	01 d0                	add    %edx,%eax
  c01436:	8b 00                	mov    (%eax),%eax
  c01438:	8b 40 04             	mov    0x4(%eax),%eax
  c0143b:	83 c0 02             	add    $0x2,%eax
  c0143e:	39 d8                	cmp    %ebx,%eax
  c01440:	76 10                	jbe    c01452 <yyunput+0x125>
  c01442:	83 ec 0c             	sub    $0xc,%esp
  c01445:	68 b4 4c c0 00       	push   $0xc04cb4
  c0144a:	e8 69 09 00 00       	call   c01db8 <yy_fatal_error>
  c0144f:	83 c4 10             	add    $0x10,%esp
  c01452:	83 eb 01             	sub    $0x1,%ebx
  c01455:	8b 45 08             	mov    0x8(%ebp),%eax
  c01458:	88 03                	mov    %al,(%ebx)
  c0145a:	83 7d 08 0a          	cmpl   $0xa,0x8(%ebp)
  c0145e:	75 0d                	jne    c0146d <yyunput+0x140>
  c01460:	a1 0c 80 c0 00       	mov    0xc0800c,%eax
  c01465:	83 e8 01             	sub    $0x1,%eax
  c01468:	a3 0c 80 c0 00       	mov    %eax,0xc0800c
  c0146d:	8b 45 0c             	mov    0xc(%ebp),%eax
  c01470:	a3 d8 59 c2 00       	mov    %eax,0xc259d8
  c01475:	0f b6 03             	movzbl (%ebx),%eax
  c01478:	a2 64 80 c0 00       	mov    %al,0xc08064
  c0147d:	89 1d 6c 80 c0 00    	mov    %ebx,0xc0806c
  c01483:	8d 65 f4             	lea    -0xc(%ebp),%esp
  c01486:	5b                   	pop    %ebx
  c01487:	5e                   	pop    %esi
  c01488:	5f                   	pop    %edi
  c01489:	5d                   	pop    %ebp
  c0148a:	c3                   	ret    

00c0148b <input>:
  c0148b:	55                   	push   %ebp
  c0148c:	89 e5                	mov    %esp,%ebp
  c0148e:	83 ec 18             	sub    $0x18,%esp
  c01491:	a1 6c 80 c0 00       	mov    0xc0806c,%eax
  c01496:	0f b6 15 64 80 c0 00 	movzbl 0xc08064,%edx
  c0149d:	88 10                	mov    %dl,(%eax)
  c0149f:	a1 6c 80 c0 00       	mov    0xc0806c,%eax
  c014a4:	0f b6 00             	movzbl (%eax),%eax
  c014a7:	84 c0                	test   %al,%al
  c014a9:	0f 85 ba 00 00 00    	jne    c01569 <input+0xde>
  c014af:	a1 60 80 c0 00       	mov    0xc08060,%eax
  c014b4:	8b 15 58 80 c0 00    	mov    0xc08058,%edx
  c014ba:	c1 e2 02             	shl    $0x2,%edx
  c014bd:	01 d0                	add    %edx,%eax
  c014bf:	8b 00                	mov    (%eax),%eax
  c014c1:	8b 50 04             	mov    0x4(%eax),%edx
  c014c4:	a1 68 80 c0 00       	mov    0xc08068,%eax
  c014c9:	01 c2                	add    %eax,%edx
  c014cb:	a1 6c 80 c0 00       	mov    0xc0806c,%eax
  c014d0:	39 c2                	cmp    %eax,%edx
  c014d2:	76 0d                	jbe    c014e1 <input+0x56>
  c014d4:	a1 6c 80 c0 00       	mov    0xc0806c,%eax
  c014d9:	c6 00 00             	movb   $0x0,(%eax)
  c014dc:	e9 88 00 00 00       	jmp    c01569 <input+0xde>
  c014e1:	a1 6c 80 c0 00       	mov    0xc0806c,%eax
  c014e6:	89 c2                	mov    %eax,%edx
  c014e8:	a1 d8 59 c2 00       	mov    0xc259d8,%eax
  c014ed:	29 c2                	sub    %eax,%edx
  c014ef:	89 d0                	mov    %edx,%eax
  c014f1:	89 45 f4             	mov    %eax,-0xc(%ebp)
  c014f4:	a1 6c 80 c0 00       	mov    0xc0806c,%eax
  c014f9:	83 c0 01             	add    $0x1,%eax
  c014fc:	a3 6c 80 c0 00       	mov    %eax,0xc0806c
  c01501:	e8 be f8 ff ff       	call   c00dc4 <yy_get_next_buffer>
  c01506:	83 f8 01             	cmp    $0x1,%eax
  c01509:	74 1c                	je     c01527 <input+0x9c>
  c0150b:	83 f8 02             	cmp    $0x2,%eax
  c0150e:	74 06                	je     c01516 <input+0x8b>
  c01510:	85 c0                	test   %eax,%eax
  c01512:	74 44                	je     c01558 <input+0xcd>
  c01514:	eb 53                	jmp    c01569 <input+0xde>
  c01516:	a1 44 80 c0 00       	mov    0xc08044,%eax
  c0151b:	83 ec 0c             	sub    $0xc,%esp
  c0151e:	50                   	push   %eax
  c0151f:	e8 8d 00 00 00       	call   c015b1 <yyrestart>
  c01524:	83 c4 10             	add    $0x10,%esp
  c01527:	e8 5f 0a 00 00       	call   c01f8b <yywrap>
  c0152c:	85 c0                	test   %eax,%eax
  c0152e:	74 07                	je     c01537 <input+0xac>
  c01530:	b8 ff ff ff ff       	mov    $0xffffffff,%eax
  c01535:	eb 78                	jmp    c015af <input+0x124>
  c01537:	a1 78 80 c0 00       	mov    0xc08078,%eax
  c0153c:	85 c0                	test   %eax,%eax
  c0153e:	75 11                	jne    c01551 <input+0xc6>
  c01540:	a1 44 80 c0 00       	mov    0xc08044,%eax
  c01545:	83 ec 0c             	sub    $0xc,%esp
  c01548:	50                   	push   %eax
  c01549:	e8 63 00 00 00       	call   c015b1 <yyrestart>
  c0154e:	83 c4 10             	add    $0x10,%esp
  c01551:	e8 35 ff ff ff       	call   c0148b <input>
  c01556:	eb 57                	jmp    c015af <input+0x124>
  c01558:	8b 15 d8 59 c2 00    	mov    0xc259d8,%edx
  c0155e:	8b 45 f4             	mov    -0xc(%ebp),%eax
  c01561:	01 d0                	add    %edx,%eax
  c01563:	a3 6c 80 c0 00       	mov    %eax,0xc0806c
  c01568:	90                   	nop
  c01569:	a1 6c 80 c0 00       	mov    0xc0806c,%eax
  c0156e:	0f b6 00             	movzbl (%eax),%eax
  c01571:	0f b6 c0             	movzbl %al,%eax
  c01574:	89 45 f0             	mov    %eax,-0x10(%ebp)
  c01577:	a1 6c 80 c0 00       	mov    0xc0806c,%eax
  c0157c:	c6 00 00             	movb   $0x0,(%eax)
  c0157f:	a1 6c 80 c0 00       	mov    0xc0806c,%eax
  c01584:	83 c0 01             	add    $0x1,%eax
  c01587:	a3 6c 80 c0 00       	mov    %eax,0xc0806c
  c0158c:	a1 6c 80 c0 00       	mov    0xc0806c,%eax
  c01591:	0f b6 00             	movzbl (%eax),%eax
  c01594:	a2 64 80 c0 00       	mov    %al,0xc08064
  c01599:	83 7d f0 0a          	cmpl   $0xa,-0x10(%ebp)
  c0159d:	75 0d                	jne    c015ac <input+0x121>
  c0159f:	a1 0c 80 c0 00       	mov    0xc0800c,%eax
  c015a4:	83 c0 01             	add    $0x1,%eax
  c015a7:	a3 0c 80 c0 00       	mov    %eax,0xc0800c
  c015ac:	8b 45 f0             	mov    -0x10(%ebp),%eax
  c015af:	c9                   	leave  
  c015b0:	c3                   	ret    

00c015b1 <yyrestart>:
  c015b1:	55                   	push   %ebp
  c015b2:	89 e5                	mov    %esp,%ebp
  c015b4:	53                   	push   %ebx
  c015b5:	83 ec 04             	sub    $0x4,%esp
  c015b8:	a1 60 80 c0 00       	mov    0xc08060,%eax
  c015bd:	85 c0                	test   %eax,%eax
  c015bf:	74 16                	je     c015d7 <yyrestart+0x26>
  c015c1:	a1 60 80 c0 00       	mov    0xc08060,%eax
  c015c6:	8b 15 58 80 c0 00    	mov    0xc08058,%edx
  c015cc:	c1 e2 02             	shl    $0x2,%edx
  c015cf:	01 d0                	add    %edx,%eax
  c015d1:	8b 00                	mov    (%eax),%eax
  c015d3:	85 c0                	test   %eax,%eax
  c015d5:	75 2e                	jne    c01605 <yyrestart+0x54>
  c015d7:	e8 22 05 00 00       	call   c01afe <yyensure_buffer_stack>
  c015dc:	a1 60 80 c0 00       	mov    0xc08060,%eax
  c015e1:	8b 15 58 80 c0 00    	mov    0xc08058,%edx
  c015e7:	c1 e2 02             	shl    $0x2,%edx
  c015ea:	8d 1c 10             	lea    (%eax,%edx,1),%ebx
  c015ed:	a1 44 80 c0 00       	mov    0xc08044,%eax
  c015f2:	83 ec 08             	sub    $0x8,%esp
  c015f5:	68 00 40 00 00       	push   $0x4000
  c015fa:	50                   	push   %eax
  c015fb:	e8 69 01 00 00       	call   c01769 <yy_create_buffer>
  c01600:	83 c4 10             	add    $0x10,%esp
  c01603:	89 03                	mov    %eax,(%ebx)
  c01605:	a1 60 80 c0 00       	mov    0xc08060,%eax
  c0160a:	85 c0                	test   %eax,%eax
  c0160c:	74 14                	je     c01622 <yyrestart+0x71>
  c0160e:	a1 60 80 c0 00       	mov    0xc08060,%eax
  c01613:	8b 15 58 80 c0 00    	mov    0xc08058,%edx
  c01619:	c1 e2 02             	shl    $0x2,%edx
  c0161c:	01 d0                	add    %edx,%eax
  c0161e:	8b 00                	mov    (%eax),%eax
  c01620:	eb 05                	jmp    c01627 <yyrestart+0x76>
  c01622:	b8 00 00 00 00       	mov    $0x0,%eax
  c01627:	83 ec 08             	sub    $0x8,%esp
  c0162a:	ff 75 08             	pushl  0x8(%ebp)
  c0162d:	50                   	push   %eax
  c0162e:	e8 37 02 00 00       	call   c0186a <yy_init_buffer>
  c01633:	83 c4 10             	add    $0x10,%esp
  c01636:	e8 c5 00 00 00       	call   c01700 <yy_load_buffer_state>
  c0163b:	8b 5d fc             	mov    -0x4(%ebp),%ebx
  c0163e:	c9                   	leave  
  c0163f:	c3                   	ret    

00c01640 <yy_switch_to_buffer>:
  c01640:	55                   	push   %ebp
  c01641:	89 e5                	mov    %esp,%ebp
  c01643:	83 ec 08             	sub    $0x8,%esp
  c01646:	e8 b3 04 00 00       	call   c01afe <yyensure_buffer_stack>
  c0164b:	a1 60 80 c0 00       	mov    0xc08060,%eax
  c01650:	85 c0                	test   %eax,%eax
  c01652:	74 14                	je     c01668 <yy_switch_to_buffer+0x28>
  c01654:	a1 60 80 c0 00       	mov    0xc08060,%eax
  c01659:	8b 15 58 80 c0 00    	mov    0xc08058,%edx
  c0165f:	c1 e2 02             	shl    $0x2,%edx
  c01662:	01 d0                	add    %edx,%eax
  c01664:	8b 00                	mov    (%eax),%eax
  c01666:	eb 05                	jmp    c0166d <yy_switch_to_buffer+0x2d>
  c01668:	b8 00 00 00 00       	mov    $0x0,%eax
  c0166d:	3b 45 08             	cmp    0x8(%ebp),%eax
  c01670:	75 05                	jne    c01677 <yy_switch_to_buffer+0x37>
  c01672:	e9 87 00 00 00       	jmp    c016fe <yy_switch_to_buffer+0xbe>
  c01677:	a1 60 80 c0 00       	mov    0xc08060,%eax
  c0167c:	85 c0                	test   %eax,%eax
  c0167e:	74 5a                	je     c016da <yy_switch_to_buffer+0x9a>
  c01680:	a1 60 80 c0 00       	mov    0xc08060,%eax
  c01685:	8b 15 58 80 c0 00    	mov    0xc08058,%edx
  c0168b:	c1 e2 02             	shl    $0x2,%edx
  c0168e:	01 d0                	add    %edx,%eax
  c01690:	8b 00                	mov    (%eax),%eax
  c01692:	85 c0                	test   %eax,%eax
  c01694:	74 44                	je     c016da <yy_switch_to_buffer+0x9a>
  c01696:	a1 6c 80 c0 00       	mov    0xc0806c,%eax
  c0169b:	0f b6 15 64 80 c0 00 	movzbl 0xc08064,%edx
  c016a2:	88 10                	mov    %dl,(%eax)
  c016a4:	a1 60 80 c0 00       	mov    0xc08060,%eax
  c016a9:	8b 15 58 80 c0 00    	mov    0xc08058,%edx
  c016af:	c1 e2 02             	shl    $0x2,%edx
  c016b2:	01 d0                	add    %edx,%eax
  c016b4:	8b 00                	mov    (%eax),%eax
  c016b6:	8b 15 6c 80 c0 00    	mov    0xc0806c,%edx
  c016bc:	89 50 08             	mov    %edx,0x8(%eax)
  c016bf:	a1 60 80 c0 00       	mov    0xc08060,%eax
  c016c4:	8b 15 58 80 c0 00    	mov    0xc08058,%edx
  c016ca:	c1 e2 02             	shl    $0x2,%edx
  c016cd:	01 d0                	add    %edx,%eax
  c016cf:	8b 00                	mov    (%eax),%eax
  c016d1:	8b 15 68 80 c0 00    	mov    0xc08068,%edx
  c016d7:	89 50 10             	mov    %edx,0x10(%eax)
  c016da:	a1 60 80 c0 00       	mov    0xc08060,%eax
  c016df:	8b 15 58 80 c0 00    	mov    0xc08058,%edx
  c016e5:	c1 e2 02             	shl    $0x2,%edx
  c016e8:	01 c2                	add    %eax,%edx
  c016ea:	8b 45 08             	mov    0x8(%ebp),%eax
  c016ed:	89 02                	mov    %eax,(%edx)
  c016ef:	e8 0c 00 00 00       	call   c01700 <yy_load_buffer_state>
  c016f4:	c7 05 78 80 c0 00 01 	movl   $0x1,0xc08078
  c016fb:	00 00 00 
  c016fe:	c9                   	leave  
  c016ff:	c3                   	ret    

00c01700 <yy_load_buffer_state>:
  c01700:	55                   	push   %ebp
  c01701:	89 e5                	mov    %esp,%ebp
  c01703:	a1 60 80 c0 00       	mov    0xc08060,%eax
  c01708:	8b 15 58 80 c0 00    	mov    0xc08058,%edx
  c0170e:	c1 e2 02             	shl    $0x2,%edx
  c01711:	01 d0                	add    %edx,%eax
  c01713:	8b 00                	mov    (%eax),%eax
  c01715:	8b 40 10             	mov    0x10(%eax),%eax
  c01718:	a3 68 80 c0 00       	mov    %eax,0xc08068
  c0171d:	a1 60 80 c0 00       	mov    0xc08060,%eax
  c01722:	8b 15 58 80 c0 00    	mov    0xc08058,%edx
  c01728:	c1 e2 02             	shl    $0x2,%edx
  c0172b:	01 d0                	add    %edx,%eax
  c0172d:	8b 00                	mov    (%eax),%eax
  c0172f:	8b 40 08             	mov    0x8(%eax),%eax
  c01732:	a3 6c 80 c0 00       	mov    %eax,0xc0806c
  c01737:	a1 6c 80 c0 00       	mov    0xc0806c,%eax
  c0173c:	a3 d8 59 c2 00       	mov    %eax,0xc259d8
  c01741:	a1 60 80 c0 00       	mov    0xc08060,%eax
  c01746:	8b 15 58 80 c0 00    	mov    0xc08058,%edx
  c0174c:	c1 e2 02             	shl    $0x2,%edx
  c0174f:	01 d0                	add    %edx,%eax
  c01751:	8b 00                	mov    (%eax),%eax
  c01753:	8b 00                	mov    (%eax),%eax
  c01755:	a3 44 80 c0 00       	mov    %eax,0xc08044
  c0175a:	a1 6c 80 c0 00       	mov    0xc0806c,%eax
  c0175f:	0f b6 00             	movzbl (%eax),%eax
  c01762:	a2 64 80 c0 00       	mov    %al,0xc08064
  c01767:	5d                   	pop    %ebp
  c01768:	c3                   	ret    

00c01769 <yy_create_buffer>:
  c01769:	55                   	push   %ebp
  c0176a:	89 e5                	mov    %esp,%ebp
  c0176c:	83 ec 18             	sub    $0x18,%esp
  c0176f:	83 ec 0c             	sub    $0xc,%esp
  c01772:	6a 30                	push   $0x30
  c01774:	e8 cd 07 00 00       	call   c01f46 <yyalloc>
  c01779:	83 c4 10             	add    $0x10,%esp
  c0177c:	89 45 f4             	mov    %eax,-0xc(%ebp)
  c0177f:	83 7d f4 00          	cmpl   $0x0,-0xc(%ebp)
  c01783:	75 10                	jne    c01795 <yy_create_buffer+0x2c>
  c01785:	83 ec 0c             	sub    $0xc,%esp
  c01788:	68 d4 4c c0 00       	push   $0xc04cd4
  c0178d:	e8 26 06 00 00       	call   c01db8 <yy_fatal_error>
  c01792:	83 c4 10             	add    $0x10,%esp
  c01795:	8b 55 0c             	mov    0xc(%ebp),%edx
  c01798:	8b 45 f4             	mov    -0xc(%ebp),%eax
  c0179b:	89 50 0c             	mov    %edx,0xc(%eax)
  c0179e:	8b 45 f4             	mov    -0xc(%ebp),%eax
  c017a1:	8b 40 0c             	mov    0xc(%eax),%eax
  c017a4:	83 c0 02             	add    $0x2,%eax
  c017a7:	83 ec 0c             	sub    $0xc,%esp
  c017aa:	50                   	push   %eax
  c017ab:	e8 96 07 00 00       	call   c01f46 <yyalloc>
  c017b0:	83 c4 10             	add    $0x10,%esp
  c017b3:	8b 55 f4             	mov    -0xc(%ebp),%edx
  c017b6:	89 42 04             	mov    %eax,0x4(%edx)
  c017b9:	8b 45 f4             	mov    -0xc(%ebp),%eax
  c017bc:	8b 40 04             	mov    0x4(%eax),%eax
  c017bf:	85 c0                	test   %eax,%eax
  c017c1:	75 10                	jne    c017d3 <yy_create_buffer+0x6a>
  c017c3:	83 ec 0c             	sub    $0xc,%esp
  c017c6:	68 d4 4c c0 00       	push   $0xc04cd4
  c017cb:	e8 e8 05 00 00       	call   c01db8 <yy_fatal_error>
  c017d0:	83 c4 10             	add    $0x10,%esp
  c017d3:	8b 45 f4             	mov    -0xc(%ebp),%eax
  c017d6:	c7 40 14 01 00 00 00 	movl   $0x1,0x14(%eax)
  c017dd:	83 ec 08             	sub    $0x8,%esp
  c017e0:	ff 75 08             	pushl  0x8(%ebp)
  c017e3:	ff 75 f4             	pushl  -0xc(%ebp)
  c017e6:	e8 7f 00 00 00       	call   c0186a <yy_init_buffer>
  c017eb:	83 c4 10             	add    $0x10,%esp
  c017ee:	8b 45 f4             	mov    -0xc(%ebp),%eax
  c017f1:	c9                   	leave  
  c017f2:	c3                   	ret    

00c017f3 <yy_delete_buffer>:
  c017f3:	55                   	push   %ebp
  c017f4:	89 e5                	mov    %esp,%ebp
  c017f6:	83 ec 08             	sub    $0x8,%esp
  c017f9:	83 7d 08 00          	cmpl   $0x0,0x8(%ebp)
  c017fd:	75 02                	jne    c01801 <yy_delete_buffer+0xe>
  c017ff:	eb 67                	jmp    c01868 <yy_delete_buffer+0x75>
  c01801:	a1 60 80 c0 00       	mov    0xc08060,%eax
  c01806:	85 c0                	test   %eax,%eax
  c01808:	74 14                	je     c0181e <yy_delete_buffer+0x2b>
  c0180a:	a1 60 80 c0 00       	mov    0xc08060,%eax
  c0180f:	8b 15 58 80 c0 00    	mov    0xc08058,%edx
  c01815:	c1 e2 02             	shl    $0x2,%edx
  c01818:	01 d0                	add    %edx,%eax
  c0181a:	8b 00                	mov    (%eax),%eax
  c0181c:	eb 05                	jmp    c01823 <yy_delete_buffer+0x30>
  c0181e:	b8 00 00 00 00       	mov    $0x0,%eax
  c01823:	3b 45 08             	cmp    0x8(%ebp),%eax
  c01826:	75 16                	jne    c0183e <yy_delete_buffer+0x4b>
  c01828:	a1 60 80 c0 00       	mov    0xc08060,%eax
  c0182d:	8b 15 58 80 c0 00    	mov    0xc08058,%edx
  c01833:	c1 e2 02             	shl    $0x2,%edx
  c01836:	01 d0                	add    %edx,%eax
  c01838:	c7 00 00 00 00 00    	movl   $0x0,(%eax)
  c0183e:	8b 45 08             	mov    0x8(%ebp),%eax
  c01841:	8b 40 14             	mov    0x14(%eax),%eax
  c01844:	85 c0                	test   %eax,%eax
  c01846:	74 12                	je     c0185a <yy_delete_buffer+0x67>
  c01848:	8b 45 08             	mov    0x8(%ebp),%eax
  c0184b:	8b 40 04             	mov    0x4(%eax),%eax
  c0184e:	83 ec 0c             	sub    $0xc,%esp
  c01851:	50                   	push   %eax
  c01852:	e8 1e 07 00 00       	call   c01f75 <yyfree>
  c01857:	83 c4 10             	add    $0x10,%esp
  c0185a:	83 ec 0c             	sub    $0xc,%esp
  c0185d:	ff 75 08             	pushl  0x8(%ebp)
  c01860:	e8 10 07 00 00       	call   c01f75 <yyfree>
  c01865:	83 c4 10             	add    $0x10,%esp
  c01868:	c9                   	leave  
  c01869:	c3                   	ret    

00c0186a <yy_init_buffer>:
  c0186a:	55                   	push   %ebp
  c0186b:	89 e5                	mov    %esp,%ebp
  c0186d:	83 ec 18             	sub    $0x18,%esp
  c01870:	a1 d4 59 c2 00       	mov    0xc259d4,%eax
  c01875:	89 45 f4             	mov    %eax,-0xc(%ebp)
  c01878:	83 ec 0c             	sub    $0xc,%esp
  c0187b:	ff 75 08             	pushl  0x8(%ebp)
  c0187e:	e8 84 00 00 00       	call   c01907 <yy_flush_buffer>
  c01883:	83 c4 10             	add    $0x10,%esp
  c01886:	8b 45 08             	mov    0x8(%ebp),%eax
  c01889:	8b 55 0c             	mov    0xc(%ebp),%edx
  c0188c:	89 10                	mov    %edx,(%eax)
  c0188e:	8b 45 08             	mov    0x8(%ebp),%eax
  c01891:	c7 40 28 01 00 00 00 	movl   $0x1,0x28(%eax)
  c01898:	a1 60 80 c0 00       	mov    0xc08060,%eax
  c0189d:	85 c0                	test   %eax,%eax
  c0189f:	74 14                	je     c018b5 <yy_init_buffer+0x4b>
  c018a1:	a1 60 80 c0 00       	mov    0xc08060,%eax
  c018a6:	8b 15 58 80 c0 00    	mov    0xc08058,%edx
  c018ac:	c1 e2 02             	shl    $0x2,%edx
  c018af:	01 d0                	add    %edx,%eax
  c018b1:	8b 00                	mov    (%eax),%eax
  c018b3:	eb 05                	jmp    c018ba <yy_init_buffer+0x50>
  c018b5:	b8 00 00 00 00       	mov    $0x0,%eax
  c018ba:	3b 45 08             	cmp    0x8(%ebp),%eax
  c018bd:	74 14                	je     c018d3 <yy_init_buffer+0x69>
  c018bf:	8b 45 08             	mov    0x8(%ebp),%eax
  c018c2:	c7 40 20 01 00 00 00 	movl   $0x1,0x20(%eax)
  c018c9:	8b 45 08             	mov    0x8(%ebp),%eax
  c018cc:	c7 40 24 00 00 00 00 	movl   $0x0,0x24(%eax)
  c018d3:	83 7d 0c 00          	cmpl   $0x0,0xc(%ebp)
  c018d7:	74 19                	je     c018f2 <yy_init_buffer+0x88>
  c018d9:	83 ec 0c             	sub    $0xc,%esp
  c018dc:	ff 75 0c             	pushl  0xc(%ebp)
  c018df:	e8 9b ef ff ff       	call   c0087f <fileno>
  c018e4:	83 c4 10             	add    $0x10,%esp
  c018e7:	85 c0                	test   %eax,%eax
  c018e9:	7e 07                	jle    c018f2 <yy_init_buffer+0x88>
  c018eb:	b8 01 00 00 00       	mov    $0x1,%eax
  c018f0:	eb 05                	jmp    c018f7 <yy_init_buffer+0x8d>
  c018f2:	b8 00 00 00 00       	mov    $0x0,%eax
  c018f7:	8b 55 08             	mov    0x8(%ebp),%edx
  c018fa:	89 42 18             	mov    %eax,0x18(%edx)
  c018fd:	8b 45 f4             	mov    -0xc(%ebp),%eax
  c01900:	a3 d4 59 c2 00       	mov    %eax,0xc259d4
  c01905:	c9                   	leave  
  c01906:	c3                   	ret    

00c01907 <yy_flush_buffer>:
  c01907:	55                   	push   %ebp
  c01908:	89 e5                	mov    %esp,%ebp
  c0190a:	83 7d 08 00          	cmpl   $0x0,0x8(%ebp)
  c0190e:	75 02                	jne    c01912 <yy_flush_buffer+0xb>
  c01910:	eb 6b                	jmp    c0197d <yy_flush_buffer+0x76>
  c01912:	8b 45 08             	mov    0x8(%ebp),%eax
  c01915:	c7 40 10 00 00 00 00 	movl   $0x0,0x10(%eax)
  c0191c:	8b 45 08             	mov    0x8(%ebp),%eax
  c0191f:	8b 40 04             	mov    0x4(%eax),%eax
  c01922:	c6 00 00             	movb   $0x0,(%eax)
  c01925:	8b 45 08             	mov    0x8(%ebp),%eax
  c01928:	8b 40 04             	mov    0x4(%eax),%eax
  c0192b:	83 c0 01             	add    $0x1,%eax
  c0192e:	c6 00 00             	movb   $0x0,(%eax)
  c01931:	8b 45 08             	mov    0x8(%ebp),%eax
  c01934:	8b 50 04             	mov    0x4(%eax),%edx
  c01937:	8b 45 08             	mov    0x8(%ebp),%eax
  c0193a:	89 50 08             	mov    %edx,0x8(%eax)
  c0193d:	8b 45 08             	mov    0x8(%ebp),%eax
  c01940:	c7 40 1c 01 00 00 00 	movl   $0x1,0x1c(%eax)
  c01947:	8b 45 08             	mov    0x8(%ebp),%eax
  c0194a:	c7 40 2c 00 00 00 00 	movl   $0x0,0x2c(%eax)
  c01951:	a1 60 80 c0 00       	mov    0xc08060,%eax
  c01956:	85 c0                	test   %eax,%eax
  c01958:	74 14                	je     c0196e <yy_flush_buffer+0x67>
  c0195a:	a1 60 80 c0 00       	mov    0xc08060,%eax
  c0195f:	8b 15 58 80 c0 00    	mov    0xc08058,%edx
  c01965:	c1 e2 02             	shl    $0x2,%edx
  c01968:	01 d0                	add    %edx,%eax
  c0196a:	8b 00                	mov    (%eax),%eax
  c0196c:	eb 05                	jmp    c01973 <yy_flush_buffer+0x6c>
  c0196e:	b8 00 00 00 00       	mov    $0x0,%eax
  c01973:	3b 45 08             	cmp    0x8(%ebp),%eax
  c01976:	75 05                	jne    c0197d <yy_flush_buffer+0x76>
  c01978:	e8 83 fd ff ff       	call   c01700 <yy_load_buffer_state>
  c0197d:	5d                   	pop    %ebp
  c0197e:	c3                   	ret    

00c0197f <yypush_buffer_state>:
  c0197f:	55                   	push   %ebp
  c01980:	89 e5                	mov    %esp,%ebp
  c01982:	83 ec 08             	sub    $0x8,%esp
  c01985:	83 7d 08 00          	cmpl   $0x0,0x8(%ebp)
  c01989:	75 05                	jne    c01990 <yypush_buffer_state+0x11>
  c0198b:	e9 b8 00 00 00       	jmp    c01a48 <yypush_buffer_state+0xc9>
  c01990:	e8 69 01 00 00       	call   c01afe <yyensure_buffer_stack>
  c01995:	a1 60 80 c0 00       	mov    0xc08060,%eax
  c0199a:	85 c0                	test   %eax,%eax
  c0199c:	74 5a                	je     c019f8 <yypush_buffer_state+0x79>
  c0199e:	a1 60 80 c0 00       	mov    0xc08060,%eax
  c019a3:	8b 15 58 80 c0 00    	mov    0xc08058,%edx
  c019a9:	c1 e2 02             	shl    $0x2,%edx
  c019ac:	01 d0                	add    %edx,%eax
  c019ae:	8b 00                	mov    (%eax),%eax
  c019b0:	85 c0                	test   %eax,%eax
  c019b2:	74 44                	je     c019f8 <yypush_buffer_state+0x79>
  c019b4:	a1 6c 80 c0 00       	mov    0xc0806c,%eax
  c019b9:	0f b6 15 64 80 c0 00 	movzbl 0xc08064,%edx
  c019c0:	88 10                	mov    %dl,(%eax)
  c019c2:	a1 60 80 c0 00       	mov    0xc08060,%eax
  c019c7:	8b 15 58 80 c0 00    	mov    0xc08058,%edx
  c019cd:	c1 e2 02             	shl    $0x2,%edx
  c019d0:	01 d0                	add    %edx,%eax
  c019d2:	8b 00                	mov    (%eax),%eax
  c019d4:	8b 15 6c 80 c0 00    	mov    0xc0806c,%edx
  c019da:	89 50 08             	mov    %edx,0x8(%eax)
  c019dd:	a1 60 80 c0 00       	mov    0xc08060,%eax
  c019e2:	8b 15 58 80 c0 00    	mov    0xc08058,%edx
  c019e8:	c1 e2 02             	shl    $0x2,%edx
  c019eb:	01 d0                	add    %edx,%eax
  c019ed:	8b 00                	mov    (%eax),%eax
  c019ef:	8b 15 68 80 c0 00    	mov    0xc08068,%edx
  c019f5:	89 50 10             	mov    %edx,0x10(%eax)
  c019f8:	a1 60 80 c0 00       	mov    0xc08060,%eax
  c019fd:	85 c0                	test   %eax,%eax
  c019ff:	74 23                	je     c01a24 <yypush_buffer_state+0xa5>
  c01a01:	a1 60 80 c0 00       	mov    0xc08060,%eax
  c01a06:	8b 15 58 80 c0 00    	mov    0xc08058,%edx
  c01a0c:	c1 e2 02             	shl    $0x2,%edx
  c01a0f:	01 d0                	add    %edx,%eax
  c01a11:	8b 00                	mov    (%eax),%eax
  c01a13:	85 c0                	test   %eax,%eax
  c01a15:	74 0d                	je     c01a24 <yypush_buffer_state+0xa5>
  c01a17:	a1 58 80 c0 00       	mov    0xc08058,%eax
  c01a1c:	83 c0 01             	add    $0x1,%eax
  c01a1f:	a3 58 80 c0 00       	mov    %eax,0xc08058
  c01a24:	a1 60 80 c0 00       	mov    0xc08060,%eax
  c01a29:	8b 15 58 80 c0 00    	mov    0xc08058,%edx
  c01a2f:	c1 e2 02             	shl    $0x2,%edx
  c01a32:	01 c2                	add    %eax,%edx
  c01a34:	8b 45 08             	mov    0x8(%ebp),%eax
  c01a37:	89 02                	mov    %eax,(%edx)
  c01a39:	e8 c2 fc ff ff       	call   c01700 <yy_load_buffer_state>
  c01a3e:	c7 05 78 80 c0 00 01 	movl   $0x1,0xc08078
  c01a45:	00 00 00 
  c01a48:	c9                   	leave  
  c01a49:	c3                   	ret    

00c01a4a <yypop_buffer_state>:
  c01a4a:	55                   	push   %ebp
  c01a4b:	89 e5                	mov    %esp,%ebp
  c01a4d:	83 ec 08             	sub    $0x8,%esp
  c01a50:	a1 60 80 c0 00       	mov    0xc08060,%eax
  c01a55:	85 c0                	test   %eax,%eax
  c01a57:	74 16                	je     c01a6f <yypop_buffer_state+0x25>
  c01a59:	a1 60 80 c0 00       	mov    0xc08060,%eax
  c01a5e:	8b 15 58 80 c0 00    	mov    0xc08058,%edx
  c01a64:	c1 e2 02             	shl    $0x2,%edx
  c01a67:	01 d0                	add    %edx,%eax
  c01a69:	8b 00                	mov    (%eax),%eax
  c01a6b:	85 c0                	test   %eax,%eax
  c01a6d:	75 05                	jne    c01a74 <yypop_buffer_state+0x2a>
  c01a6f:	e9 88 00 00 00       	jmp    c01afc <yypop_buffer_state+0xb2>
  c01a74:	a1 60 80 c0 00       	mov    0xc08060,%eax
  c01a79:	85 c0                	test   %eax,%eax
  c01a7b:	74 14                	je     c01a91 <yypop_buffer_state+0x47>
  c01a7d:	a1 60 80 c0 00       	mov    0xc08060,%eax
  c01a82:	8b 15 58 80 c0 00    	mov    0xc08058,%edx
  c01a88:	c1 e2 02             	shl    $0x2,%edx
  c01a8b:	01 d0                	add    %edx,%eax
  c01a8d:	8b 00                	mov    (%eax),%eax
  c01a8f:	eb 05                	jmp    c01a96 <yypop_buffer_state+0x4c>
  c01a91:	b8 00 00 00 00       	mov    $0x0,%eax
  c01a96:	83 ec 0c             	sub    $0xc,%esp
  c01a99:	50                   	push   %eax
  c01a9a:	e8 54 fd ff ff       	call   c017f3 <yy_delete_buffer>
  c01a9f:	83 c4 10             	add    $0x10,%esp
  c01aa2:	a1 60 80 c0 00       	mov    0xc08060,%eax
  c01aa7:	8b 15 58 80 c0 00    	mov    0xc08058,%edx
  c01aad:	c1 e2 02             	shl    $0x2,%edx
  c01ab0:	01 d0                	add    %edx,%eax
  c01ab2:	c7 00 00 00 00 00    	movl   $0x0,(%eax)
  c01ab8:	a1 58 80 c0 00       	mov    0xc08058,%eax
  c01abd:	85 c0                	test   %eax,%eax
  c01abf:	74 0d                	je     c01ace <yypop_buffer_state+0x84>
  c01ac1:	a1 58 80 c0 00       	mov    0xc08058,%eax
  c01ac6:	83 e8 01             	sub    $0x1,%eax
  c01ac9:	a3 58 80 c0 00       	mov    %eax,0xc08058
  c01ace:	a1 60 80 c0 00       	mov    0xc08060,%eax
  c01ad3:	85 c0                	test   %eax,%eax
  c01ad5:	74 25                	je     c01afc <yypop_buffer_state+0xb2>
  c01ad7:	a1 60 80 c0 00       	mov    0xc08060,%eax
  c01adc:	8b 15 58 80 c0 00    	mov    0xc08058,%edx
  c01ae2:	c1 e2 02             	shl    $0x2,%edx
  c01ae5:	01 d0                	add    %edx,%eax
  c01ae7:	8b 00                	mov    (%eax),%eax
  c01ae9:	85 c0                	test   %eax,%eax
  c01aeb:	74 0f                	je     c01afc <yypop_buffer_state+0xb2>
  c01aed:	e8 0e fc ff ff       	call   c01700 <yy_load_buffer_state>
  c01af2:	c7 05 78 80 c0 00 01 	movl   $0x1,0xc08078
  c01af9:	00 00 00 
  c01afc:	c9                   	leave  
  c01afd:	c3                   	ret    

00c01afe <yyensure_buffer_stack>:
  c01afe:	55                   	push   %ebp
  c01aff:	89 e5                	mov    %esp,%ebp
  c01b01:	83 ec 18             	sub    $0x18,%esp
  c01b04:	a1 60 80 c0 00       	mov    0xc08060,%eax
  c01b09:	85 c0                	test   %eax,%eax
  c01b0b:	75 6a                	jne    c01b77 <yyensure_buffer_stack+0x79>
  c01b0d:	c7 45 f4 01 00 00 00 	movl   $0x1,-0xc(%ebp)
  c01b14:	8b 45 f4             	mov    -0xc(%ebp),%eax
  c01b17:	c1 e0 02             	shl    $0x2,%eax
  c01b1a:	83 ec 0c             	sub    $0xc,%esp
  c01b1d:	50                   	push   %eax
  c01b1e:	e8 23 04 00 00       	call   c01f46 <yyalloc>
  c01b23:	83 c4 10             	add    $0x10,%esp
  c01b26:	a3 60 80 c0 00       	mov    %eax,0xc08060
  c01b2b:	a1 60 80 c0 00       	mov    0xc08060,%eax
  c01b30:	85 c0                	test   %eax,%eax
  c01b32:	75 10                	jne    c01b44 <yyensure_buffer_stack+0x46>
  c01b34:	83 ec 0c             	sub    $0xc,%esp
  c01b37:	68 00 4d c0 00       	push   $0xc04d00
  c01b3c:	e8 77 02 00 00       	call   c01db8 <yy_fatal_error>
  c01b41:	83 c4 10             	add    $0x10,%esp
  c01b44:	8b 45 f4             	mov    -0xc(%ebp),%eax
  c01b47:	c1 e0 02             	shl    $0x2,%eax
  c01b4a:	89 c2                	mov    %eax,%edx
  c01b4c:	a1 60 80 c0 00       	mov    0xc08060,%eax
  c01b51:	83 ec 04             	sub    $0x4,%esp
  c01b54:	52                   	push   %edx
  c01b55:	6a 00                	push   $0x0
  c01b57:	50                   	push   %eax
  c01b58:	e8 fd ec ff ff       	call   c0085a <memset>
  c01b5d:	83 c4 10             	add    $0x10,%esp
  c01b60:	8b 45 f4             	mov    -0xc(%ebp),%eax
  c01b63:	a3 5c 80 c0 00       	mov    %eax,0xc0805c
  c01b68:	c7 05 58 80 c0 00 00 	movl   $0x0,0xc08058
  c01b6f:	00 00 00 
  c01b72:	e9 8e 00 00 00       	jmp    c01c05 <yyensure_buffer_stack+0x107>
  c01b77:	a1 5c 80 c0 00       	mov    0xc0805c,%eax
  c01b7c:	8d 50 ff             	lea    -0x1(%eax),%edx
  c01b7f:	a1 58 80 c0 00       	mov    0xc08058,%eax
  c01b84:	39 c2                	cmp    %eax,%edx
  c01b86:	77 7d                	ja     c01c05 <yyensure_buffer_stack+0x107>
  c01b88:	c7 45 f0 08 00 00 00 	movl   $0x8,-0x10(%ebp)
  c01b8f:	8b 15 5c 80 c0 00    	mov    0xc0805c,%edx
  c01b95:	8b 45 f0             	mov    -0x10(%ebp),%eax
  c01b98:	01 d0                	add    %edx,%eax
  c01b9a:	89 45 f4             	mov    %eax,-0xc(%ebp)
  c01b9d:	8b 45 f4             	mov    -0xc(%ebp),%eax
  c01ba0:	8d 14 85 00 00 00 00 	lea    0x0(,%eax,4),%edx
  c01ba7:	a1 60 80 c0 00       	mov    0xc08060,%eax
  c01bac:	83 ec 08             	sub    $0x8,%esp
  c01baf:	52                   	push   %edx
  c01bb0:	50                   	push   %eax
  c01bb1:	e8 a6 03 00 00       	call   c01f5c <yyrealloc>
  c01bb6:	83 c4 10             	add    $0x10,%esp
  c01bb9:	a3 60 80 c0 00       	mov    %eax,0xc08060
  c01bbe:	a1 60 80 c0 00       	mov    0xc08060,%eax
  c01bc3:	85 c0                	test   %eax,%eax
  c01bc5:	75 10                	jne    c01bd7 <yyensure_buffer_stack+0xd9>
  c01bc7:	83 ec 0c             	sub    $0xc,%esp
  c01bca:	68 00 4d c0 00       	push   $0xc04d00
  c01bcf:	e8 e4 01 00 00       	call   c01db8 <yy_fatal_error>
  c01bd4:	83 c4 10             	add    $0x10,%esp
  c01bd7:	8b 45 f0             	mov    -0x10(%ebp),%eax
  c01bda:	c1 e0 02             	shl    $0x2,%eax
  c01bdd:	8b 15 60 80 c0 00    	mov    0xc08060,%edx
  c01be3:	8b 0d 5c 80 c0 00    	mov    0xc0805c,%ecx
  c01be9:	c1 e1 02             	shl    $0x2,%ecx
  c01bec:	01 ca                	add    %ecx,%edx
  c01bee:	83 ec 04             	sub    $0x4,%esp
  c01bf1:	50                   	push   %eax
  c01bf2:	6a 00                	push   $0x0
  c01bf4:	52                   	push   %edx
  c01bf5:	e8 60 ec ff ff       	call   c0085a <memset>
  c01bfa:	83 c4 10             	add    $0x10,%esp
  c01bfd:	8b 45 f4             	mov    -0xc(%ebp),%eax
  c01c00:	a3 5c 80 c0 00       	mov    %eax,0xc0805c
  c01c05:	c9                   	leave  
  c01c06:	c3                   	ret    

00c01c07 <yy_scan_buffer>:
  c01c07:	55                   	push   %ebp
  c01c08:	89 e5                	mov    %esp,%ebp
  c01c0a:	83 ec 18             	sub    $0x18,%esp
  c01c0d:	83 7d 0c 01          	cmpl   $0x1,0xc(%ebp)
  c01c11:	76 24                	jbe    c01c37 <yy_scan_buffer+0x30>
  c01c13:	8b 45 0c             	mov    0xc(%ebp),%eax
  c01c16:	8d 50 fe             	lea    -0x2(%eax),%edx
  c01c19:	8b 45 08             	mov    0x8(%ebp),%eax
  c01c1c:	01 d0                	add    %edx,%eax
  c01c1e:	0f b6 00             	movzbl (%eax),%eax
  c01c21:	84 c0                	test   %al,%al
  c01c23:	75 12                	jne    c01c37 <yy_scan_buffer+0x30>
  c01c25:	8b 45 0c             	mov    0xc(%ebp),%eax
  c01c28:	8d 50 ff             	lea    -0x1(%eax),%edx
  c01c2b:	8b 45 08             	mov    0x8(%ebp),%eax
  c01c2e:	01 d0                	add    %edx,%eax
  c01c30:	0f b6 00             	movzbl (%eax),%eax
  c01c33:	84 c0                	test   %al,%al
  c01c35:	74 0a                	je     c01c41 <yy_scan_buffer+0x3a>
  c01c37:	b8 00 00 00 00       	mov    $0x0,%eax
  c01c3c:	e9 9f 00 00 00       	jmp    c01ce0 <yy_scan_buffer+0xd9>
  c01c41:	83 ec 0c             	sub    $0xc,%esp
  c01c44:	6a 30                	push   $0x30
  c01c46:	e8 fb 02 00 00       	call   c01f46 <yyalloc>
  c01c4b:	83 c4 10             	add    $0x10,%esp
  c01c4e:	89 45 f4             	mov    %eax,-0xc(%ebp)
  c01c51:	83 7d f4 00          	cmpl   $0x0,-0xc(%ebp)
  c01c55:	75 10                	jne    c01c67 <yy_scan_buffer+0x60>
  c01c57:	83 ec 0c             	sub    $0xc,%esp
  c01c5a:	68 34 4d c0 00       	push   $0xc04d34
  c01c5f:	e8 54 01 00 00       	call   c01db8 <yy_fatal_error>
  c01c64:	83 c4 10             	add    $0x10,%esp
  c01c67:	8b 45 0c             	mov    0xc(%ebp),%eax
  c01c6a:	8d 50 fe             	lea    -0x2(%eax),%edx
  c01c6d:	8b 45 f4             	mov    -0xc(%ebp),%eax
  c01c70:	89 50 0c             	mov    %edx,0xc(%eax)
  c01c73:	8b 45 f4             	mov    -0xc(%ebp),%eax
  c01c76:	8b 55 08             	mov    0x8(%ebp),%edx
  c01c79:	89 50 04             	mov    %edx,0x4(%eax)
  c01c7c:	8b 45 f4             	mov    -0xc(%ebp),%eax
  c01c7f:	8b 50 04             	mov    0x4(%eax),%edx
  c01c82:	8b 45 f4             	mov    -0xc(%ebp),%eax
  c01c85:	89 50 08             	mov    %edx,0x8(%eax)
  c01c88:	8b 45 f4             	mov    -0xc(%ebp),%eax
  c01c8b:	c7 40 14 00 00 00 00 	movl   $0x0,0x14(%eax)
  c01c92:	8b 45 f4             	mov    -0xc(%ebp),%eax
  c01c95:	c7 00 00 00 00 00    	movl   $0x0,(%eax)
  c01c9b:	8b 45 f4             	mov    -0xc(%ebp),%eax
  c01c9e:	8b 50 0c             	mov    0xc(%eax),%edx
  c01ca1:	8b 45 f4             	mov    -0xc(%ebp),%eax
  c01ca4:	89 50 10             	mov    %edx,0x10(%eax)
  c01ca7:	8b 45 f4             	mov    -0xc(%ebp),%eax
  c01caa:	c7 40 18 00 00 00 00 	movl   $0x0,0x18(%eax)
  c01cb1:	8b 45 f4             	mov    -0xc(%ebp),%eax
  c01cb4:	c7 40 1c 01 00 00 00 	movl   $0x1,0x1c(%eax)
  c01cbb:	8b 45 f4             	mov    -0xc(%ebp),%eax
  c01cbe:	c7 40 28 00 00 00 00 	movl   $0x0,0x28(%eax)
  c01cc5:	8b 45 f4             	mov    -0xc(%ebp),%eax
  c01cc8:	c7 40 2c 00 00 00 00 	movl   $0x0,0x2c(%eax)
  c01ccf:	83 ec 0c             	sub    $0xc,%esp
  c01cd2:	ff 75 f4             	pushl  -0xc(%ebp)
  c01cd5:	e8 66 f9 ff ff       	call   c01640 <yy_switch_to_buffer>
  c01cda:	83 c4 10             	add    $0x10,%esp
  c01cdd:	8b 45 f4             	mov    -0xc(%ebp),%eax
  c01ce0:	c9                   	leave  
  c01ce1:	c3                   	ret    

00c01ce2 <yy_scan_string>:
  c01ce2:	55                   	push   %ebp
  c01ce3:	89 e5                	mov    %esp,%ebp
  c01ce5:	83 ec 08             	sub    $0x8,%esp
  c01ce8:	ff 75 08             	pushl  0x8(%ebp)
  c01ceb:	e8 2c eb ff ff       	call   c0081c <strlen>
  c01cf0:	83 c4 04             	add    $0x4,%esp
  c01cf3:	83 ec 08             	sub    $0x8,%esp
  c01cf6:	50                   	push   %eax
  c01cf7:	ff 75 08             	pushl  0x8(%ebp)
  c01cfa:	e8 05 00 00 00       	call   c01d04 <yy_scan_bytes>
  c01cff:	83 c4 10             	add    $0x10,%esp
  c01d02:	c9                   	leave  
  c01d03:	c3                   	ret    

00c01d04 <yy_scan_bytes>:
  c01d04:	55                   	push   %ebp
  c01d05:	89 e5                	mov    %esp,%ebp
  c01d07:	83 ec 18             	sub    $0x18,%esp
  c01d0a:	8b 45 0c             	mov    0xc(%ebp),%eax
  c01d0d:	83 c0 02             	add    $0x2,%eax
  c01d10:	89 45 f0             	mov    %eax,-0x10(%ebp)
  c01d13:	83 ec 0c             	sub    $0xc,%esp
  c01d16:	ff 75 f0             	pushl  -0x10(%ebp)
  c01d19:	e8 28 02 00 00       	call   c01f46 <yyalloc>
  c01d1e:	83 c4 10             	add    $0x10,%esp
  c01d21:	89 45 ec             	mov    %eax,-0x14(%ebp)
  c01d24:	83 7d ec 00          	cmpl   $0x0,-0x14(%ebp)
  c01d28:	75 10                	jne    c01d3a <yy_scan_bytes+0x36>
  c01d2a:	83 ec 0c             	sub    $0xc,%esp
  c01d2d:	68 60 4d c0 00       	push   $0xc04d60
  c01d32:	e8 81 00 00 00       	call   c01db8 <yy_fatal_error>
  c01d37:	83 c4 10             	add    $0x10,%esp
  c01d3a:	c7 45 f4 00 00 00 00 	movl   $0x0,-0xc(%ebp)
  c01d41:	eb 19                	jmp    c01d5c <yy_scan_bytes+0x58>
  c01d43:	8b 55 ec             	mov    -0x14(%ebp),%edx
  c01d46:	8b 45 f4             	mov    -0xc(%ebp),%eax
  c01d49:	01 c2                	add    %eax,%edx
  c01d4b:	8b 4d 08             	mov    0x8(%ebp),%ecx
  c01d4e:	8b 45 f4             	mov    -0xc(%ebp),%eax
  c01d51:	01 c8                	add    %ecx,%eax
  c01d53:	0f b6 00             	movzbl (%eax),%eax
  c01d56:	88 02                	mov    %al,(%edx)
  c01d58:	83 45 f4 01          	addl   $0x1,-0xc(%ebp)
  c01d5c:	8b 45 f4             	mov    -0xc(%ebp),%eax
  c01d5f:	3b 45 0c             	cmp    0xc(%ebp),%eax
  c01d62:	72 df                	jb     c01d43 <yy_scan_bytes+0x3f>
  c01d64:	8b 55 ec             	mov    -0x14(%ebp),%edx
  c01d67:	8b 45 0c             	mov    0xc(%ebp),%eax
  c01d6a:	01 c2                	add    %eax,%edx
  c01d6c:	8b 45 0c             	mov    0xc(%ebp),%eax
  c01d6f:	8d 48 01             	lea    0x1(%eax),%ecx
  c01d72:	8b 45 ec             	mov    -0x14(%ebp),%eax
  c01d75:	01 c8                	add    %ecx,%eax
  c01d77:	c6 00 00             	movb   $0x0,(%eax)
  c01d7a:	0f b6 00             	movzbl (%eax),%eax
  c01d7d:	88 02                	mov    %al,(%edx)
  c01d7f:	83 ec 08             	sub    $0x8,%esp
  c01d82:	ff 75 f0             	pushl  -0x10(%ebp)
  c01d85:	ff 75 ec             	pushl  -0x14(%ebp)
  c01d88:	e8 7a fe ff ff       	call   c01c07 <yy_scan_buffer>
  c01d8d:	83 c4 10             	add    $0x10,%esp
  c01d90:	89 45 e8             	mov    %eax,-0x18(%ebp)
  c01d93:	83 7d e8 00          	cmpl   $0x0,-0x18(%ebp)
  c01d97:	75 10                	jne    c01da9 <yy_scan_bytes+0xa5>
  c01d99:	83 ec 0c             	sub    $0xc,%esp
  c01d9c:	68 89 4d c0 00       	push   $0xc04d89
  c01da1:	e8 12 00 00 00       	call   c01db8 <yy_fatal_error>
  c01da6:	83 c4 10             	add    $0x10,%esp
  c01da9:	8b 45 e8             	mov    -0x18(%ebp),%eax
  c01dac:	c7 40 14 01 00 00 00 	movl   $0x1,0x14(%eax)
  c01db3:	8b 45 e8             	mov    -0x18(%ebp),%eax
  c01db6:	c9                   	leave  
  c01db7:	c3                   	ret    

00c01db8 <yy_fatal_error>:
  c01db8:	55                   	push   %ebp
  c01db9:	89 e5                	mov    %esp,%ebp
  c01dbb:	83 ec 08             	sub    $0x8,%esp
  c01dbe:	83 ec 08             	sub    $0x8,%esp
  c01dc1:	ff 75 08             	pushl  0x8(%ebp)
  c01dc4:	68 a7 4d c0 00       	push   $0xc04da7
  c01dc9:	e8 a2 1c 00 00       	call   c03a70 <printf>
  c01dce:	83 c4 10             	add    $0x10,%esp
  c01dd1:	83 ec 0c             	sub    $0xc,%esp
  c01dd4:	6a 02                	push   $0x2
  c01dd6:	e8 66 15 00 00       	call   c03341 <exit>

00c01ddb <yyget_lineno>:
  c01ddb:	55                   	push   %ebp
  c01ddc:	89 e5                	mov    %esp,%ebp
  c01dde:	a1 0c 80 c0 00       	mov    0xc0800c,%eax
  c01de3:	5d                   	pop    %ebp
  c01de4:	c3                   	ret    

00c01de5 <yyget_in>:
  c01de5:	55                   	push   %ebp
  c01de6:	89 e5                	mov    %esp,%ebp
  c01de8:	a1 44 80 c0 00       	mov    0xc08044,%eax
  c01ded:	5d                   	pop    %ebp
  c01dee:	c3                   	ret    

00c01def <yyget_out>:
  c01def:	55                   	push   %ebp
  c01df0:	89 e5                	mov    %esp,%ebp
  c01df2:	a1 48 80 c0 00       	mov    0xc08048,%eax
  c01df7:	5d                   	pop    %ebp
  c01df8:	c3                   	ret    

00c01df9 <yyget_leng>:
  c01df9:	55                   	push   %ebp
  c01dfa:	89 e5                	mov    %esp,%ebp
  c01dfc:	a1 dc 59 c2 00       	mov    0xc259dc,%eax
  c01e01:	5d                   	pop    %ebp
  c01e02:	c3                   	ret    

00c01e03 <yyget_text>:
  c01e03:	55                   	push   %ebp
  c01e04:	89 e5                	mov    %esp,%ebp
  c01e06:	a1 d8 59 c2 00       	mov    0xc259d8,%eax
  c01e0b:	5d                   	pop    %ebp
  c01e0c:	c3                   	ret    

00c01e0d <yyset_lineno>:
  c01e0d:	55                   	push   %ebp
  c01e0e:	89 e5                	mov    %esp,%ebp
  c01e10:	8b 45 08             	mov    0x8(%ebp),%eax
  c01e13:	a3 0c 80 c0 00       	mov    %eax,0xc0800c
  c01e18:	5d                   	pop    %ebp
  c01e19:	c3                   	ret    

00c01e1a <yyset_in>:
  c01e1a:	55                   	push   %ebp
  c01e1b:	89 e5                	mov    %esp,%ebp
  c01e1d:	8b 45 08             	mov    0x8(%ebp),%eax
  c01e20:	a3 44 80 c0 00       	mov    %eax,0xc08044
  c01e25:	5d                   	pop    %ebp
  c01e26:	c3                   	ret    

00c01e27 <yyset_out>:
  c01e27:	55                   	push   %ebp
  c01e28:	89 e5                	mov    %esp,%ebp
  c01e2a:	8b 45 08             	mov    0x8(%ebp),%eax
  c01e2d:	a3 48 80 c0 00       	mov    %eax,0xc08048
  c01e32:	5d                   	pop    %ebp
  c01e33:	c3                   	ret    

00c01e34 <yyget_debug>:
  c01e34:	55                   	push   %ebp
  c01e35:	89 e5                	mov    %esp,%ebp
  c01e37:	a1 4c 80 c0 00       	mov    0xc0804c,%eax
  c01e3c:	5d                   	pop    %ebp
  c01e3d:	c3                   	ret    

00c01e3e <yyset_debug>:
  c01e3e:	55                   	push   %ebp
  c01e3f:	89 e5                	mov    %esp,%ebp
  c01e41:	8b 45 08             	mov    0x8(%ebp),%eax
  c01e44:	a3 4c 80 c0 00       	mov    %eax,0xc0804c
  c01e49:	5d                   	pop    %ebp
  c01e4a:	c3                   	ret    

00c01e4b <yy_init_globals>:
  c01e4b:	55                   	push   %ebp
  c01e4c:	89 e5                	mov    %esp,%ebp
  c01e4e:	c7 05 0c 80 c0 00 01 	movl   $0x1,0xc0800c
  c01e55:	00 00 00 
  c01e58:	c7 05 60 80 c0 00 00 	movl   $0x0,0xc08060
  c01e5f:	00 00 00 
  c01e62:	c7 05 58 80 c0 00 00 	movl   $0x0,0xc08058
  c01e69:	00 00 00 
  c01e6c:	c7 05 5c 80 c0 00 00 	movl   $0x0,0xc0805c
  c01e73:	00 00 00 
  c01e76:	c7 05 6c 80 c0 00 00 	movl   $0x0,0xc0806c
  c01e7d:	00 00 00 
  c01e80:	c7 05 70 80 c0 00 00 	movl   $0x0,0xc08070
  c01e87:	00 00 00 
  c01e8a:	c7 05 74 80 c0 00 00 	movl   $0x0,0xc08074
  c01e91:	00 00 00 
  c01e94:	c7 05 44 80 c0 00 00 	movl   $0x0,0xc08044
  c01e9b:	00 00 00 
  c01e9e:	c7 05 48 80 c0 00 00 	movl   $0x0,0xc08048
  c01ea5:	00 00 00 
  c01ea8:	b8 00 00 00 00       	mov    $0x0,%eax
  c01ead:	5d                   	pop    %ebp
  c01eae:	c3                   	ret    

00c01eaf <yylex_destroy>:
  c01eaf:	55                   	push   %ebp
  c01eb0:	89 e5                	mov    %esp,%ebp
  c01eb2:	83 ec 08             	sub    $0x8,%esp
  c01eb5:	eb 49                	jmp    c01f00 <yylex_destroy+0x51>
  c01eb7:	a1 60 80 c0 00       	mov    0xc08060,%eax
  c01ebc:	85 c0                	test   %eax,%eax
  c01ebe:	74 14                	je     c01ed4 <yylex_destroy+0x25>
  c01ec0:	a1 60 80 c0 00       	mov    0xc08060,%eax
  c01ec5:	8b 15 58 80 c0 00    	mov    0xc08058,%edx
  c01ecb:	c1 e2 02             	shl    $0x2,%edx
  c01ece:	01 d0                	add    %edx,%eax
  c01ed0:	8b 00                	mov    (%eax),%eax
  c01ed2:	eb 05                	jmp    c01ed9 <yylex_destroy+0x2a>
  c01ed4:	b8 00 00 00 00       	mov    $0x0,%eax
  c01ed9:	83 ec 0c             	sub    $0xc,%esp
  c01edc:	50                   	push   %eax
  c01edd:	e8 11 f9 ff ff       	call   c017f3 <yy_delete_buffer>
  c01ee2:	83 c4 10             	add    $0x10,%esp
  c01ee5:	a1 60 80 c0 00       	mov    0xc08060,%eax
  c01eea:	8b 15 58 80 c0 00    	mov    0xc08058,%edx
  c01ef0:	c1 e2 02             	shl    $0x2,%edx
  c01ef3:	01 d0                	add    %edx,%eax
  c01ef5:	c7 00 00 00 00 00    	movl   $0x0,(%eax)
  c01efb:	e8 4a fb ff ff       	call   c01a4a <yypop_buffer_state>
  c01f00:	a1 60 80 c0 00       	mov    0xc08060,%eax
  c01f05:	85 c0                	test   %eax,%eax
  c01f07:	74 16                	je     c01f1f <yylex_destroy+0x70>
  c01f09:	a1 60 80 c0 00       	mov    0xc08060,%eax
  c01f0e:	8b 15 58 80 c0 00    	mov    0xc08058,%edx
  c01f14:	c1 e2 02             	shl    $0x2,%edx
  c01f17:	01 d0                	add    %edx,%eax
  c01f19:	8b 00                	mov    (%eax),%eax
  c01f1b:	85 c0                	test   %eax,%eax
  c01f1d:	75 98                	jne    c01eb7 <yylex_destroy+0x8>
  c01f1f:	a1 60 80 c0 00       	mov    0xc08060,%eax
  c01f24:	83 ec 0c             	sub    $0xc,%esp
  c01f27:	50                   	push   %eax
  c01f28:	e8 48 00 00 00       	call   c01f75 <yyfree>
  c01f2d:	83 c4 10             	add    $0x10,%esp
  c01f30:	c7 05 60 80 c0 00 00 	movl   $0x0,0xc08060
  c01f37:	00 00 00 
  c01f3a:	e8 0c ff ff ff       	call   c01e4b <yy_init_globals>
  c01f3f:	b8 00 00 00 00       	mov    $0x0,%eax
  c01f44:	c9                   	leave  
  c01f45:	c3                   	ret    

00c01f46 <yyalloc>:
  c01f46:	55                   	push   %ebp
  c01f47:	89 e5                	mov    %esp,%ebp
  c01f49:	83 ec 08             	sub    $0x8,%esp
  c01f4c:	83 ec 0c             	sub    $0xc,%esp
  c01f4f:	ff 75 08             	pushl  0x8(%ebp)
  c01f52:	e8 00 1b 00 00       	call   c03a57 <malloc>
  c01f57:	83 c4 10             	add    $0x10,%esp
  c01f5a:	c9                   	leave  
  c01f5b:	c3                   	ret    

00c01f5c <yyrealloc>:
  c01f5c:	55                   	push   %ebp
  c01f5d:	89 e5                	mov    %esp,%ebp
  c01f5f:	83 ec 08             	sub    $0x8,%esp
  c01f62:	83 ec 08             	sub    $0x8,%esp
  c01f65:	ff 75 0c             	pushl  0xc(%ebp)
  c01f68:	ff 75 08             	pushl  0x8(%ebp)
  c01f6b:	e8 bc 0a 00 00       	call   c02a2c <realloc>
  c01f70:	83 c4 10             	add    $0x10,%esp
  c01f73:	c9                   	leave  
  c01f74:	c3                   	ret    

00c01f75 <yyfree>:
  c01f75:	55                   	push   %ebp
  c01f76:	89 e5                	mov    %esp,%ebp
  c01f78:	83 ec 08             	sub    $0x8,%esp
  c01f7b:	83 ec 0c             	sub    $0xc,%esp
  c01f7e:	ff 75 08             	pushl  0x8(%ebp)
  c01f81:	e8 24 19 00 00       	call   c038aa <free>
  c01f86:	83 c4 10             	add    $0x10,%esp
  c01f89:	c9                   	leave  
  c01f8a:	c3                   	ret    

00c01f8b <yywrap>:
  c01f8b:	55                   	push   %ebp
  c01f8c:	89 e5                	mov    %esp,%ebp
  c01f8e:	b8 01 00 00 00       	mov    $0x1,%eax
  c01f93:	5d                   	pop    %ebp
  c01f94:	c3                   	ret    
  c01f95:	66 90                	xchg   %ax,%ax
  c01f97:	90                   	nop

00c01f98 <strcat>:
  c01f98:	55                   	push   %ebp
  c01f99:	89 e5                	mov    %esp,%ebp
  c01f9b:	57                   	push   %edi
  c01f9c:	56                   	push   %esi
  c01f9d:	53                   	push   %ebx
  c01f9e:	8b 55 0c             	mov    0xc(%ebp),%edx
  c01fa1:	8b 5d 08             	mov    0x8(%ebp),%ebx
  c01fa4:	b8 00 00 00 00       	mov    $0x0,%eax
  c01fa9:	b9 ff ff ff ff       	mov    $0xffffffff,%ecx
  c01fae:	89 d6                	mov    %edx,%esi
  c01fb0:	89 df                	mov    %ebx,%edi
  c01fb2:	fc                   	cld    
  c01fb3:	f2 ae                	repnz scas %es:(%edi),%al
  c01fb5:	4f                   	dec    %edi
  c01fb6:	ac                   	lods   %ds:(%esi),%al
  c01fb7:	aa                   	stos   %al,%es:(%edi)
  c01fb8:	84 c0                	test   %al,%al
  c01fba:	75 fa                	jne    c01fb6 <strcat+0x1e>
  c01fbc:	8b 45 08             	mov    0x8(%ebp),%eax
  c01fbf:	5b                   	pop    %ebx
  c01fc0:	5e                   	pop    %esi
  c01fc1:	5f                   	pop    %edi
  c01fc2:	5d                   	pop    %ebp
  c01fc3:	c3                   	ret    

00c01fc4 <strlen>:
  c01fc4:	55                   	push   %ebp
  c01fc5:	89 e5                	mov    %esp,%ebp
  c01fc7:	57                   	push   %edi
  c01fc8:	8b 55 08             	mov    0x8(%ebp),%edx
  c01fcb:	b8 00 00 00 00       	mov    $0x0,%eax
  c01fd0:	b9 ff ff ff ff       	mov    $0xffffffff,%ecx
  c01fd5:	89 d7                	mov    %edx,%edi
  c01fd7:	fc                   	cld    
  c01fd8:	f2 ae                	repnz scas %es:(%edi),%al
  c01fda:	f7 d1                	not    %ecx
  c01fdc:	49                   	dec    %ecx
  c01fdd:	89 c8                	mov    %ecx,%eax
  c01fdf:	5f                   	pop    %edi
  c01fe0:	5d                   	pop    %ebp
  c01fe1:	c3                   	ret    

00c01fe2 <memcpy>:
  c01fe2:	55                   	push   %ebp
  c01fe3:	89 e5                	mov    %esp,%ebp
  c01fe5:	57                   	push   %edi
  c01fe6:	56                   	push   %esi
  c01fe7:	53                   	push   %ebx
  c01fe8:	8b 45 10             	mov    0x10(%ebp),%eax
  c01feb:	8b 55 0c             	mov    0xc(%ebp),%edx
  c01fee:	8b 5d 08             	mov    0x8(%ebp),%ebx
  c01ff1:	89 c1                	mov    %eax,%ecx
  c01ff3:	89 d6                	mov    %edx,%esi
  c01ff5:	89 df                	mov    %ebx,%edi
  c01ff7:	fc                   	cld    
  c01ff8:	f3 a4                	rep movsb %ds:(%esi),%es:(%edi)
  c01ffa:	8b 45 08             	mov    0x8(%ebp),%eax
  c01ffd:	5b                   	pop    %ebx
  c01ffe:	5e                   	pop    %esi
  c01fff:	5f                   	pop    %edi
  c02000:	5d                   	pop    %ebp
  c02001:	c3                   	ret    

00c02002 <strdup>:
  c02002:	55                   	push   %ebp
  c02003:	89 e5                	mov    %esp,%ebp
  c02005:	83 ec 18             	sub    $0x18,%esp
  c02008:	ff 75 08             	pushl  0x8(%ebp)
  c0200b:	e8 b4 ff ff ff       	call   c01fc4 <strlen>
  c02010:	83 c4 04             	add    $0x4,%esp
  c02013:	83 c0 01             	add    $0x1,%eax
  c02016:	89 45 f4             	mov    %eax,-0xc(%ebp)
  c02019:	83 ec 0c             	sub    $0xc,%esp
  c0201c:	ff 75 f4             	pushl  -0xc(%ebp)
  c0201f:	e8 33 1a 00 00       	call   c03a57 <malloc>
  c02024:	83 c4 10             	add    $0x10,%esp
  c02027:	89 45 f0             	mov    %eax,-0x10(%ebp)
  c0202a:	83 7d f0 00          	cmpl   $0x0,-0x10(%ebp)
  c0202e:	75 07                	jne    c02037 <strdup+0x35>
  c02030:	b8 00 00 00 00       	mov    $0x0,%eax
  c02035:	eb 15                	jmp    c0204c <strdup+0x4a>
  c02037:	8b 45 f4             	mov    -0xc(%ebp),%eax
  c0203a:	83 ec 04             	sub    $0x4,%esp
  c0203d:	50                   	push   %eax
  c0203e:	ff 75 08             	pushl  0x8(%ebp)
  c02041:	ff 75 f0             	pushl  -0x10(%ebp)
  c02044:	e8 99 ff ff ff       	call   c01fe2 <memcpy>
  c02049:	83 c4 10             	add    $0x10,%esp
  c0204c:	c9                   	leave  
  c0204d:	c3                   	ret    

00c0204e <newList>:
  c0204e:	55                   	push   %ebp
  c0204f:	89 e5                	mov    %esp,%ebp
  c02051:	83 ec 18             	sub    $0x18,%esp
  c02054:	83 7d 08 00          	cmpl   $0x0,0x8(%ebp)
  c02058:	74 2d                	je     c02087 <newList+0x39>
  c0205a:	8b 45 08             	mov    0x8(%ebp),%eax
  c0205d:	8b 00                	mov    (%eax),%eax
  c0205f:	83 f8 02             	cmp    $0x2,%eax
  c02062:	74 23                	je     c02087 <newList+0x39>
  c02064:	8b 45 08             	mov    0x8(%ebp),%eax
  c02067:	89 45 e8             	mov    %eax,-0x18(%ebp)
  c0206a:	c7 45 ec 00 00 00 00 	movl   $0x0,-0x14(%ebp)
  c02071:	83 ec 04             	sub    $0x4,%esp
  c02074:	ff 75 ec             	pushl  -0x14(%ebp)
  c02077:	ff 75 e8             	pushl  -0x18(%ebp)
  c0207a:	6a 02                	push   $0x2
  c0207c:	e8 2f 00 00 00       	call   c020b0 <newObject>
  c02081:	83 c4 10             	add    $0x10,%esp
  c02084:	89 45 08             	mov    %eax,0x8(%ebp)
  c02087:	c7 45 f0 00 00 00 00 	movl   $0x0,-0x10(%ebp)
  c0208e:	c7 45 f4 00 00 00 00 	movl   $0x0,-0xc(%ebp)
  c02095:	8b 45 08             	mov    0x8(%ebp),%eax
  c02098:	89 45 f0             	mov    %eax,-0x10(%ebp)
  c0209b:	83 ec 04             	sub    $0x4,%esp
  c0209e:	ff 75 f4             	pushl  -0xc(%ebp)
  c020a1:	ff 75 f0             	pushl  -0x10(%ebp)
  c020a4:	6a 03                	push   $0x3
  c020a6:	e8 05 00 00 00       	call   c020b0 <newObject>
  c020ab:	83 c4 10             	add    $0x10,%esp
  c020ae:	c9                   	leave  
  c020af:	c3                   	ret    

00c020b0 <newObject>:
  c020b0:	55                   	push   %ebp
  c020b1:	89 e5                	mov    %esp,%ebp
  c020b3:	83 ec 18             	sub    $0x18,%esp
  c020b6:	c7 45 f4 00 00 00 00 	movl   $0x0,-0xc(%ebp)
  c020bd:	83 ec 0c             	sub    $0xc,%esp
  c020c0:	6a 0c                	push   $0xc
  c020c2:	e8 90 19 00 00       	call   c03a57 <malloc>
  c020c7:	83 c4 10             	add    $0x10,%esp
  c020ca:	89 45 f4             	mov    %eax,-0xc(%ebp)
  c020cd:	83 7d f4 00          	cmpl   $0x0,-0xc(%ebp)
  c020d1:	74 17                	je     c020ea <newObject+0x3a>
  c020d3:	8b 55 08             	mov    0x8(%ebp),%edx
  c020d6:	8b 45 f4             	mov    -0xc(%ebp),%eax
  c020d9:	89 10                	mov    %edx,(%eax)
  c020db:	8b 4d f4             	mov    -0xc(%ebp),%ecx
  c020de:	8b 45 0c             	mov    0xc(%ebp),%eax
  c020e1:	8b 55 10             	mov    0x10(%ebp),%edx
  c020e4:	89 41 04             	mov    %eax,0x4(%ecx)
  c020e7:	89 51 08             	mov    %edx,0x8(%ecx)
  c020ea:	8b 45 f4             	mov    -0xc(%ebp),%eax
  c020ed:	c9                   	leave  
  c020ee:	c3                   	ret    

00c020ef <delObject>:
  c020ef:	55                   	push   %ebp
  c020f0:	89 e5                	mov    %esp,%ebp
  c020f2:	83 ec 08             	sub    $0x8,%esp
  c020f5:	83 ec 0c             	sub    $0xc,%esp
  c020f8:	68 ac 4d c0 00       	push   $0xc04dac
  c020fd:	e8 6e 19 00 00       	call   c03a70 <printf>
  c02102:	83 c4 10             	add    $0x10,%esp
  c02105:	83 ec 0c             	sub    $0xc,%esp
  c02108:	ff 75 08             	pushl  0x8(%ebp)
  c0210b:	e8 e3 08 00 00       	call   c029f3 <display>
  c02110:	83 c4 10             	add    $0x10,%esp
  c02113:	83 ec 0c             	sub    $0xc,%esp
  c02116:	68 b4 4d c0 00       	push   $0xc04db4
  c0211b:	e8 50 19 00 00       	call   c03a70 <printf>
  c02120:	83 c4 10             	add    $0x10,%esp
  c02123:	c9                   	leave  
  c02124:	c3                   	ret    

00c02125 <_car>:
  c02125:	55                   	push   %ebp
  c02126:	89 e5                	mov    %esp,%ebp
  c02128:	83 ec 08             	sub    $0x8,%esp
  c0212b:	83 7d 08 00          	cmpl   $0x0,0x8(%ebp)
  c0212f:	74 5e                	je     c0218f <_car+0x6a>
  c02131:	8b 45 08             	mov    0x8(%ebp),%eax
  c02134:	8b 00                	mov    (%eax),%eax
  c02136:	83 f8 02             	cmp    $0x2,%eax
  c02139:	75 08                	jne    c02143 <_car+0x1e>
  c0213b:	8b 45 08             	mov    0x8(%ebp),%eax
  c0213e:	8b 40 04             	mov    0x4(%eax),%eax
  c02141:	eb 51                	jmp    c02194 <_car+0x6f>
  c02143:	8b 45 08             	mov    0x8(%ebp),%eax
  c02146:	8b 00                	mov    (%eax),%eax
  c02148:	83 f8 03             	cmp    $0x3,%eax
  c0214b:	75 14                	jne    c02161 <_car+0x3c>
  c0214d:	8b 45 08             	mov    0x8(%ebp),%eax
  c02150:	8b 40 04             	mov    0x4(%eax),%eax
  c02153:	83 ec 0c             	sub    $0xc,%esp
  c02156:	50                   	push   %eax
  c02157:	e8 c9 ff ff ff       	call   c02125 <_car>
  c0215c:	83 c4 10             	add    $0x10,%esp
  c0215f:	eb 33                	jmp    c02194 <_car+0x6f>
  c02161:	83 ec 0c             	sub    $0xc,%esp
  c02164:	68 ac 4d c0 00       	push   $0xc04dac
  c02169:	e8 02 19 00 00       	call   c03a70 <printf>
  c0216e:	83 c4 10             	add    $0x10,%esp
  c02171:	83 ec 0c             	sub    $0xc,%esp
  c02174:	ff 75 08             	pushl  0x8(%ebp)
  c02177:	e8 77 08 00 00       	call   c029f3 <display>
  c0217c:	83 c4 10             	add    $0x10,%esp
  c0217f:	83 ec 0c             	sub    $0xc,%esp
  c02182:	68 d4 4d c0 00       	push   $0xc04dd4
  c02187:	e8 e4 18 00 00       	call   c03a70 <printf>
  c0218c:	83 c4 10             	add    $0x10,%esp
  c0218f:	b8 00 00 00 00       	mov    $0x0,%eax
  c02194:	c9                   	leave  
  c02195:	c3                   	ret    

00c02196 <_cdr>:
  c02196:	55                   	push   %ebp
  c02197:	89 e5                	mov    %esp,%ebp
  c02199:	83 ec 08             	sub    $0x8,%esp
  c0219c:	83 7d 08 00          	cmpl   $0x0,0x8(%ebp)
  c021a0:	74 6a                	je     c0220c <_cdr+0x76>
  c021a2:	8b 45 08             	mov    0x8(%ebp),%eax
  c021a5:	8b 00                	mov    (%eax),%eax
  c021a7:	83 f8 02             	cmp    $0x2,%eax
  c021aa:	75 08                	jne    c021b4 <_cdr+0x1e>
  c021ac:	8b 45 08             	mov    0x8(%ebp),%eax
  c021af:	8b 40 08             	mov    0x8(%eax),%eax
  c021b2:	eb 5d                	jmp    c02211 <_cdr+0x7b>
  c021b4:	8b 45 08             	mov    0x8(%ebp),%eax
  c021b7:	8b 00                	mov    (%eax),%eax
  c021b9:	83 f8 03             	cmp    $0x3,%eax
  c021bc:	75 20                	jne    c021de <_cdr+0x48>
  c021be:	8b 45 08             	mov    0x8(%ebp),%eax
  c021c1:	8b 40 04             	mov    0x4(%eax),%eax
  c021c4:	83 ec 0c             	sub    $0xc,%esp
  c021c7:	50                   	push   %eax
  c021c8:	e8 c9 ff ff ff       	call   c02196 <_cdr>
  c021cd:	83 c4 10             	add    $0x10,%esp
  c021d0:	83 ec 0c             	sub    $0xc,%esp
  c021d3:	50                   	push   %eax
  c021d4:	e8 75 fe ff ff       	call   c0204e <newList>
  c021d9:	83 c4 10             	add    $0x10,%esp
  c021dc:	eb 33                	jmp    c02211 <_cdr+0x7b>
  c021de:	83 ec 0c             	sub    $0xc,%esp
  c021e1:	68 ac 4d c0 00       	push   $0xc04dac
  c021e6:	e8 85 18 00 00       	call   c03a70 <printf>
  c021eb:	83 c4 10             	add    $0x10,%esp
  c021ee:	83 ec 0c             	sub    $0xc,%esp
  c021f1:	ff 75 08             	pushl  0x8(%ebp)
  c021f4:	e8 fa 07 00 00       	call   c029f3 <display>
  c021f9:	83 c4 10             	add    $0x10,%esp
  c021fc:	83 ec 0c             	sub    $0xc,%esp
  c021ff:	68 d4 4d c0 00       	push   $0xc04dd4
  c02204:	e8 67 18 00 00       	call   c03a70 <printf>
  c02209:	83 c4 10             	add    $0x10,%esp
  c0220c:	b8 00 00 00 00       	mov    $0x0,%eax
  c02211:	c9                   	leave  
  c02212:	c3                   	ret    

00c02213 <_symbol>:
  c02213:	55                   	push   %ebp
  c02214:	89 e5                	mov    %esp,%ebp
  c02216:	83 ec 08             	sub    $0x8,%esp
  c02219:	83 7d 08 00          	cmpl   $0x0,0x8(%ebp)
  c0221d:	74 15                	je     c02234 <_symbol+0x21>
  c0221f:	8b 45 08             	mov    0x8(%ebp),%eax
  c02222:	8b 00                	mov    (%eax),%eax
  c02224:	83 f8 05             	cmp    $0x5,%eax
  c02227:	75 0b                	jne    c02234 <_symbol+0x21>
  c02229:	8b 45 08             	mov    0x8(%ebp),%eax
  c0222c:	8b 40 04             	mov    0x4(%eax),%eax
  c0222f:	8b 40 04             	mov    0x4(%eax),%eax
  c02232:	eb 31                	jmp    c02265 <_symbol+0x52>
  c02234:	83 ec 0c             	sub    $0xc,%esp
  c02237:	68 ac 4d c0 00       	push   $0xc04dac
  c0223c:	e8 2f 18 00 00       	call   c03a70 <printf>
  c02241:	83 c4 10             	add    $0x10,%esp
  c02244:	83 ec 0c             	sub    $0xc,%esp
  c02247:	ff 75 08             	pushl  0x8(%ebp)
  c0224a:	e8 a4 07 00 00       	call   c029f3 <display>
  c0224f:	83 c4 10             	add    $0x10,%esp
  c02252:	83 ec 0c             	sub    $0xc,%esp
  c02255:	68 e5 4d c0 00       	push   $0xc04de5
  c0225a:	e8 11 18 00 00       	call   c03a70 <printf>
  c0225f:	83 c4 10             	add    $0x10,%esp
  c02262:	8b 45 08             	mov    0x8(%ebp),%eax
  c02265:	c9                   	leave  
  c02266:	c3                   	ret    

00c02267 <_fncall>:
  c02267:	55                   	push   %ebp
  c02268:	89 e5                	mov    %esp,%ebp
  c0226a:	83 ec 08             	sub    $0x8,%esp
  c0226d:	83 7d 08 00          	cmpl   $0x0,0x8(%ebp)
  c02271:	74 6f                	je     c022e2 <_fncall+0x7b>
  c02273:	8b 45 08             	mov    0x8(%ebp),%eax
  c02276:	8b 00                	mov    (%eax),%eax
  c02278:	83 f8 05             	cmp    $0x5,%eax
  c0227b:	75 65                	jne    c022e2 <_fncall+0x7b>
  c0227d:	83 ec 08             	sub    $0x8,%esp
  c02280:	6a 01                	push   $0x1
  c02282:	ff 75 0c             	pushl  0xc(%ebp)
  c02285:	e8 ce 04 00 00       	call   c02758 <_eval>
  c0228a:	83 c4 10             	add    $0x10,%esp
  c0228d:	89 45 0c             	mov    %eax,0xc(%ebp)
  c02290:	83 ec 0c             	sub    $0xc,%esp
  c02293:	ff 75 08             	pushl  0x8(%ebp)
  c02296:	e8 78 ff ff ff       	call   c02213 <_symbol>
  c0229b:	83 c4 10             	add    $0x10,%esp
  c0229e:	89 45 08             	mov    %eax,0x8(%ebp)
  c022a1:	83 7d 08 00          	cmpl   $0x0,0x8(%ebp)
  c022a5:	74 39                	je     c022e0 <_fncall+0x79>
  c022a7:	8b 45 08             	mov    0x8(%ebp),%eax
  c022aa:	8b 00                	mov    (%eax),%eax
  c022ac:	83 f8 09             	cmp    $0x9,%eax
  c022af:	75 13                	jne    c022c4 <_fncall+0x5d>
  c022b1:	8b 45 08             	mov    0x8(%ebp),%eax
  c022b4:	8b 40 04             	mov    0x4(%eax),%eax
  c022b7:	83 ec 0c             	sub    $0xc,%esp
  c022ba:	ff 75 0c             	pushl  0xc(%ebp)
  c022bd:	ff d0                	call   *%eax
  c022bf:	83 c4 10             	add    $0x10,%esp
  c022c2:	eb 51                	jmp    c02315 <_fncall+0xae>
  c022c4:	8b 45 08             	mov    0x8(%ebp),%eax
  c022c7:	8b 00                	mov    (%eax),%eax
  c022c9:	83 f8 08             	cmp    $0x8,%eax
  c022cc:	75 12                	jne    c022e0 <_fncall+0x79>
  c022ce:	83 ec 0c             	sub    $0xc,%esp
  c022d1:	68 f6 4d c0 00       	push   $0xc04df6
  c022d6:	e8 95 17 00 00       	call   c03a70 <printf>
  c022db:	83 c4 10             	add    $0x10,%esp
  c022de:	eb 30                	jmp    c02310 <_fncall+0xa9>
  c022e0:	eb 2e                	jmp    c02310 <_fncall+0xa9>
  c022e2:	83 ec 0c             	sub    $0xc,%esp
  c022e5:	68 ac 4d c0 00       	push   $0xc04dac
  c022ea:	e8 81 17 00 00       	call   c03a70 <printf>
  c022ef:	83 c4 10             	add    $0x10,%esp
  c022f2:	83 ec 0c             	sub    $0xc,%esp
  c022f5:	ff 75 08             	pushl  0x8(%ebp)
  c022f8:	e8 f6 06 00 00       	call   c029f3 <display>
  c022fd:	83 c4 10             	add    $0x10,%esp
  c02300:	83 ec 0c             	sub    $0xc,%esp
  c02303:	68 0c 4e c0 00       	push   $0xc04e0c
  c02308:	e8 63 17 00 00       	call   c03a70 <printf>
  c0230d:	83 c4 10             	add    $0x10,%esp
  c02310:	b8 00 00 00 00       	mov    $0x0,%eax
  c02315:	c9                   	leave  
  c02316:	c3                   	ret    

00c02317 <_list>:
  c02317:	55                   	push   %ebp
  c02318:	89 e5                	mov    %esp,%ebp
  c0231a:	53                   	push   %ebx
  c0231b:	83 ec 04             	sub    $0x4,%esp
  c0231e:	83 7d 08 00          	cmpl   $0x0,0x8(%ebp)
  c02322:	74 30                	je     c02354 <_list+0x3d>
  c02324:	8b 45 08             	mov    0x8(%ebp),%eax
  c02327:	8b 00                	mov    (%eax),%eax
  c02329:	83 f8 03             	cmp    $0x3,%eax
  c0232c:	75 26                	jne    c02354 <_list+0x3d>
  c0232e:	8b 45 08             	mov    0x8(%ebp),%eax
  c02331:	8b 40 04             	mov    0x4(%eax),%eax
  c02334:	8b 58 08             	mov    0x8(%eax),%ebx
  c02337:	83 ec 0c             	sub    $0xc,%esp
  c0233a:	ff 75 08             	pushl  0x8(%ebp)
  c0233d:	e8 e3 fd ff ff       	call   c02125 <_car>
  c02342:	83 c4 10             	add    $0x10,%esp
  c02345:	83 ec 08             	sub    $0x8,%esp
  c02348:	53                   	push   %ebx
  c02349:	50                   	push   %eax
  c0234a:	e8 18 ff ff ff       	call   c02267 <_fncall>
  c0234f:	83 c4 10             	add    $0x10,%esp
  c02352:	eb 31                	jmp    c02385 <_list+0x6e>
  c02354:	83 ec 0c             	sub    $0xc,%esp
  c02357:	68 ac 4d c0 00       	push   $0xc04dac
  c0235c:	e8 0f 17 00 00       	call   c03a70 <printf>
  c02361:	83 c4 10             	add    $0x10,%esp
  c02364:	83 ec 0c             	sub    $0xc,%esp
  c02367:	ff 75 08             	pushl  0x8(%ebp)
  c0236a:	e8 84 06 00 00       	call   c029f3 <display>
  c0236f:	83 c4 10             	add    $0x10,%esp
  c02372:	83 ec 0c             	sub    $0xc,%esp
  c02375:	68 3b 4e c0 00       	push   $0xc04e3b
  c0237a:	e8 f1 16 00 00       	call   c03a70 <printf>
  c0237f:	83 c4 10             	add    $0x10,%esp
  c02382:	8b 45 08             	mov    0x8(%ebp),%eax
  c02385:	8b 5d fc             	mov    -0x4(%ebp),%ebx
  c02388:	c9                   	leave  
  c02389:	c3                   	ret    

00c0238a <_set>:
  c0238a:	55                   	push   %ebp
  c0238b:	89 e5                	mov    %esp,%ebp
  c0238d:	53                   	push   %ebx
  c0238e:	83 ec 14             	sub    $0x14,%esp
  c02391:	c7 45 f4 00 00 00 00 	movl   $0x0,-0xc(%ebp)
  c02398:	83 7d 08 00          	cmpl   $0x0,0x8(%ebp)
  c0239c:	0f 84 b0 00 00 00    	je     c02452 <_set+0xc8>
  c023a2:	8b 45 08             	mov    0x8(%ebp),%eax
  c023a5:	8b 00                	mov    (%eax),%eax
  c023a7:	83 f8 02             	cmp    $0x2,%eax
  c023aa:	75 76                	jne    c02422 <_set+0x98>
  c023ac:	83 ec 0c             	sub    $0xc,%esp
  c023af:	ff 75 08             	pushl  0x8(%ebp)
  c023b2:	e8 6e fd ff ff       	call   c02125 <_car>
  c023b7:	83 c4 10             	add    $0x10,%esp
  c023ba:	89 45 f4             	mov    %eax,-0xc(%ebp)
  c023bd:	83 7d f4 00          	cmpl   $0x0,-0xc(%ebp)
  c023c1:	74 2f                	je     c023f2 <_set+0x68>
  c023c3:	8b 45 f4             	mov    -0xc(%ebp),%eax
  c023c6:	8b 00                	mov    (%eax),%eax
  c023c8:	83 f8 05             	cmp    $0x5,%eax
  c023cb:	75 25                	jne    c023f2 <_set+0x68>
  c023cd:	8b 45 f4             	mov    -0xc(%ebp),%eax
  c023d0:	8b 58 04             	mov    0x4(%eax),%ebx
  c023d3:	83 ec 0c             	sub    $0xc,%esp
  c023d6:	ff 75 08             	pushl  0x8(%ebp)
  c023d9:	e8 b8 fd ff ff       	call   c02196 <_cdr>
  c023de:	83 c4 10             	add    $0x10,%esp
  c023e1:	89 43 04             	mov    %eax,0x4(%ebx)
  c023e4:	8b 45 f4             	mov    -0xc(%ebp),%eax
  c023e7:	8b 40 04             	mov    0x4(%eax),%eax
  c023ea:	8b 40 04             	mov    0x4(%eax),%eax
  c023ed:	e9 91 00 00 00       	jmp    c02483 <_set+0xf9>
  c023f2:	83 ec 0c             	sub    $0xc,%esp
  c023f5:	68 ac 4d c0 00       	push   $0xc04dac
  c023fa:	e8 71 16 00 00       	call   c03a70 <printf>
  c023ff:	83 c4 10             	add    $0x10,%esp
  c02402:	83 ec 0c             	sub    $0xc,%esp
  c02405:	ff 75 08             	pushl  0x8(%ebp)
  c02408:	e8 e6 05 00 00       	call   c029f3 <display>
  c0240d:	83 c4 10             	add    $0x10,%esp
  c02410:	83 ec 0c             	sub    $0xc,%esp
  c02413:	68 58 4e c0 00       	push   $0xc04e58
  c02418:	e8 53 16 00 00       	call   c03a70 <printf>
  c0241d:	83 c4 10             	add    $0x10,%esp
  c02420:	eb 5e                	jmp    c02480 <_set+0xf6>
  c02422:	83 ec 0c             	sub    $0xc,%esp
  c02425:	68 ac 4d c0 00       	push   $0xc04dac
  c0242a:	e8 41 16 00 00       	call   c03a70 <printf>
  c0242f:	83 c4 10             	add    $0x10,%esp
  c02432:	83 ec 0c             	sub    $0xc,%esp
  c02435:	ff 75 08             	pushl  0x8(%ebp)
  c02438:	e8 b6 05 00 00       	call   c029f3 <display>
  c0243d:	83 c4 10             	add    $0x10,%esp
  c02440:	83 ec 0c             	sub    $0xc,%esp
  c02443:	68 6b 4e c0 00       	push   $0xc04e6b
  c02448:	e8 23 16 00 00       	call   c03a70 <printf>
  c0244d:	83 c4 10             	add    $0x10,%esp
  c02450:	eb 2e                	jmp    c02480 <_set+0xf6>
  c02452:	83 ec 0c             	sub    $0xc,%esp
  c02455:	68 ac 4d c0 00       	push   $0xc04dac
  c0245a:	e8 11 16 00 00       	call   c03a70 <printf>
  c0245f:	83 c4 10             	add    $0x10,%esp
  c02462:	83 ec 0c             	sub    $0xc,%esp
  c02465:	ff 75 08             	pushl  0x8(%ebp)
  c02468:	e8 86 05 00 00       	call   c029f3 <display>
  c0246d:	83 c4 10             	add    $0x10,%esp
  c02470:	83 ec 0c             	sub    $0xc,%esp
  c02473:	68 70 4e c0 00       	push   $0xc04e70
  c02478:	e8 f3 15 00 00       	call   c03a70 <printf>
  c0247d:	83 c4 10             	add    $0x10,%esp
  c02480:	8b 45 08             	mov    0x8(%ebp),%eax
  c02483:	8b 5d fc             	mov    -0x4(%ebp),%ebx
  c02486:	c9                   	leave  
  c02487:	c3                   	ret    

00c02488 <mergeString>:
  c02488:	55                   	push   %ebp
  c02489:	89 e5                	mov    %esp,%ebp
  c0248b:	53                   	push   %ebx
  c0248c:	83 ec 14             	sub    $0x14,%esp
  c0248f:	c7 45 f4 00 00 00 00 	movl   $0x0,-0xc(%ebp)
  c02496:	83 7d 08 00          	cmpl   $0x0,0x8(%ebp)
  c0249a:	74 71                	je     c0250d <mergeString+0x85>
  c0249c:	83 7d 0c 00          	cmpl   $0x0,0xc(%ebp)
  c024a0:	74 63                	je     c02505 <mergeString+0x7d>
  c024a2:	ff 75 08             	pushl  0x8(%ebp)
  c024a5:	e8 1a fb ff ff       	call   c01fc4 <strlen>
  c024aa:	83 c4 04             	add    $0x4,%esp
  c024ad:	89 c3                	mov    %eax,%ebx
  c024af:	ff 75 0c             	pushl  0xc(%ebp)
  c024b2:	e8 0d fb ff ff       	call   c01fc4 <strlen>
  c024b7:	83 c4 04             	add    $0x4,%esp
  c024ba:	01 d8                	add    %ebx,%eax
  c024bc:	83 c0 02             	add    $0x2,%eax
  c024bf:	83 ec 08             	sub    $0x8,%esp
  c024c2:	50                   	push   %eax
  c024c3:	ff 75 08             	pushl  0x8(%ebp)
  c024c6:	e8 61 05 00 00       	call   c02a2c <realloc>
  c024cb:	83 c4 10             	add    $0x10,%esp
  c024ce:	89 45 f4             	mov    %eax,-0xc(%ebp)
  c024d1:	83 ec 08             	sub    $0x8,%esp
  c024d4:	68 83 4e c0 00       	push   $0xc04e83
  c024d9:	ff 75 f4             	pushl  -0xc(%ebp)
  c024dc:	e8 b7 fa ff ff       	call   c01f98 <strcat>
  c024e1:	83 c4 10             	add    $0x10,%esp
  c024e4:	83 ec 08             	sub    $0x8,%esp
  c024e7:	ff 75 0c             	pushl  0xc(%ebp)
  c024ea:	ff 75 f4             	pushl  -0xc(%ebp)
  c024ed:	e8 a6 fa ff ff       	call   c01f98 <strcat>
  c024f2:	83 c4 10             	add    $0x10,%esp
  c024f5:	83 ec 0c             	sub    $0xc,%esp
  c024f8:	ff 75 0c             	pushl  0xc(%ebp)
  c024fb:	e8 aa 13 00 00       	call   c038aa <free>
  c02500:	83 c4 10             	add    $0x10,%esp
  c02503:	eb 0e                	jmp    c02513 <mergeString+0x8b>
  c02505:	8b 45 08             	mov    0x8(%ebp),%eax
  c02508:	89 45 f4             	mov    %eax,-0xc(%ebp)
  c0250b:	eb 06                	jmp    c02513 <mergeString+0x8b>
  c0250d:	8b 45 0c             	mov    0xc(%ebp),%eax
  c02510:	89 45 f4             	mov    %eax,-0xc(%ebp)
  c02513:	8b 45 f4             	mov    -0xc(%ebp),%eax
  c02516:	8b 5d fc             	mov    -0x4(%ebp),%ebx
  c02519:	c9                   	leave  
  c0251a:	c3                   	ret    

00c0251b <merge>:
  c0251b:	55                   	push   %ebp
  c0251c:	89 e5                	mov    %esp,%ebp
  c0251e:	53                   	push   %ebx
  c0251f:	83 ec 14             	sub    $0x14,%esp
  c02522:	c7 45 f4 00 00 00 00 	movl   $0x0,-0xc(%ebp)
  c02529:	83 7d 08 00          	cmpl   $0x0,0x8(%ebp)
  c0252d:	0f 84 95 00 00 00    	je     c025c8 <merge+0xad>
  c02533:	8b 45 08             	mov    0x8(%ebp),%eax
  c02536:	8b 00                	mov    (%eax),%eax
  c02538:	83 f8 07             	cmp    $0x7,%eax
  c0253b:	75 17                	jne    c02554 <merge+0x39>
  c0253d:	8b 45 08             	mov    0x8(%ebp),%eax
  c02540:	8b 40 04             	mov    0x4(%eax),%eax
  c02543:	83 ec 0c             	sub    $0xc,%esp
  c02546:	50                   	push   %eax
  c02547:	e8 b6 fa ff ff       	call   c02002 <strdup>
  c0254c:	83 c4 10             	add    $0x10,%esp
  c0254f:	89 45 f4             	mov    %eax,-0xc(%ebp)
  c02552:	eb 74                	jmp    c025c8 <merge+0xad>
  c02554:	8b 45 08             	mov    0x8(%ebp),%eax
  c02557:	8b 00                	mov    (%eax),%eax
  c02559:	83 f8 02             	cmp    $0x2,%eax
  c0255c:	75 48                	jne    c025a6 <merge+0x8b>
  c0255e:	83 ec 0c             	sub    $0xc,%esp
  c02561:	ff 75 08             	pushl  0x8(%ebp)
  c02564:	e8 2d fc ff ff       	call   c02196 <_cdr>
  c02569:	83 c4 10             	add    $0x10,%esp
  c0256c:	83 ec 0c             	sub    $0xc,%esp
  c0256f:	50                   	push   %eax
  c02570:	e8 a6 ff ff ff       	call   c0251b <merge>
  c02575:	83 c4 10             	add    $0x10,%esp
  c02578:	89 c3                	mov    %eax,%ebx
  c0257a:	83 ec 0c             	sub    $0xc,%esp
  c0257d:	ff 75 08             	pushl  0x8(%ebp)
  c02580:	e8 a0 fb ff ff       	call   c02125 <_car>
  c02585:	83 c4 10             	add    $0x10,%esp
  c02588:	83 ec 0c             	sub    $0xc,%esp
  c0258b:	50                   	push   %eax
  c0258c:	e8 8a ff ff ff       	call   c0251b <merge>
  c02591:	83 c4 10             	add    $0x10,%esp
  c02594:	83 ec 08             	sub    $0x8,%esp
  c02597:	53                   	push   %ebx
  c02598:	50                   	push   %eax
  c02599:	e8 ea fe ff ff       	call   c02488 <mergeString>
  c0259e:	83 c4 10             	add    $0x10,%esp
  c025a1:	89 45 f4             	mov    %eax,-0xc(%ebp)
  c025a4:	eb 22                	jmp    c025c8 <merge+0xad>
  c025a6:	8b 45 08             	mov    0x8(%ebp),%eax
  c025a9:	8b 00                	mov    (%eax),%eax
  c025ab:	83 f8 05             	cmp    $0x5,%eax
  c025ae:	75 18                	jne    c025c8 <merge+0xad>
  c025b0:	8b 45 08             	mov    0x8(%ebp),%eax
  c025b3:	8b 40 04             	mov    0x4(%eax),%eax
  c025b6:	8b 40 04             	mov    0x4(%eax),%eax
  c025b9:	83 ec 0c             	sub    $0xc,%esp
  c025bc:	50                   	push   %eax
  c025bd:	e8 59 ff ff ff       	call   c0251b <merge>
  c025c2:	83 c4 10             	add    $0x10,%esp
  c025c5:	89 45 f4             	mov    %eax,-0xc(%ebp)
  c025c8:	8b 45 f4             	mov    -0xc(%ebp),%eax
  c025cb:	8b 5d fc             	mov    -0x4(%ebp),%ebx
  c025ce:	c9                   	leave  
  c025cf:	c3                   	ret    

00c025d0 <_quit>:
  c025d0:	55                   	push   %ebp
  c025d1:	89 e5                	mov    %esp,%ebp
  c025d3:	83 ec 08             	sub    $0x8,%esp
  c025d6:	83 ec 0c             	sub    $0xc,%esp
  c025d9:	6a 00                	push   $0x0
  c025db:	e8 61 0d 00 00       	call   c03341 <exit>

00c025e0 <_exec>:
  c025e0:	55                   	push   %ebp
  c025e1:	89 e5                	mov    %esp,%ebp
  c025e3:	83 ec 18             	sub    $0x18,%esp
  c025e6:	c7 45 f0 00 00 00 00 	movl   $0x0,-0x10(%ebp)
  c025ed:	c7 45 f4 00 00 00 00 	movl   $0x0,-0xc(%ebp)
  c025f4:	83 7d 08 00          	cmpl   $0x0,0x8(%ebp)
  c025f8:	74 5a                	je     c02654 <_exec+0x74>
  c025fa:	83 ec 0c             	sub    $0xc,%esp
  c025fd:	ff 75 08             	pushl  0x8(%ebp)
  c02600:	e8 16 ff ff ff       	call   c0251b <merge>
  c02605:	83 c4 10             	add    $0x10,%esp
  c02608:	89 45 f0             	mov    %eax,-0x10(%ebp)
  c0260b:	83 7d f0 00          	cmpl   $0x0,-0x10(%ebp)
  c0260f:	74 43                	je     c02654 <_exec+0x74>
  c02611:	c7 45 e8 00 00 00 00 	movl   $0x0,-0x18(%ebp)
  c02618:	c7 45 ec 00 00 00 00 	movl   $0x0,-0x14(%ebp)
  c0261f:	83 ec 0c             	sub    $0xc,%esp
  c02622:	ff 75 f0             	pushl  -0x10(%ebp)
  c02625:	e8 d5 04 00 00       	call   c02aff <system>
  c0262a:	83 c4 10             	add    $0x10,%esp
  c0262d:	89 45 e8             	mov    %eax,-0x18(%ebp)
  c02630:	83 ec 04             	sub    $0x4,%esp
  c02633:	ff 75 ec             	pushl  -0x14(%ebp)
  c02636:	ff 75 e8             	pushl  -0x18(%ebp)
  c02639:	6a 06                	push   $0x6
  c0263b:	e8 70 fa ff ff       	call   c020b0 <newObject>
  c02640:	83 c4 10             	add    $0x10,%esp
  c02643:	89 45 f4             	mov    %eax,-0xc(%ebp)
  c02646:	83 ec 0c             	sub    $0xc,%esp
  c02649:	ff 75 f0             	pushl  -0x10(%ebp)
  c0264c:	e8 59 12 00 00       	call   c038aa <free>
  c02651:	83 c4 10             	add    $0x10,%esp
  c02654:	8b 45 f4             	mov    -0xc(%ebp),%eax
  c02657:	c9                   	leave  
  c02658:	c3                   	ret    

00c02659 <builtImpl>:
  c02659:	55                   	push   %ebp
  c0265a:	89 e5                	mov    %esp,%ebp
  c0265c:	83 ec 18             	sub    $0x18,%esp
  c0265f:	c7 45 f4 00 00 00 00 	movl   $0x0,-0xc(%ebp)
  c02666:	83 ec 0c             	sub    $0xc,%esp
  c02669:	6a 0c                	push   $0xc
  c0266b:	e8 e7 13 00 00       	call   c03a57 <malloc>
  c02670:	83 c4 10             	add    $0x10,%esp
  c02673:	89 45 f4             	mov    %eax,-0xc(%ebp)
  c02676:	83 7d f4 00          	cmpl   $0x0,-0xc(%ebp)
  c0267a:	74 12                	je     c0268e <builtImpl+0x35>
  c0267c:	8b 45 f4             	mov    -0xc(%ebp),%eax
  c0267f:	c7 00 09 00 00 00    	movl   $0x9,(%eax)
  c02685:	8b 45 f4             	mov    -0xc(%ebp),%eax
  c02688:	8b 55 08             	mov    0x8(%ebp),%edx
  c0268b:	89 50 04             	mov    %edx,0x4(%eax)
  c0268e:	8b 45 f4             	mov    -0xc(%ebp),%eax
  c02691:	c9                   	leave  
  c02692:	c3                   	ret    

00c02693 <built>:
  c02693:	55                   	push   %ebp
  c02694:	89 e5                	mov    %esp,%ebp
  c02696:	53                   	push   %ebx
  c02697:	83 ec 04             	sub    $0x4,%esp
  c0269a:	83 ec 0c             	sub    $0xc,%esp
  c0269d:	68 85 4e c0 00       	push   $0xc04e85
  c026a2:	e8 20 06 00 00       	call   c02cc7 <lookup>
  c026a7:	83 c4 10             	add    $0x10,%esp
  c026aa:	89 c3                	mov    %eax,%ebx
  c026ac:	83 ec 0c             	sub    $0xc,%esp
  c026af:	68 25 21 c0 00       	push   $0xc02125
  c026b4:	e8 a0 ff ff ff       	call   c02659 <builtImpl>
  c026b9:	83 c4 10             	add    $0x10,%esp
  c026bc:	89 43 04             	mov    %eax,0x4(%ebx)
  c026bf:	83 ec 0c             	sub    $0xc,%esp
  c026c2:	68 89 4e c0 00       	push   $0xc04e89
  c026c7:	e8 fb 05 00 00       	call   c02cc7 <lookup>
  c026cc:	83 c4 10             	add    $0x10,%esp
  c026cf:	89 c3                	mov    %eax,%ebx
  c026d1:	83 ec 0c             	sub    $0xc,%esp
  c026d4:	68 96 21 c0 00       	push   $0xc02196
  c026d9:	e8 7b ff ff ff       	call   c02659 <builtImpl>
  c026de:	83 c4 10             	add    $0x10,%esp
  c026e1:	89 43 04             	mov    %eax,0x4(%ebx)
  c026e4:	83 ec 0c             	sub    $0xc,%esp
  c026e7:	68 8d 4e c0 00       	push   $0xc04e8d
  c026ec:	e8 d6 05 00 00       	call   c02cc7 <lookup>
  c026f1:	83 c4 10             	add    $0x10,%esp
  c026f4:	89 c3                	mov    %eax,%ebx
  c026f6:	83 ec 0c             	sub    $0xc,%esp
  c026f9:	68 8a 23 c0 00       	push   $0xc0238a
  c026fe:	e8 56 ff ff ff       	call   c02659 <builtImpl>
  c02703:	83 c4 10             	add    $0x10,%esp
  c02706:	89 43 04             	mov    %eax,0x4(%ebx)
  c02709:	83 ec 0c             	sub    $0xc,%esp
  c0270c:	68 91 4e c0 00       	push   $0xc04e91
  c02711:	e8 b1 05 00 00       	call   c02cc7 <lookup>
  c02716:	83 c4 10             	add    $0x10,%esp
  c02719:	89 c3                	mov    %eax,%ebx
  c0271b:	83 ec 0c             	sub    $0xc,%esp
  c0271e:	68 e0 25 c0 00       	push   $0xc025e0
  c02723:	e8 31 ff ff ff       	call   c02659 <builtImpl>
  c02728:	83 c4 10             	add    $0x10,%esp
  c0272b:	89 43 04             	mov    %eax,0x4(%ebx)
  c0272e:	83 ec 0c             	sub    $0xc,%esp
  c02731:	68 96 4e c0 00       	push   $0xc04e96
  c02736:	e8 8c 05 00 00       	call   c02cc7 <lookup>
  c0273b:	83 c4 10             	add    $0x10,%esp
  c0273e:	89 c3                	mov    %eax,%ebx
  c02740:	83 ec 0c             	sub    $0xc,%esp
  c02743:	68 d0 25 c0 00       	push   $0xc025d0
  c02748:	e8 0c ff ff ff       	call   c02659 <builtImpl>
  c0274d:	83 c4 10             	add    $0x10,%esp
  c02750:	89 43 04             	mov    %eax,0x4(%ebx)
  c02753:	8b 5d fc             	mov    -0x4(%ebp),%ebx
  c02756:	c9                   	leave  
  c02757:	c3                   	ret    

00c02758 <_eval>:
  c02758:	55                   	push   %ebp
  c02759:	89 e5                	mov    %esp,%ebp
  c0275b:	53                   	push   %ebx
  c0275c:	83 ec 14             	sub    $0x14,%esp
  c0275f:	8b 45 0c             	mov    0xc(%ebp),%eax
  c02762:	88 45 f4             	mov    %al,-0xc(%ebp)
  c02765:	83 7d 08 00          	cmpl   $0x0,0x8(%ebp)
  c02769:	0f 84 d7 00 00 00    	je     c02846 <_eval+0xee>
  c0276f:	8b 45 08             	mov    0x8(%ebp),%eax
  c02772:	8b 00                	mov    (%eax),%eax
  c02774:	83 f8 07             	cmp    $0x7,%eax
  c02777:	0f 87 c8 00 00 00    	ja     c02845 <_eval+0xed>
  c0277d:	8b 04 85 9c 4e c0 00 	mov    0xc04e9c(,%eax,4),%eax
  c02784:	ff e0                	jmp    *%eax
  c02786:	80 7d f4 00          	cmpb   $0x0,-0xc(%ebp)
  c0278a:	74 27                	je     c027b3 <_eval+0x5b>
  c0278c:	0f b6 5d f4          	movzbl -0xc(%ebp),%ebx
  c02790:	83 ec 0c             	sub    $0xc,%esp
  c02793:	ff 75 08             	pushl  0x8(%ebp)
  c02796:	e8 78 fa ff ff       	call   c02213 <_symbol>
  c0279b:	83 c4 10             	add    $0x10,%esp
  c0279e:	83 ec 08             	sub    $0x8,%esp
  c027a1:	53                   	push   %ebx
  c027a2:	50                   	push   %eax
  c027a3:	e8 b0 ff ff ff       	call   c02758 <_eval>
  c027a8:	83 c4 10             	add    $0x10,%esp
  c027ab:	89 45 08             	mov    %eax,0x8(%ebp)
  c027ae:	e9 93 00 00 00       	jmp    c02846 <_eval+0xee>
  c027b3:	e9 8e 00 00 00       	jmp    c02846 <_eval+0xee>
  c027b8:	80 7d f4 00          	cmpb   $0x0,-0xc(%ebp)
  c027bc:	74 13                	je     c027d1 <_eval+0x79>
  c027be:	83 ec 0c             	sub    $0xc,%esp
  c027c1:	ff 75 08             	pushl  0x8(%ebp)
  c027c4:	e8 4e fb ff ff       	call   c02317 <_list>
  c027c9:	83 c4 10             	add    $0x10,%esp
  c027cc:	89 45 08             	mov    %eax,0x8(%ebp)
  c027cf:	eb 75                	jmp    c02846 <_eval+0xee>
  c027d1:	0f b6 55 f4          	movzbl -0xc(%ebp),%edx
  c027d5:	8b 45 08             	mov    0x8(%ebp),%eax
  c027d8:	8b 40 04             	mov    0x4(%eax),%eax
  c027db:	83 ec 08             	sub    $0x8,%esp
  c027de:	52                   	push   %edx
  c027df:	50                   	push   %eax
  c027e0:	e8 73 ff ff ff       	call   c02758 <_eval>
  c027e5:	83 c4 10             	add    $0x10,%esp
  c027e8:	8b 55 08             	mov    0x8(%ebp),%edx
  c027eb:	89 42 04             	mov    %eax,0x4(%edx)
  c027ee:	eb 56                	jmp    c02846 <_eval+0xee>
  c027f0:	8b 45 08             	mov    0x8(%ebp),%eax
  c027f3:	8b 40 04             	mov    0x4(%eax),%eax
  c027f6:	83 ec 08             	sub    $0x8,%esp
  c027f9:	6a 00                	push   $0x0
  c027fb:	50                   	push   %eax
  c027fc:	e8 57 ff ff ff       	call   c02758 <_eval>
  c02801:	83 c4 10             	add    $0x10,%esp
  c02804:	89 45 08             	mov    %eax,0x8(%ebp)
  c02807:	eb 3d                	jmp    c02846 <_eval+0xee>
  c02809:	0f b6 55 f4          	movzbl -0xc(%ebp),%edx
  c0280d:	8b 45 08             	mov    0x8(%ebp),%eax
  c02810:	8b 40 04             	mov    0x4(%eax),%eax
  c02813:	83 ec 08             	sub    $0x8,%esp
  c02816:	52                   	push   %edx
  c02817:	50                   	push   %eax
  c02818:	e8 3b ff ff ff       	call   c02758 <_eval>
  c0281d:	83 c4 10             	add    $0x10,%esp
  c02820:	8b 55 08             	mov    0x8(%ebp),%edx
  c02823:	89 42 04             	mov    %eax,0x4(%edx)
  c02826:	0f b6 55 f4          	movzbl -0xc(%ebp),%edx
  c0282a:	8b 45 08             	mov    0x8(%ebp),%eax
  c0282d:	8b 40 08             	mov    0x8(%eax),%eax
  c02830:	83 ec 08             	sub    $0x8,%esp
  c02833:	52                   	push   %edx
  c02834:	50                   	push   %eax
  c02835:	e8 1e ff ff ff       	call   c02758 <_eval>
  c0283a:	83 c4 10             	add    $0x10,%esp
  c0283d:	8b 55 08             	mov    0x8(%ebp),%edx
  c02840:	89 42 08             	mov    %eax,0x8(%edx)
  c02843:	eb 01                	jmp    c02846 <_eval+0xee>
  c02845:	90                   	nop
  c02846:	8b 45 08             	mov    0x8(%ebp),%eax
  c02849:	8b 5d fc             	mov    -0x4(%ebp),%ebx
  c0284c:	c9                   	leave  
  c0284d:	c3                   	ret    

00c0284e <eval>:
  c0284e:	55                   	push   %ebp
  c0284f:	89 e5                	mov    %esp,%ebp
  c02851:	83 ec 08             	sub    $0x8,%esp
  c02854:	83 ec 08             	sub    $0x8,%esp
  c02857:	6a 01                	push   $0x1
  c02859:	ff 75 08             	pushl  0x8(%ebp)
  c0285c:	e8 f7 fe ff ff       	call   c02758 <_eval>
  c02861:	83 c4 10             	add    $0x10,%esp
  c02864:	c9                   	leave  
  c02865:	c3                   	ret    

00c02866 <_display>:
  c02866:	55                   	push   %ebp
  c02867:	89 e5                	mov    %esp,%ebp
  c02869:	83 ec 08             	sub    $0x8,%esp
  c0286c:	83 7d 08 00          	cmpl   $0x0,0x8(%ebp)
  c02870:	0f 84 6b 01 00 00    	je     c029e1 <_display+0x17b>
  c02876:	8b 45 08             	mov    0x8(%ebp),%eax
  c02879:	8b 00                	mov    (%eax),%eax
  c0287b:	83 f8 09             	cmp    $0x9,%eax
  c0287e:	0f 87 44 01 00 00    	ja     c029c8 <_display+0x162>
  c02884:	8b 04 85 00 4f c0 00 	mov    0xc04f00(,%eax,4),%eax
  c0288b:	ff e0                	jmp    *%eax
  c0288d:	83 ec 0c             	sub    $0xc,%esp
  c02890:	ff 75 08             	pushl  0x8(%ebp)
  c02893:	e8 8d f8 ff ff       	call   c02125 <_car>
  c02898:	83 c4 10             	add    $0x10,%esp
  c0289b:	83 ec 0c             	sub    $0xc,%esp
  c0289e:	50                   	push   %eax
  c0289f:	e8 c2 ff ff ff       	call   c02866 <_display>
  c028a4:	83 c4 10             	add    $0x10,%esp
  c028a7:	83 ec 0c             	sub    $0xc,%esp
  c028aa:	68 83 4e c0 00       	push   $0xc04e83
  c028af:	e8 bc 11 00 00       	call   c03a70 <printf>
  c028b4:	83 c4 10             	add    $0x10,%esp
  c028b7:	83 ec 0c             	sub    $0xc,%esp
  c028ba:	ff 75 08             	pushl  0x8(%ebp)
  c028bd:	e8 d4 f8 ff ff       	call   c02196 <_cdr>
  c028c2:	83 c4 10             	add    $0x10,%esp
  c028c5:	83 ec 0c             	sub    $0xc,%esp
  c028c8:	50                   	push   %eax
  c028c9:	e8 98 ff ff ff       	call   c02866 <_display>
  c028ce:	83 c4 10             	add    $0x10,%esp
  c028d1:	e9 09 01 00 00       	jmp    c029df <_display+0x179>
  c028d6:	83 ec 0c             	sub    $0xc,%esp
  c028d9:	68 bc 4e c0 00       	push   $0xc04ebc
  c028de:	e8 8d 11 00 00       	call   c03a70 <printf>
  c028e3:	83 c4 10             	add    $0x10,%esp
  c028e6:	8b 45 08             	mov    0x8(%ebp),%eax
  c028e9:	8b 40 04             	mov    0x4(%eax),%eax
  c028ec:	83 ec 0c             	sub    $0xc,%esp
  c028ef:	50                   	push   %eax
  c028f0:	e8 71 ff ff ff       	call   c02866 <_display>
  c028f5:	83 c4 10             	add    $0x10,%esp
  c028f8:	83 ec 0c             	sub    $0xc,%esp
  c028fb:	68 be 4e c0 00       	push   $0xc04ebe
  c02900:	e8 6b 11 00 00       	call   c03a70 <printf>
  c02905:	83 c4 10             	add    $0x10,%esp
  c02908:	e9 d2 00 00 00       	jmp    c029df <_display+0x179>
  c0290d:	8b 45 08             	mov    0x8(%ebp),%eax
  c02910:	8b 40 04             	mov    0x4(%eax),%eax
  c02913:	8b 00                	mov    (%eax),%eax
  c02915:	83 ec 08             	sub    $0x8,%esp
  c02918:	50                   	push   %eax
  c02919:	68 c0 4e c0 00       	push   $0xc04ec0
  c0291e:	e8 4d 11 00 00       	call   c03a70 <printf>
  c02923:	83 c4 10             	add    $0x10,%esp
  c02926:	e9 b4 00 00 00       	jmp    c029df <_display+0x179>
  c0292b:	8b 45 08             	mov    0x8(%ebp),%eax
  c0292e:	8b 40 04             	mov    0x4(%eax),%eax
  c02931:	83 ec 08             	sub    $0x8,%esp
  c02934:	50                   	push   %eax
  c02935:	68 c3 4e c0 00       	push   $0xc04ec3
  c0293a:	e8 31 11 00 00       	call   c03a70 <printf>
  c0293f:	83 c4 10             	add    $0x10,%esp
  c02942:	e9 98 00 00 00       	jmp    c029df <_display+0x179>
  c02947:	8b 45 08             	mov    0x8(%ebp),%eax
  c0294a:	8b 40 04             	mov    0x4(%eax),%eax
  c0294d:	83 ec 08             	sub    $0x8,%esp
  c02950:	50                   	push   %eax
  c02951:	68 c8 4e c0 00       	push   $0xc04ec8
  c02956:	e8 15 11 00 00       	call   c03a70 <printf>
  c0295b:	83 c4 10             	add    $0x10,%esp
  c0295e:	eb 7f                	jmp    c029df <_display+0x179>
  c02960:	83 ec 0c             	sub    $0xc,%esp
  c02963:	68 cb 4e c0 00       	push   $0xc04ecb
  c02968:	e8 03 11 00 00       	call   c03a70 <printf>
  c0296d:	83 c4 10             	add    $0x10,%esp
  c02970:	eb 6d                	jmp    c029df <_display+0x179>
  c02972:	83 ec 0c             	sub    $0xc,%esp
  c02975:	68 cf 4e c0 00       	push   $0xc04ecf
  c0297a:	e8 f1 10 00 00       	call   c03a70 <printf>
  c0297f:	83 c4 10             	add    $0x10,%esp
  c02982:	8b 45 08             	mov    0x8(%ebp),%eax
  c02985:	8b 40 04             	mov    0x4(%eax),%eax
  c02988:	83 ec 0c             	sub    $0xc,%esp
  c0298b:	50                   	push   %eax
  c0298c:	e8 d5 fe ff ff       	call   c02866 <_display>
  c02991:	83 c4 10             	add    $0x10,%esp
  c02994:	eb 49                	jmp    c029df <_display+0x179>
  c02996:	8b 45 08             	mov    0x8(%ebp),%eax
  c02999:	8b 40 04             	mov    0x4(%eax),%eax
  c0299c:	83 ec 08             	sub    $0x8,%esp
  c0299f:	50                   	push   %eax
  c029a0:	68 d1 4e c0 00       	push   $0xc04ed1
  c029a5:	e8 c6 10 00 00       	call   c03a70 <printf>
  c029aa:	83 c4 10             	add    $0x10,%esp
  c029ad:	eb 30                	jmp    c029df <_display+0x179>
  c029af:	8b 45 08             	mov    0x8(%ebp),%eax
  c029b2:	8b 40 04             	mov    0x4(%eax),%eax
  c029b5:	83 ec 08             	sub    $0x8,%esp
  c029b8:	50                   	push   %eax
  c029b9:	68 e0 4e c0 00       	push   $0xc04ee0
  c029be:	e8 ad 10 00 00       	call   c03a70 <printf>
  c029c3:	83 c4 10             	add    $0x10,%esp
  c029c6:	eb 17                	jmp    c029df <_display+0x179>
  c029c8:	8b 45 08             	mov    0x8(%ebp),%eax
  c029cb:	8b 00                	mov    (%eax),%eax
  c029cd:	83 ec 08             	sub    $0x8,%esp
  c029d0:	50                   	push   %eax
  c029d1:	68 ed 4e c0 00       	push   $0xc04eed
  c029d6:	e8 95 10 00 00       	call   c03a70 <printf>
  c029db:	83 c4 10             	add    $0x10,%esp
  c029de:	90                   	nop
  c029df:	eb 10                	jmp    c029f1 <_display+0x18b>
  c029e1:	83 ec 0c             	sub    $0xc,%esp
  c029e4:	68 cb 4e c0 00       	push   $0xc04ecb
  c029e9:	e8 82 10 00 00       	call   c03a70 <printf>
  c029ee:	83 c4 10             	add    $0x10,%esp
  c029f1:	c9                   	leave  
  c029f2:	c3                   	ret    

00c029f3 <display>:
  c029f3:	55                   	push   %ebp
  c029f4:	89 e5                	mov    %esp,%ebp
  c029f6:	83 ec 08             	sub    $0x8,%esp
  c029f9:	83 ec 0c             	sub    $0xc,%esp
  c029fc:	ff 75 08             	pushl  0x8(%ebp)
  c029ff:	e8 62 fe ff ff       	call   c02866 <_display>
  c02a04:	83 c4 10             	add    $0x10,%esp
  c02a07:	c9                   	leave  
  c02a08:	c3                   	ret    
  c02a09:	66 90                	xchg   %ax,%ax
  c02a0b:	90                   	nop

00c02a0c <memcpy>:
  c02a0c:	55                   	push   %ebp
  c02a0d:	89 e5                	mov    %esp,%ebp
  c02a0f:	57                   	push   %edi
  c02a10:	56                   	push   %esi
  c02a11:	53                   	push   %ebx
  c02a12:	8b 45 10             	mov    0x10(%ebp),%eax
  c02a15:	8b 55 0c             	mov    0xc(%ebp),%edx
  c02a18:	8b 5d 08             	mov    0x8(%ebp),%ebx
  c02a1b:	89 c1                	mov    %eax,%ecx
  c02a1d:	89 d6                	mov    %edx,%esi
  c02a1f:	89 df                	mov    %ebx,%edi
  c02a21:	fc                   	cld    
  c02a22:	f3 a4                	rep movsb %ds:(%esi),%es:(%edi)
  c02a24:	8b 45 08             	mov    0x8(%ebp),%eax
  c02a27:	5b                   	pop    %ebx
  c02a28:	5e                   	pop    %esi
  c02a29:	5f                   	pop    %edi
  c02a2a:	5d                   	pop    %ebp
  c02a2b:	c3                   	ret    

00c02a2c <realloc>:
  c02a2c:	55                   	push   %ebp
  c02a2d:	89 e5                	mov    %esp,%ebp
  c02a2f:	83 ec 18             	sub    $0x18,%esp
  c02a32:	83 ec 0c             	sub    $0xc,%esp
  c02a35:	ff 75 0c             	pushl  0xc(%ebp)
  c02a38:	e8 1a 10 00 00       	call   c03a57 <malloc>
  c02a3d:	83 c4 10             	add    $0x10,%esp
  c02a40:	89 45 f4             	mov    %eax,-0xc(%ebp)
  c02a43:	83 7d f4 00          	cmpl   $0x0,-0xc(%ebp)
  c02a47:	74 15                	je     c02a5e <realloc+0x32>
  c02a49:	8b 45 0c             	mov    0xc(%ebp),%eax
  c02a4c:	83 ec 04             	sub    $0x4,%esp
  c02a4f:	50                   	push   %eax
  c02a50:	ff 75 08             	pushl  0x8(%ebp)
  c02a53:	ff 75 f4             	pushl  -0xc(%ebp)
  c02a56:	e8 b1 ff ff ff       	call   c02a0c <memcpy>
  c02a5b:	83 c4 10             	add    $0x10,%esp
  c02a5e:	83 ec 0c             	sub    $0xc,%esp
  c02a61:	ff 75 08             	pushl  0x8(%ebp)
  c02a64:	e8 41 0e 00 00       	call   c038aa <free>
  c02a69:	83 c4 10             	add    $0x10,%esp
  c02a6c:	8b 45 f4             	mov    -0xc(%ebp),%eax
  c02a6f:	c9                   	leave  
  c02a70:	c3                   	ret    

00c02a71 <parse>:
  c02a71:	55                   	push   %ebp
  c02a72:	89 e5                	mov    %esp,%ebp
  c02a74:	83 ec 10             	sub    $0x10,%esp
  c02a77:	8b 45 08             	mov    0x8(%ebp),%eax
  c02a7a:	89 45 fc             	mov    %eax,-0x4(%ebp)
  c02a7d:	c7 45 f8 00 00 00 00 	movl   $0x0,-0x8(%ebp)
  c02a84:	8b 45 0c             	mov    0xc(%ebp),%eax
  c02a87:	8b 55 08             	mov    0x8(%ebp),%edx
  c02a8a:	89 10                	mov    %edx,(%eax)
  c02a8c:	eb 56                	jmp    c02ae4 <parse+0x73>
  c02a8e:	8b 45 fc             	mov    -0x4(%ebp),%eax
  c02a91:	0f b6 00             	movzbl (%eax),%eax
  c02a94:	0f be c0             	movsbl %al,%eax
  c02a97:	83 f8 20             	cmp    $0x20,%eax
  c02a9a:	75 44                	jne    c02ae0 <parse+0x6f>
  c02a9c:	8b 45 fc             	mov    -0x4(%ebp),%eax
  c02a9f:	c6 00 00             	movb   $0x0,(%eax)
  c02aa2:	83 45 fc 01          	addl   $0x1,-0x4(%ebp)
  c02aa6:	8b 45 fc             	mov    -0x4(%ebp),%eax
  c02aa9:	0f b6 00             	movzbl (%eax),%eax
  c02aac:	84 c0                	test   %al,%al
  c02aae:	74 0a                	je     c02aba <parse+0x49>
  c02ab0:	8b 45 fc             	mov    -0x4(%ebp),%eax
  c02ab3:	0f b6 00             	movzbl (%eax),%eax
  c02ab6:	3c 20                	cmp    $0x20,%al
  c02ab8:	74 e8                	je     c02aa2 <parse+0x31>
  c02aba:	83 45 f8 01          	addl   $0x1,-0x8(%ebp)
  c02abe:	8b 45 f8             	mov    -0x8(%ebp),%eax
  c02ac1:	3b 45 10             	cmp    0x10(%ebp),%eax
  c02ac4:	7c 05                	jl     c02acb <parse+0x5a>
  c02ac6:	8b 45 f8             	mov    -0x8(%ebp),%eax
  c02ac9:	eb 32                	jmp    c02afd <parse+0x8c>
  c02acb:	8b 45 f8             	mov    -0x8(%ebp),%eax
  c02ace:	8d 14 85 00 00 00 00 	lea    0x0(,%eax,4),%edx
  c02ad5:	8b 45 0c             	mov    0xc(%ebp),%eax
  c02ad8:	01 c2                	add    %eax,%edx
  c02ada:	8b 45 fc             	mov    -0x4(%ebp),%eax
  c02add:	89 02                	mov    %eax,(%edx)
  c02adf:	90                   	nop
  c02ae0:	83 45 fc 01          	addl   $0x1,-0x4(%ebp)
  c02ae4:	8b 45 fc             	mov    -0x4(%ebp),%eax
  c02ae7:	0f b6 00             	movzbl (%eax),%eax
  c02aea:	84 c0                	test   %al,%al
  c02aec:	75 a0                	jne    c02a8e <parse+0x1d>
  c02aee:	8b 45 fc             	mov    -0x4(%ebp),%eax
  c02af1:	3b 45 08             	cmp    0x8(%ebp),%eax
  c02af4:	74 04                	je     c02afa <parse+0x89>
  c02af6:	83 45 f8 01          	addl   $0x1,-0x8(%ebp)
  c02afa:	8b 45 f8             	mov    -0x8(%ebp),%eax
  c02afd:	c9                   	leave  
  c02afe:	c3                   	ret    

00c02aff <system>:
  c02aff:	55                   	push   %ebp
  c02b00:	89 e5                	mov    %esp,%ebp
  c02b02:	83 ec 38             	sub    $0x38,%esp
  c02b05:	c7 45 f4 00 00 00 00 	movl   $0x0,-0xc(%ebp)
  c02b0c:	6a 0a                	push   $0xa
  c02b0e:	8d 45 c8             	lea    -0x38(%ebp),%eax
  c02b11:	50                   	push   %eax
  c02b12:	ff 75 08             	pushl  0x8(%ebp)
  c02b15:	e8 57 ff ff ff       	call   c02a71 <parse>
  c02b1a:	83 c4 0c             	add    $0xc,%esp
  c02b1d:	89 45 f4             	mov    %eax,-0xc(%ebp)
  c02b20:	e8 04 03 00 00       	call   c02e29 <fork>
  c02b25:	89 45 f0             	mov    %eax,-0x10(%ebp)
  c02b28:	83 7d f0 00          	cmpl   $0x0,-0x10(%ebp)
  c02b2c:	75 2f                	jne    c02b5d <system+0x5e>
  c02b2e:	8b 45 c8             	mov    -0x38(%ebp),%eax
  c02b31:	83 ec 04             	sub    $0x4,%esp
  c02b34:	ff 75 f4             	pushl  -0xc(%ebp)
  c02b37:	50                   	push   %eax
  c02b38:	68 28 4f c0 00       	push   $0xc04f28
  c02b3d:	e8 2e 0f 00 00       	call   c03a70 <printf>
  c02b42:	83 c4 10             	add    $0x10,%esp
  c02b45:	8b 45 c8             	mov    -0x38(%ebp),%eax
  c02b48:	83 ec 04             	sub    $0x4,%esp
  c02b4b:	8d 55 c8             	lea    -0x38(%ebp),%edx
  c02b4e:	52                   	push   %edx
  c02b4f:	ff 75 f4             	pushl  -0xc(%ebp)
  c02b52:	50                   	push   %eax
  c02b53:	e8 98 03 00 00       	call   c02ef0 <exec>
  c02b58:	83 c4 10             	add    $0x10,%esp
  c02b5b:	eb 1d                	jmp    c02b7a <system+0x7b>
  c02b5d:	83 7d f0 00          	cmpl   $0x0,-0x10(%ebp)
  c02b61:	79 17                	jns    c02b7a <system+0x7b>
  c02b63:	83 ec 0c             	sub    $0xc,%esp
  c02b66:	68 31 4f c0 00       	push   $0xc04f31
  c02b6b:	e8 00 0f 00 00       	call   c03a70 <printf>
  c02b70:	83 c4 10             	add    $0x10,%esp
  c02b73:	b8 ff ff ff ff       	mov    $0xffffffff,%eax
  c02b78:	eb 05                	jmp    c02b7f <system+0x80>
  c02b7a:	b8 00 00 00 00       	mov    $0x0,%eax
  c02b7f:	c9                   	leave  
  c02b80:	c3                   	ret    

00c02b81 <atoi>:
  c02b81:	55                   	push   %ebp
  c02b82:	89 e5                	mov    %esp,%ebp
  c02b84:	83 ec 10             	sub    $0x10,%esp
  c02b87:	c7 45 fc 00 00 00 00 	movl   $0x0,-0x4(%ebp)
  c02b8e:	eb 37                	jmp    c02bc7 <atoi+0x46>
  c02b90:	8b 45 08             	mov    0x8(%ebp),%eax
  c02b93:	0f b6 00             	movzbl (%eax),%eax
  c02b96:	3c 2f                	cmp    $0x2f,%al
  c02b98:	7e 37                	jle    c02bd1 <atoi+0x50>
  c02b9a:	8b 45 08             	mov    0x8(%ebp),%eax
  c02b9d:	0f b6 00             	movzbl (%eax),%eax
  c02ba0:	3c 39                	cmp    $0x39,%al
  c02ba2:	7f 2d                	jg     c02bd1 <atoi+0x50>
  c02ba4:	8b 55 fc             	mov    -0x4(%ebp),%edx
  c02ba7:	89 d0                	mov    %edx,%eax
  c02ba9:	c1 e0 02             	shl    $0x2,%eax
  c02bac:	01 d0                	add    %edx,%eax
  c02bae:	01 c0                	add    %eax,%eax
  c02bb0:	89 c2                	mov    %eax,%edx
  c02bb2:	8b 45 08             	mov    0x8(%ebp),%eax
  c02bb5:	0f b6 00             	movzbl (%eax),%eax
  c02bb8:	0f be c0             	movsbl %al,%eax
  c02bbb:	01 d0                	add    %edx,%eax
  c02bbd:	83 e8 30             	sub    $0x30,%eax
  c02bc0:	89 45 fc             	mov    %eax,-0x4(%ebp)
  c02bc3:	83 45 08 01          	addl   $0x1,0x8(%ebp)
  c02bc7:	8b 45 08             	mov    0x8(%ebp),%eax
  c02bca:	0f b6 00             	movzbl (%eax),%eax
  c02bcd:	84 c0                	test   %al,%al
  c02bcf:	75 bf                	jne    c02b90 <atoi+0xf>
  c02bd1:	8b 45 fc             	mov    -0x4(%ebp),%eax
  c02bd4:	c9                   	leave  
  c02bd5:	c3                   	ret    
  c02bd6:	66 90                	xchg   %ax,%ax

00c02bd8 <strcmp>:
  c02bd8:	55                   	push   %ebp
  c02bd9:	89 e5                	mov    %esp,%ebp
  c02bdb:	57                   	push   %edi
  c02bdc:	56                   	push   %esi
  c02bdd:	8b 45 08             	mov    0x8(%ebp),%eax
  c02be0:	8b 55 0c             	mov    0xc(%ebp),%edx
  c02be3:	89 c7                	mov    %eax,%edi
  c02be5:	89 d6                	mov    %edx,%esi
  c02be7:	fc                   	cld    
  c02be8:	ac                   	lods   %ds:(%esi),%al
  c02be9:	ae                   	scas   %es:(%edi),%al
  c02bea:	75 08                	jne    c02bf4 <strcmp+0x1c>
  c02bec:	84 c0                	test   %al,%al
  c02bee:	75 f8                	jne    c02be8 <strcmp+0x10>
  c02bf0:	31 c0                	xor    %eax,%eax
  c02bf2:	eb 09                	jmp    c02bfd <strcmp+0x25>
  c02bf4:	b8 01 00 00 00       	mov    $0x1,%eax
  c02bf9:	7c 02                	jl     c02bfd <strcmp+0x25>
  c02bfb:	f7 d8                	neg    %eax
  c02bfd:	5e                   	pop    %esi
  c02bfe:	5f                   	pop    %edi
  c02bff:	5d                   	pop    %ebp
  c02c00:	c3                   	ret    

00c02c01 <strlen>:
  c02c01:	55                   	push   %ebp
  c02c02:	89 e5                	mov    %esp,%ebp
  c02c04:	57                   	push   %edi
  c02c05:	8b 55 08             	mov    0x8(%ebp),%edx
  c02c08:	b8 00 00 00 00       	mov    $0x0,%eax
  c02c0d:	b9 ff ff ff ff       	mov    $0xffffffff,%ecx
  c02c12:	89 d7                	mov    %edx,%edi
  c02c14:	fc                   	cld    
  c02c15:	f2 ae                	repnz scas %es:(%edi),%al
  c02c17:	f7 d1                	not    %ecx
  c02c19:	49                   	dec    %ecx
  c02c1a:	89 c8                	mov    %ecx,%eax
  c02c1c:	5f                   	pop    %edi
  c02c1d:	5d                   	pop    %ebp
  c02c1e:	c3                   	ret    

00c02c1f <memcpy>:
  c02c1f:	55                   	push   %ebp
  c02c20:	89 e5                	mov    %esp,%ebp
  c02c22:	57                   	push   %edi
  c02c23:	56                   	push   %esi
  c02c24:	53                   	push   %ebx
  c02c25:	8b 45 10             	mov    0x10(%ebp),%eax
  c02c28:	8b 55 0c             	mov    0xc(%ebp),%edx
  c02c2b:	8b 5d 08             	mov    0x8(%ebp),%ebx
  c02c2e:	89 c1                	mov    %eax,%ecx
  c02c30:	89 d6                	mov    %edx,%esi
  c02c32:	89 df                	mov    %ebx,%edi
  c02c34:	fc                   	cld    
  c02c35:	f3 a4                	rep movsb %ds:(%esi),%es:(%edi)
  c02c37:	8b 45 08             	mov    0x8(%ebp),%eax
  c02c3a:	5b                   	pop    %ebx
  c02c3b:	5e                   	pop    %esi
  c02c3c:	5f                   	pop    %edi
  c02c3d:	5d                   	pop    %ebp
  c02c3e:	c3                   	ret    

00c02c3f <strdup>:
  c02c3f:	55                   	push   %ebp
  c02c40:	89 e5                	mov    %esp,%ebp
  c02c42:	83 ec 18             	sub    $0x18,%esp
  c02c45:	ff 75 08             	pushl  0x8(%ebp)
  c02c48:	e8 b4 ff ff ff       	call   c02c01 <strlen>
  c02c4d:	83 c4 04             	add    $0x4,%esp
  c02c50:	83 c0 01             	add    $0x1,%eax
  c02c53:	89 45 f4             	mov    %eax,-0xc(%ebp)
  c02c56:	83 ec 0c             	sub    $0xc,%esp
  c02c59:	ff 75 f4             	pushl  -0xc(%ebp)
  c02c5c:	e8 f6 0d 00 00       	call   c03a57 <malloc>
  c02c61:	83 c4 10             	add    $0x10,%esp
  c02c64:	89 45 f0             	mov    %eax,-0x10(%ebp)
  c02c67:	83 7d f0 00          	cmpl   $0x0,-0x10(%ebp)
  c02c6b:	75 07                	jne    c02c74 <strdup+0x35>
  c02c6d:	b8 00 00 00 00       	mov    $0x0,%eax
  c02c72:	eb 15                	jmp    c02c89 <strdup+0x4a>
  c02c74:	8b 45 f4             	mov    -0xc(%ebp),%eax
  c02c77:	83 ec 04             	sub    $0x4,%esp
  c02c7a:	50                   	push   %eax
  c02c7b:	ff 75 08             	pushl  0x8(%ebp)
  c02c7e:	ff 75 f0             	pushl  -0x10(%ebp)
  c02c81:	e8 99 ff ff ff       	call   c02c1f <memcpy>
  c02c86:	83 c4 10             	add    $0x10,%esp
  c02c89:	c9                   	leave  
  c02c8a:	c3                   	ret    

00c02c8b <hashSymbol>:
  c02c8b:	55                   	push   %ebp
  c02c8c:	89 e5                	mov    %esp,%ebp
  c02c8e:	83 ec 10             	sub    $0x10,%esp
  c02c91:	c7 45 fc 00 00 00 00 	movl   $0x0,-0x4(%ebp)
  c02c98:	eb 10                	jmp    c02caa <hashSymbol+0x1f>
  c02c9a:	8b 55 fc             	mov    -0x4(%ebp),%edx
  c02c9d:	89 d0                	mov    %edx,%eax
  c02c9f:	c1 e0 03             	shl    $0x3,%eax
  c02ca2:	01 d0                	add    %edx,%eax
  c02ca4:	33 45 f8             	xor    -0x8(%ebp),%eax
  c02ca7:	89 45 fc             	mov    %eax,-0x4(%ebp)
  c02caa:	8b 45 08             	mov    0x8(%ebp),%eax
  c02cad:	8d 50 01             	lea    0x1(%eax),%edx
  c02cb0:	89 55 08             	mov    %edx,0x8(%ebp)
  c02cb3:	0f b6 00             	movzbl (%eax),%eax
  c02cb6:	0f be c0             	movsbl %al,%eax
  c02cb9:	89 45 f8             	mov    %eax,-0x8(%ebp)
  c02cbc:	83 7d f8 00          	cmpl   $0x0,-0x8(%ebp)
  c02cc0:	75 d8                	jne    c02c9a <hashSymbol+0xf>
  c02cc2:	8b 45 fc             	mov    -0x4(%ebp),%eax
  c02cc5:	c9                   	leave  
  c02cc6:	c3                   	ret    

00c02cc7 <lookup>:
  c02cc7:	55                   	push   %ebp
  c02cc8:	89 e5                	mov    %esp,%ebp
  c02cca:	83 ec 18             	sub    $0x18,%esp
  c02ccd:	ff 75 08             	pushl  0x8(%ebp)
  c02cd0:	e8 b6 ff ff ff       	call   c02c8b <hashSymbol>
  c02cd5:	83 c4 04             	add    $0x4,%esp
  c02cd8:	89 c1                	mov    %eax,%ecx
  c02cda:	ba c1 33 c7 d1       	mov    $0xd1c733c1,%edx
  c02cdf:	89 c8                	mov    %ecx,%eax
  c02ce1:	f7 e2                	mul    %edx
  c02ce3:	c1 ea 0d             	shr    $0xd,%edx
  c02ce6:	69 c2 0d 27 00 00    	imul   $0x270d,%edx,%eax
  c02cec:	29 c1                	sub    %eax,%ecx
  c02cee:	89 ca                	mov    %ecx,%edx
  c02cf0:	89 d0                	mov    %edx,%eax
  c02cf2:	01 c0                	add    %eax,%eax
  c02cf4:	01 d0                	add    %edx,%eax
  c02cf6:	c1 e0 02             	shl    $0x2,%eax
  c02cf9:	05 00 81 c0 00       	add    $0xc08100,%eax
  c02cfe:	89 45 f4             	mov    %eax,-0xc(%ebp)
  c02d01:	c7 45 f0 0d 27 00 00 	movl   $0x270d,-0x10(%ebp)
  c02d08:	eb 6c                	jmp    c02d76 <lookup+0xaf>
  c02d0a:	8b 45 f4             	mov    -0xc(%ebp),%eax
  c02d0d:	8b 00                	mov    (%eax),%eax
  c02d0f:	85 c0                	test   %eax,%eax
  c02d11:	74 1a                	je     c02d2d <lookup+0x66>
  c02d13:	8b 45 f4             	mov    -0xc(%ebp),%eax
  c02d16:	8b 00                	mov    (%eax),%eax
  c02d18:	ff 75 08             	pushl  0x8(%ebp)
  c02d1b:	50                   	push   %eax
  c02d1c:	e8 b7 fe ff ff       	call   c02bd8 <strcmp>
  c02d21:	83 c4 08             	add    $0x8,%esp
  c02d24:	85 c0                	test   %eax,%eax
  c02d26:	75 05                	jne    c02d2d <lookup+0x66>
  c02d28:	8b 45 f4             	mov    -0xc(%ebp),%eax
  c02d2b:	eb 6d                	jmp    c02d9a <lookup+0xd3>
  c02d2d:	8b 45 f4             	mov    -0xc(%ebp),%eax
  c02d30:	8b 00                	mov    (%eax),%eax
  c02d32:	85 c0                	test   %eax,%eax
  c02d34:	75 2c                	jne    c02d62 <lookup+0x9b>
  c02d36:	83 ec 0c             	sub    $0xc,%esp
  c02d39:	ff 75 08             	pushl  0x8(%ebp)
  c02d3c:	e8 fe fe ff ff       	call   c02c3f <strdup>
  c02d41:	83 c4 10             	add    $0x10,%esp
  c02d44:	8b 55 f4             	mov    -0xc(%ebp),%edx
  c02d47:	89 02                	mov    %eax,(%edx)
  c02d49:	8b 45 f4             	mov    -0xc(%ebp),%eax
  c02d4c:	c7 40 04 00 00 00 00 	movl   $0x0,0x4(%eax)
  c02d53:	8b 45 f4             	mov    -0xc(%ebp),%eax
  c02d56:	c7 40 08 00 00 00 00 	movl   $0x0,0x8(%eax)
  c02d5d:	8b 45 f4             	mov    -0xc(%ebp),%eax
  c02d60:	eb 38                	jmp    c02d9a <lookup+0xd3>
  c02d62:	83 45 f4 0c          	addl   $0xc,-0xc(%ebp)
  c02d66:	81 7d f4 9c 55 c2 00 	cmpl   $0xc2559c,-0xc(%ebp)
  c02d6d:	72 07                	jb     c02d76 <lookup+0xaf>
  c02d6f:	c7 45 f4 00 81 c0 00 	movl   $0xc08100,-0xc(%ebp)
  c02d76:	83 6d f0 01          	subl   $0x1,-0x10(%ebp)
  c02d7a:	83 7d f0 00          	cmpl   $0x0,-0x10(%ebp)
  c02d7e:	79 8a                	jns    c02d0a <lookup+0x43>
  c02d80:	83 ec 0c             	sub    $0xc,%esp
  c02d83:	68 38 4f c0 00       	push   $0xc04f38
  c02d88:	e8 74 da ff ff       	call   c00801 <yyerror>
  c02d8d:	83 c4 10             	add    $0x10,%esp
  c02d90:	83 ec 0c             	sub    $0xc,%esp
  c02d93:	6a 01                	push   $0x1
  c02d95:	e8 a7 05 00 00       	call   c03341 <exit>
  c02d9a:	c9                   	leave  
  c02d9b:	c3                   	ret    

00c02d9c <newSymbolList>:
  c02d9c:	55                   	push   %ebp
  c02d9d:	89 e5                	mov    %esp,%ebp
  c02d9f:	83 ec 18             	sub    $0x18,%esp
  c02da2:	83 ec 0c             	sub    $0xc,%esp
  c02da5:	6a 08                	push   $0x8
  c02da7:	e8 ab 0c 00 00       	call   c03a57 <malloc>
  c02dac:	83 c4 10             	add    $0x10,%esp
  c02daf:	89 45 f4             	mov    %eax,-0xc(%ebp)
  c02db2:	83 7d f4 00          	cmpl   $0x0,-0xc(%ebp)
  c02db6:	74 11                	je     c02dc9 <newSymbolList+0x2d>
  c02db8:	8b 45 f4             	mov    -0xc(%ebp),%eax
  c02dbb:	8b 55 08             	mov    0x8(%ebp),%edx
  c02dbe:	89 10                	mov    %edx,(%eax)
  c02dc0:	8b 45 f4             	mov    -0xc(%ebp),%eax
  c02dc3:	8b 55 0c             	mov    0xc(%ebp),%edx
  c02dc6:	89 50 04             	mov    %edx,0x4(%eax)
  c02dc9:	8b 45 f4             	mov    -0xc(%ebp),%eax
  c02dcc:	c9                   	leave  
  c02dcd:	c3                   	ret    

00c02dce <delSymbolList>:
  c02dce:	55                   	push   %ebp
  c02dcf:	89 e5                	mov    %esp,%ebp
  c02dd1:	83 ec 18             	sub    $0x18,%esp
  c02dd4:	eb 1d                	jmp    c02df3 <delSymbolList+0x25>
  c02dd6:	8b 45 08             	mov    0x8(%ebp),%eax
  c02dd9:	8b 40 04             	mov    0x4(%eax),%eax
  c02ddc:	89 45 f4             	mov    %eax,-0xc(%ebp)
  c02ddf:	83 ec 0c             	sub    $0xc,%esp
  c02de2:	ff 75 08             	pushl  0x8(%ebp)
  c02de5:	e8 c0 0a 00 00       	call   c038aa <free>
  c02dea:	83 c4 10             	add    $0x10,%esp
  c02ded:	8b 45 f4             	mov    -0xc(%ebp),%eax
  c02df0:	89 45 08             	mov    %eax,0x8(%ebp)
  c02df3:	83 7d 08 00          	cmpl   $0x0,0x8(%ebp)
  c02df7:	75 dd                	jne    c02dd6 <delSymbolList+0x8>
  c02df9:	c9                   	leave  
  c02dfa:	c3                   	ret    
  c02dfb:	90                   	nop

00c02dfc <_run>:
  c02dfc:	55                   	push   %ebp
  c02dfd:	89 e5                	mov    %esp,%ebp
  c02dff:	57                   	push   %edi
  c02e00:	56                   	push   %esi
  c02e01:	53                   	push   %ebx
  c02e02:	83 ec 10             	sub    $0x10,%esp
  c02e05:	8b 55 10             	mov    0x10(%ebp),%edx
  c02e08:	8b 75 18             	mov    0x18(%ebp),%esi
  c02e0b:	8b 7d 14             	mov    0x14(%ebp),%edi
  c02e0e:	b8 00 00 00 00       	mov    $0x0,%eax
  c02e13:	8b 5d 08             	mov    0x8(%ebp),%ebx
  c02e16:	8b 4d 0c             	mov    0xc(%ebp),%ecx
  c02e19:	cd 80                	int    $0x80
  c02e1b:	89 45 f0             	mov    %eax,-0x10(%ebp)
  c02e1e:	8b 45 f0             	mov    -0x10(%ebp),%eax
  c02e21:	83 c4 10             	add    $0x10,%esp
  c02e24:	5b                   	pop    %ebx
  c02e25:	5e                   	pop    %esi
  c02e26:	5f                   	pop    %edi
  c02e27:	5d                   	pop    %ebp
  c02e28:	c3                   	ret    

00c02e29 <fork>:
  c02e29:	55                   	push   %ebp
  c02e2a:	89 e5                	mov    %esp,%ebp
  c02e2c:	83 ec 10             	sub    $0x10,%esp
  c02e2f:	c7 45 f4 00 00 00 00 	movl   $0x0,-0xc(%ebp)
  c02e36:	c7 45 f8 00 00 00 00 	movl   $0x0,-0x8(%ebp)
  c02e3d:	c7 45 fc 00 00 00 00 	movl   $0x0,-0x4(%ebp)
  c02e44:	ff 75 fc             	pushl  -0x4(%ebp)
  c02e47:	ff 75 f8             	pushl  -0x8(%ebp)
  c02e4a:	ff 75 f4             	pushl  -0xc(%ebp)
  c02e4d:	6a 04                	push   $0x4
  c02e4f:	6a 03                	push   $0x3
  c02e51:	e8 a6 ff ff ff       	call   c02dfc <_run>
  c02e56:	83 c4 14             	add    $0x14,%esp
  c02e59:	c9                   	leave  
  c02e5a:	c3                   	ret    
  c02e5b:	90                   	nop

00c02e5c <_run>:
  c02e5c:	55                   	push   %ebp
  c02e5d:	89 e5                	mov    %esp,%ebp
  c02e5f:	57                   	push   %edi
  c02e60:	56                   	push   %esi
  c02e61:	53                   	push   %ebx
  c02e62:	83 ec 10             	sub    $0x10,%esp
  c02e65:	8b 55 10             	mov    0x10(%ebp),%edx
  c02e68:	8b 75 18             	mov    0x18(%ebp),%esi
  c02e6b:	8b 7d 14             	mov    0x14(%ebp),%edi
  c02e6e:	b8 00 00 00 00       	mov    $0x0,%eax
  c02e73:	8b 5d 08             	mov    0x8(%ebp),%ebx
  c02e76:	8b 4d 0c             	mov    0xc(%ebp),%ecx
  c02e79:	cd 80                	int    $0x80
  c02e7b:	89 45 f0             	mov    %eax,-0x10(%ebp)
  c02e7e:	8b 45 f0             	mov    -0x10(%ebp),%eax
  c02e81:	83 c4 10             	add    $0x10,%esp
  c02e84:	5b                   	pop    %ebx
  c02e85:	5e                   	pop    %esi
  c02e86:	5f                   	pop    %edi
  c02e87:	5d                   	pop    %ebp
  c02e88:	c3                   	ret    

00c02e89 <strcpy>:
  c02e89:	55                   	push   %ebp
  c02e8a:	89 e5                	mov    %esp,%ebp
  c02e8c:	57                   	push   %edi
  c02e8d:	56                   	push   %esi
  c02e8e:	8b 55 0c             	mov    0xc(%ebp),%edx
  c02e91:	8b 4d 08             	mov    0x8(%ebp),%ecx
  c02e94:	89 d6                	mov    %edx,%esi
  c02e96:	89 cf                	mov    %ecx,%edi
  c02e98:	fc                   	cld    
  c02e99:	ac                   	lods   %ds:(%esi),%al
  c02e9a:	aa                   	stos   %al,%es:(%edi)
  c02e9b:	84 c0                	test   %al,%al
  c02e9d:	75 fa                	jne    c02e99 <strcpy+0x10>
  c02e9f:	8b 45 08             	mov    0x8(%ebp),%eax
  c02ea2:	5e                   	pop    %esi
  c02ea3:	5f                   	pop    %edi
  c02ea4:	5d                   	pop    %ebp
  c02ea5:	c3                   	ret    

00c02ea6 <strcat>:
  c02ea6:	55                   	push   %ebp
  c02ea7:	89 e5                	mov    %esp,%ebp
  c02ea9:	57                   	push   %edi
  c02eaa:	56                   	push   %esi
  c02eab:	53                   	push   %ebx
  c02eac:	8b 55 0c             	mov    0xc(%ebp),%edx
  c02eaf:	8b 5d 08             	mov    0x8(%ebp),%ebx
  c02eb2:	b8 00 00 00 00       	mov    $0x0,%eax
  c02eb7:	b9 ff ff ff ff       	mov    $0xffffffff,%ecx
  c02ebc:	89 d6                	mov    %edx,%esi
  c02ebe:	89 df                	mov    %ebx,%edi
  c02ec0:	fc                   	cld    
  c02ec1:	f2 ae                	repnz scas %es:(%edi),%al
  c02ec3:	4f                   	dec    %edi
  c02ec4:	ac                   	lods   %ds:(%esi),%al
  c02ec5:	aa                   	stos   %al,%es:(%edi)
  c02ec6:	84 c0                	test   %al,%al
  c02ec8:	75 fa                	jne    c02ec4 <strcat+0x1e>
  c02eca:	8b 45 08             	mov    0x8(%ebp),%eax
  c02ecd:	5b                   	pop    %ebx
  c02ece:	5e                   	pop    %esi
  c02ecf:	5f                   	pop    %edi
  c02ed0:	5d                   	pop    %ebp
  c02ed1:	c3                   	ret    

00c02ed2 <strlen>:
  c02ed2:	55                   	push   %ebp
  c02ed3:	89 e5                	mov    %esp,%ebp
  c02ed5:	57                   	push   %edi
  c02ed6:	8b 55 08             	mov    0x8(%ebp),%edx
  c02ed9:	b8 00 00 00 00       	mov    $0x0,%eax
  c02ede:	b9 ff ff ff ff       	mov    $0xffffffff,%ecx
  c02ee3:	89 d7                	mov    %edx,%edi
  c02ee5:	fc                   	cld    
  c02ee6:	f2 ae                	repnz scas %es:(%edi),%al
  c02ee8:	f7 d1                	not    %ecx
  c02eea:	49                   	dec    %ecx
  c02eeb:	89 c8                	mov    %ecx,%eax
  c02eed:	5f                   	pop    %edi
  c02eee:	5d                   	pop    %ebp
  c02eef:	c3                   	ret    

00c02ef0 <exec>:
  c02ef0:	55                   	push   %ebp
  c02ef1:	89 e5                	mov    %esp,%ebp
  c02ef3:	57                   	push   %edi
  c02ef4:	56                   	push   %esi
  c02ef5:	53                   	push   %ebx
  c02ef6:	81 ec bc 00 00 00    	sub    $0xbc,%esp
  c02efc:	c7 45 e4 ff ff ff ff 	movl   $0xffffffff,-0x1c(%ebp)
  c02f03:	c7 85 3b ff ff ff 2f 	movl   $0x6e69622f,-0xc5(%ebp)
  c02f0a:	62 69 6e 
  c02f0d:	c7 85 3f ff ff ff 2f 	movl   $0x2f,-0xc1(%ebp)
  c02f14:	00 00 00 
  c02f17:	8d 85 43 ff ff ff    	lea    -0xbd(%ebp),%eax
  c02f1d:	ba 75 00 00 00       	mov    $0x75,%edx
  c02f22:	be 00 00 00 00       	mov    $0x0,%esi
  c02f27:	89 30                	mov    %esi,(%eax)
  c02f29:	89 74 10 fc          	mov    %esi,-0x4(%eax,%edx,1)
  c02f2d:	8d 58 04             	lea    0x4(%eax),%ebx
  c02f30:	83 e3 fc             	and    $0xfffffffc,%ebx
  c02f33:	29 d8                	sub    %ebx,%eax
  c02f35:	01 c2                	add    %eax,%edx
  c02f37:	83 e2 fc             	and    $0xfffffffc,%edx
  c02f3a:	c1 ea 02             	shr    $0x2,%edx
  c02f3d:	89 df                	mov    %ebx,%edi
  c02f3f:	89 d1                	mov    %edx,%ecx
  c02f41:	89 f0                	mov    %esi,%eax
  c02f43:	f3 ab                	rep stos %eax,%es:(%edi)
  c02f45:	8b 45 08             	mov    0x8(%ebp),%eax
  c02f48:	0f b6 00             	movzbl (%eax),%eax
  c02f4b:	3c 2e                	cmp    $0x2e,%al
  c02f4d:	74 0a                	je     c02f59 <exec+0x69>
  c02f4f:	8b 45 08             	mov    0x8(%ebp),%eax
  c02f52:	0f b6 00             	movzbl (%eax),%eax
  c02f55:	3c 2f                	cmp    $0x2f,%al
  c02f57:	75 14                	jne    c02f6d <exec+0x7d>
  c02f59:	ff 75 08             	pushl  0x8(%ebp)
  c02f5c:	8d 85 3b ff ff ff    	lea    -0xc5(%ebp),%eax
  c02f62:	50                   	push   %eax
  c02f63:	e8 21 ff ff ff       	call   c02e89 <strcpy>
  c02f68:	83 c4 08             	add    $0x8,%esp
  c02f6b:	eb 12                	jmp    c02f7f <exec+0x8f>
  c02f6d:	ff 75 08             	pushl  0x8(%ebp)
  c02f70:	8d 85 3b ff ff ff    	lea    -0xc5(%ebp),%eax
  c02f76:	50                   	push   %eax
  c02f77:	e8 2a ff ff ff       	call   c02ea6 <strcat>
  c02f7c:	83 c4 08             	add    $0x8,%esp
  c02f7f:	83 ec 08             	sub    $0x8,%esp
  c02f82:	6a 00                	push   $0x0
  c02f84:	8d 85 3b ff ff ff    	lea    -0xc5(%ebp),%eax
  c02f8a:	50                   	push   %eax
  c02f8b:	e8 bf 01 00 00       	call   c0314f <open>
  c02f90:	83 c4 10             	add    $0x10,%esp
  c02f93:	89 45 d8             	mov    %eax,-0x28(%ebp)
  c02f96:	83 7d d8 ff          	cmpl   $0xffffffff,-0x28(%ebp)
  c02f9a:	75 05                	jne    c02fa1 <exec+0xb1>
  c02f9c:	e9 eb 00 00 00       	jmp    c0308c <exec+0x19c>
  c02fa1:	8b 45 d8             	mov    -0x28(%ebp),%eax
  c02fa4:	89 45 d4             	mov    %eax,-0x2c(%ebp)
  c02fa7:	b8 1f 00 00 00       	mov    $0x1f,%eax
  c02fac:	83 7d 0c 1f          	cmpl   $0x1f,0xc(%ebp)
  c02fb0:	0f 4e 45 0c          	cmovle 0xc(%ebp),%eax
  c02fb4:	89 45 d0             	mov    %eax,-0x30(%ebp)
  c02fb7:	b8 04 00 00 00       	mov    $0x4,%eax
  c02fbc:	bb 01 00 00 00       	mov    $0x1,%ebx
  c02fc1:	b9 00 00 00 00       	mov    $0x0,%ecx
  c02fc6:	ba 00 00 00 00       	mov    $0x0,%edx
  c02fcb:	be 00 00 00 00       	mov    $0x0,%esi
  c02fd0:	bf 00 00 00 00       	mov    $0x0,%edi
  c02fd5:	cd 80                	int    $0x80
  c02fd7:	89 45 cc             	mov    %eax,-0x34(%ebp)
  c02fda:	8b 45 cc             	mov    -0x34(%ebp),%eax
  c02fdd:	89 45 c8             	mov    %eax,-0x38(%ebp)
  c02fe0:	8b 45 c8             	mov    -0x38(%ebp),%eax
  c02fe3:	83 e8 80             	sub    $0xffffff80,%eax
  c02fe6:	89 45 e0             	mov    %eax,-0x20(%ebp)
  c02fe9:	c7 45 dc 00 00 00 00 	movl   $0x0,-0x24(%ebp)
  c02ff0:	eb 44                	jmp    c03036 <exec+0x146>
  c02ff2:	8b 45 c8             	mov    -0x38(%ebp),%eax
  c02ff5:	8b 55 dc             	mov    -0x24(%ebp),%edx
  c02ff8:	8b 4d e0             	mov    -0x20(%ebp),%ecx
  c02ffb:	89 0c 90             	mov    %ecx,(%eax,%edx,4)
  c02ffe:	8b 45 dc             	mov    -0x24(%ebp),%eax
  c03001:	8d 14 85 00 00 00 00 	lea    0x0(,%eax,4),%edx
  c03008:	8b 45 10             	mov    0x10(%ebp),%eax
  c0300b:	01 d0                	add    %edx,%eax
  c0300d:	8b 00                	mov    (%eax),%eax
  c0300f:	83 ec 08             	sub    $0x8,%esp
  c03012:	50                   	push   %eax
  c03013:	ff 75 e0             	pushl  -0x20(%ebp)
  c03016:	e8 6e fe ff ff       	call   c02e89 <strcpy>
  c0301b:	83 c4 10             	add    $0x10,%esp
  c0301e:	83 ec 0c             	sub    $0xc,%esp
  c03021:	ff 75 e0             	pushl  -0x20(%ebp)
  c03024:	e8 a9 fe ff ff       	call   c02ed2 <strlen>
  c03029:	83 c4 10             	add    $0x10,%esp
  c0302c:	83 c0 01             	add    $0x1,%eax
  c0302f:	01 45 e0             	add    %eax,-0x20(%ebp)
  c03032:	83 45 dc 01          	addl   $0x1,-0x24(%ebp)
  c03036:	8b 45 dc             	mov    -0x24(%ebp),%eax
  c03039:	3b 45 d0             	cmp    -0x30(%ebp),%eax
  c0303c:	72 b4                	jb     c02ff2 <exec+0x102>
  c0303e:	8b 45 d4             	mov    -0x2c(%ebp),%eax
  c03041:	89 45 b8             	mov    %eax,-0x48(%ebp)
  c03044:	8b 45 0c             	mov    0xc(%ebp),%eax
  c03047:	89 45 bc             	mov    %eax,-0x44(%ebp)
  c0304a:	8b 45 c8             	mov    -0x38(%ebp),%eax
  c0304d:	89 45 c0             	mov    %eax,-0x40(%ebp)
  c03050:	83 ec 0c             	sub    $0xc,%esp
  c03053:	ff 75 c0             	pushl  -0x40(%ebp)
  c03056:	ff 75 bc             	pushl  -0x44(%ebp)
  c03059:	ff 75 b8             	pushl  -0x48(%ebp)
  c0305c:	6a 0b                	push   $0xb
  c0305e:	6a 03                	push   $0x3
  c03060:	e8 f7 fd ff ff       	call   c02e5c <_run>
  c03065:	83 c4 20             	add    $0x20,%esp
  c03068:	89 45 e4             	mov    %eax,-0x1c(%ebp)
  c0306b:	b8 04 00 00 00       	mov    $0x4,%eax
  c03070:	bb 00 00 00 00       	mov    $0x0,%ebx
  c03075:	8b 4d c8             	mov    -0x38(%ebp),%ecx
  c03078:	ba 00 00 00 00       	mov    $0x0,%edx
  c0307d:	be 00 00 00 00       	mov    $0x0,%esi
  c03082:	bf 00 00 00 00       	mov    $0x0,%edi
  c03087:	cd 80                	int    $0x80
  c03089:	89 45 c4             	mov    %eax,-0x3c(%ebp)
  c0308c:	8b 45 e4             	mov    -0x1c(%ebp),%eax
  c0308f:	8d 65 f4             	lea    -0xc(%ebp),%esp
  c03092:	5b                   	pop    %ebx
  c03093:	5e                   	pop    %esi
  c03094:	5f                   	pop    %edi
  c03095:	5d                   	pop    %ebp
  c03096:	c3                   	ret    

00c03097 <execvp>:
  c03097:	55                   	push   %ebp
  c03098:	89 e5                	mov    %esp,%ebp
  c0309a:	83 ec 18             	sub    $0x18,%esp
  c0309d:	c7 45 f4 ff ff ff ff 	movl   $0xffffffff,-0xc(%ebp)
  c030a4:	c7 45 f0 00 00 00 00 	movl   $0x0,-0x10(%ebp)
  c030ab:	eb 32                	jmp    c030df <execvp+0x48>
  c030ad:	8b 45 f0             	mov    -0x10(%ebp),%eax
  c030b0:	8d 14 85 00 00 00 00 	lea    0x0(,%eax,4),%edx
  c030b7:	8b 45 0c             	mov    0xc(%ebp),%eax
  c030ba:	01 d0                	add    %edx,%eax
  c030bc:	8b 00                	mov    (%eax),%eax
  c030be:	85 c0                	test   %eax,%eax
  c030c0:	75 19                	jne    c030db <execvp+0x44>
  c030c2:	83 ec 04             	sub    $0x4,%esp
  c030c5:	ff 75 0c             	pushl  0xc(%ebp)
  c030c8:	ff 75 f0             	pushl  -0x10(%ebp)
  c030cb:	ff 75 08             	pushl  0x8(%ebp)
  c030ce:	e8 1d fe ff ff       	call   c02ef0 <exec>
  c030d3:	83 c4 10             	add    $0x10,%esp
  c030d6:	89 45 f4             	mov    %eax,-0xc(%ebp)
  c030d9:	eb 0a                	jmp    c030e5 <execvp+0x4e>
  c030db:	83 45 f0 01          	addl   $0x1,-0x10(%ebp)
  c030df:	83 7d f0 1f          	cmpl   $0x1f,-0x10(%ebp)
  c030e3:	7e c8                	jle    c030ad <execvp+0x16>
  c030e5:	8b 45 f4             	mov    -0xc(%ebp),%eax
  c030e8:	c9                   	leave  
  c030e9:	c3                   	ret    
  c030ea:	66 90                	xchg   %ax,%ax

00c030ec <_start>:
  c030ec:	23 25 f0 ff ff ff    	and    0xfffffff0,%esp
  c030f2:	50                   	push   %eax
  c030f3:	51                   	push   %ecx
  c030f4:	e8 df d6 ff ff       	call   c007d8 <main>
  c030f9:	83 c4 08             	add    $0x8,%esp
  c030fc:	50                   	push   %eax
  c030fd:	e8 3f 02 00 00       	call   c03341 <exit>
  c03102:	66 90                	xchg   %ax,%ax

00c03104 <_run>:
  c03104:	55                   	push   %ebp
  c03105:	89 e5                	mov    %esp,%ebp
  c03107:	57                   	push   %edi
  c03108:	56                   	push   %esi
  c03109:	53                   	push   %ebx
  c0310a:	83 ec 10             	sub    $0x10,%esp
  c0310d:	8b 55 10             	mov    0x10(%ebp),%edx
  c03110:	8b 75 18             	mov    0x18(%ebp),%esi
  c03113:	8b 7d 14             	mov    0x14(%ebp),%edi
  c03116:	b8 00 00 00 00       	mov    $0x0,%eax
  c0311b:	8b 5d 08             	mov    0x8(%ebp),%ebx
  c0311e:	8b 4d 0c             	mov    0xc(%ebp),%ecx
  c03121:	cd 80                	int    $0x80
  c03123:	89 45 f0             	mov    %eax,-0x10(%ebp)
  c03126:	8b 45 f0             	mov    -0x10(%ebp),%eax
  c03129:	83 c4 10             	add    $0x10,%esp
  c0312c:	5b                   	pop    %ebx
  c0312d:	5e                   	pop    %esi
  c0312e:	5f                   	pop    %edi
  c0312f:	5d                   	pop    %ebp
  c03130:	c3                   	ret    

00c03131 <strlen>:
  c03131:	55                   	push   %ebp
  c03132:	89 e5                	mov    %esp,%ebp
  c03134:	57                   	push   %edi
  c03135:	8b 55 08             	mov    0x8(%ebp),%edx
  c03138:	b8 00 00 00 00       	mov    $0x0,%eax
  c0313d:	b9 ff ff ff ff       	mov    $0xffffffff,%ecx
  c03142:	89 d7                	mov    %edx,%edi
  c03144:	fc                   	cld    
  c03145:	f2 ae                	repnz scas %es:(%edi),%al
  c03147:	f7 d1                	not    %ecx
  c03149:	49                   	dec    %ecx
  c0314a:	89 c8                	mov    %ecx,%eax
  c0314c:	5f                   	pop    %edi
  c0314d:	5d                   	pop    %ebp
  c0314e:	c3                   	ret    

00c0314f <open>:
  c0314f:	55                   	push   %ebp
  c03150:	89 e5                	mov    %esp,%ebp
  c03152:	57                   	push   %edi
  c03153:	56                   	push   %esi
  c03154:	53                   	push   %ebx
  c03155:	83 ec 20             	sub    $0x20,%esp
  c03158:	c7 45 f0 00 00 00 00 	movl   $0x0,-0x10(%ebp)
  c0315f:	ff 75 08             	pushl  0x8(%ebp)
  c03162:	e8 ca ff ff ff       	call   c03131 <strlen>
  c03167:	83 c4 04             	add    $0x4,%esp
  c0316a:	8d 50 01             	lea    0x1(%eax),%edx
  c0316d:	b8 04 00 00 00       	mov    $0x4,%eax
  c03172:	bb 01 00 00 00       	mov    $0x1,%ebx
  c03177:	8b 4d 08             	mov    0x8(%ebp),%ecx
  c0317a:	be 00 00 00 00       	mov    $0x0,%esi
  c0317f:	bf 00 00 00 00       	mov    $0x0,%edi
  c03184:	cd 80                	int    $0x80
  c03186:	89 45 ec             	mov    %eax,-0x14(%ebp)
  c03189:	8b 45 ec             	mov    -0x14(%ebp),%eax
  c0318c:	89 45 e8             	mov    %eax,-0x18(%ebp)
  c0318f:	c7 45 d8 00 00 00 00 	movl   $0x0,-0x28(%ebp)
  c03196:	c7 45 dc 00 00 00 00 	movl   $0x0,-0x24(%ebp)
  c0319d:	c7 45 e0 00 00 00 00 	movl   $0x0,-0x20(%ebp)
  c031a4:	8b 45 0c             	mov    0xc(%ebp),%eax
  c031a7:	89 45 d8             	mov    %eax,-0x28(%ebp)
  c031aa:	8b 45 e8             	mov    -0x18(%ebp),%eax
  c031ad:	89 45 e0             	mov    %eax,-0x20(%ebp)
  c031b0:	ff 75 e0             	pushl  -0x20(%ebp)
  c031b3:	ff 75 dc             	pushl  -0x24(%ebp)
  c031b6:	ff 75 d8             	pushl  -0x28(%ebp)
  c031b9:	6a 02                	push   $0x2
  c031bb:	6a 08                	push   $0x8
  c031bd:	e8 42 ff ff ff       	call   c03104 <_run>
  c031c2:	83 c4 14             	add    $0x14,%esp
  c031c5:	89 45 f0             	mov    %eax,-0x10(%ebp)
  c031c8:	b8 04 00 00 00       	mov    $0x4,%eax
  c031cd:	bb 00 00 00 00       	mov    $0x0,%ebx
  c031d2:	8b 4d e8             	mov    -0x18(%ebp),%ecx
  c031d5:	ba 00 00 00 00       	mov    $0x0,%edx
  c031da:	be 00 00 00 00       	mov    $0x0,%esi
  c031df:	bf 00 00 00 00       	mov    $0x0,%edi
  c031e4:	cd 80                	int    $0x80
  c031e6:	89 45 e4             	mov    %eax,-0x1c(%ebp)
  c031e9:	8b 45 f0             	mov    -0x10(%ebp),%eax
  c031ec:	8d 65 f4             	lea    -0xc(%ebp),%esp
  c031ef:	5b                   	pop    %ebx
  c031f0:	5e                   	pop    %esi
  c031f1:	5f                   	pop    %edi
  c031f2:	5d                   	pop    %ebp
  c031f3:	c3                   	ret    

00c031f4 <close>:
  c031f4:	55                   	push   %ebp
  c031f5:	89 e5                	mov    %esp,%ebp
  c031f7:	83 ec 10             	sub    $0x10,%esp
  c031fa:	c7 45 f4 00 00 00 00 	movl   $0x0,-0xc(%ebp)
  c03201:	c7 45 f8 00 00 00 00 	movl   $0x0,-0x8(%ebp)
  c03208:	c7 45 fc 00 00 00 00 	movl   $0x0,-0x4(%ebp)
  c0320f:	ff 75 fc             	pushl  -0x4(%ebp)
  c03212:	ff 75 f8             	pushl  -0x8(%ebp)
  c03215:	ff 75 f4             	pushl  -0xc(%ebp)
  c03218:	6a 03                	push   $0x3
  c0321a:	ff 75 08             	pushl  0x8(%ebp)
  c0321d:	e8 e2 fe ff ff       	call   c03104 <_run>
  c03222:	83 c4 14             	add    $0x14,%esp
  c03225:	c9                   	leave  
  c03226:	c3                   	ret    
  c03227:	90                   	nop

00c03228 <_run>:
  c03228:	55                   	push   %ebp
  c03229:	89 e5                	mov    %esp,%ebp
  c0322b:	57                   	push   %edi
  c0322c:	56                   	push   %esi
  c0322d:	53                   	push   %ebx
  c0322e:	83 ec 10             	sub    $0x10,%esp
  c03231:	8b 55 10             	mov    0x10(%ebp),%edx
  c03234:	8b 75 18             	mov    0x18(%ebp),%esi
  c03237:	8b 7d 14             	mov    0x14(%ebp),%edi
  c0323a:	b8 00 00 00 00       	mov    $0x0,%eax
  c0323f:	8b 5d 08             	mov    0x8(%ebp),%ebx
  c03242:	8b 4d 0c             	mov    0xc(%ebp),%ecx
  c03245:	cd 80                	int    $0x80
  c03247:	89 45 f0             	mov    %eax,-0x10(%ebp)
  c0324a:	8b 45 f0             	mov    -0x10(%ebp),%eax
  c0324d:	83 c4 10             	add    $0x10,%esp
  c03250:	5b                   	pop    %ebx
  c03251:	5e                   	pop    %esi
  c03252:	5f                   	pop    %edi
  c03253:	5d                   	pop    %ebp
  c03254:	c3                   	ret    

00c03255 <memcpy>:
  c03255:	55                   	push   %ebp
  c03256:	89 e5                	mov    %esp,%ebp
  c03258:	57                   	push   %edi
  c03259:	56                   	push   %esi
  c0325a:	53                   	push   %ebx
  c0325b:	8b 45 10             	mov    0x10(%ebp),%eax
  c0325e:	8b 55 0c             	mov    0xc(%ebp),%edx
  c03261:	8b 5d 08             	mov    0x8(%ebp),%ebx
  c03264:	89 c1                	mov    %eax,%ecx
  c03266:	89 d6                	mov    %edx,%esi
  c03268:	89 df                	mov    %ebx,%edi
  c0326a:	fc                   	cld    
  c0326b:	f3 a4                	rep movsb %ds:(%esi),%es:(%edi)
  c0326d:	8b 45 08             	mov    0x8(%ebp),%eax
  c03270:	5b                   	pop    %ebx
  c03271:	5e                   	pop    %esi
  c03272:	5f                   	pop    %edi
  c03273:	5d                   	pop    %ebp
  c03274:	c3                   	ret    

00c03275 <read>:
  c03275:	55                   	push   %ebp
  c03276:	89 e5                	mov    %esp,%ebp
  c03278:	57                   	push   %edi
  c03279:	56                   	push   %esi
  c0327a:	53                   	push   %ebx
  c0327b:	83 ec 20             	sub    $0x20,%esp
  c0327e:	b8 04 00 00 00       	mov    $0x4,%eax
  c03283:	bb 01 00 00 00       	mov    $0x1,%ebx
  c03288:	b9 00 00 00 00       	mov    $0x0,%ecx
  c0328d:	8b 55 10             	mov    0x10(%ebp),%edx
  c03290:	be 00 00 00 00       	mov    $0x0,%esi
  c03295:	bf 00 00 00 00       	mov    $0x0,%edi
  c0329a:	cd 80                	int    $0x80
  c0329c:	89 45 f0             	mov    %eax,-0x10(%ebp)
  c0329f:	8b 45 f0             	mov    -0x10(%ebp),%eax
  c032a2:	89 45 ec             	mov    %eax,-0x14(%ebp)
  c032a5:	c7 45 d8 00 00 00 00 	movl   $0x0,-0x28(%ebp)
  c032ac:	8b 45 10             	mov    0x10(%ebp),%eax
  c032af:	89 45 dc             	mov    %eax,-0x24(%ebp)
  c032b2:	8b 45 ec             	mov    -0x14(%ebp),%eax
  c032b5:	89 45 e0             	mov    %eax,-0x20(%ebp)
  c032b8:	ff 75 e0             	pushl  -0x20(%ebp)
  c032bb:	ff 75 dc             	pushl  -0x24(%ebp)
  c032be:	ff 75 d8             	pushl  -0x28(%ebp)
  c032c1:	6a 00                	push   $0x0
  c032c3:	ff 75 08             	pushl  0x8(%ebp)
  c032c6:	e8 5d ff ff ff       	call   c03228 <_run>
  c032cb:	83 c4 14             	add    $0x14,%esp
  c032ce:	89 45 e8             	mov    %eax,-0x18(%ebp)
  c032d1:	83 7d e8 ff          	cmpl   $0xffffffff,-0x18(%ebp)
  c032d5:	74 11                	je     c032e8 <read+0x73>
  c032d7:	ff 75 e8             	pushl  -0x18(%ebp)
  c032da:	ff 75 ec             	pushl  -0x14(%ebp)
  c032dd:	ff 75 0c             	pushl  0xc(%ebp)
  c032e0:	e8 70 ff ff ff       	call   c03255 <memcpy>
  c032e5:	83 c4 0c             	add    $0xc,%esp
  c032e8:	b8 04 00 00 00       	mov    $0x4,%eax
  c032ed:	bb 00 00 00 00       	mov    $0x0,%ebx
  c032f2:	8b 4d ec             	mov    -0x14(%ebp),%ecx
  c032f5:	ba 00 00 00 00       	mov    $0x0,%edx
  c032fa:	be 00 00 00 00       	mov    $0x0,%esi
  c032ff:	bf 00 00 00 00       	mov    $0x0,%edi
  c03304:	cd 80                	int    $0x80
  c03306:	89 45 e4             	mov    %eax,-0x1c(%ebp)
  c03309:	8b 45 e8             	mov    -0x18(%ebp),%eax
  c0330c:	8d 65 f4             	lea    -0xc(%ebp),%esp
  c0330f:	5b                   	pop    %ebx
  c03310:	5e                   	pop    %esi
  c03311:	5f                   	pop    %edi
  c03312:	5d                   	pop    %ebp
  c03313:	c3                   	ret    

00c03314 <_run>:
  c03314:	55                   	push   %ebp
  c03315:	89 e5                	mov    %esp,%ebp
  c03317:	57                   	push   %edi
  c03318:	56                   	push   %esi
  c03319:	53                   	push   %ebx
  c0331a:	83 ec 10             	sub    $0x10,%esp
  c0331d:	8b 55 10             	mov    0x10(%ebp),%edx
  c03320:	8b 75 18             	mov    0x18(%ebp),%esi
  c03323:	8b 7d 14             	mov    0x14(%ebp),%edi
  c03326:	b8 00 00 00 00       	mov    $0x0,%eax
  c0332b:	8b 5d 08             	mov    0x8(%ebp),%ebx
  c0332e:	8b 4d 0c             	mov    0xc(%ebp),%ecx
  c03331:	cd 80                	int    $0x80
  c03333:	89 45 f0             	mov    %eax,-0x10(%ebp)
  c03336:	8b 45 f0             	mov    -0x10(%ebp),%eax
  c03339:	83 c4 10             	add    $0x10,%esp
  c0333c:	5b                   	pop    %ebx
  c0333d:	5e                   	pop    %esi
  c0333e:	5f                   	pop    %edi
  c0333f:	5d                   	pop    %ebp
  c03340:	c3                   	ret    

00c03341 <exit>:
  c03341:	55                   	push   %ebp
  c03342:	89 e5                	mov    %esp,%ebp
  c03344:	83 ec 10             	sub    $0x10,%esp
  c03347:	c7 45 f4 00 00 00 00 	movl   $0x0,-0xc(%ebp)
  c0334e:	c7 45 f8 00 00 00 00 	movl   $0x0,-0x8(%ebp)
  c03355:	c7 45 fc 00 00 00 00 	movl   $0x0,-0x4(%ebp)
  c0335c:	8b 45 08             	mov    0x8(%ebp),%eax
  c0335f:	89 45 f4             	mov    %eax,-0xc(%ebp)
  c03362:	ff 75 fc             	pushl  -0x4(%ebp)
  c03365:	ff 75 f8             	pushl  -0x8(%ebp)
  c03368:	ff 75 f4             	pushl  -0xc(%ebp)
  c0336b:	6a 03                	push   $0x3
  c0336d:	6a 03                	push   $0x3
  c0336f:	e8 a0 ff ff ff       	call   c03314 <_run>
  c03374:	83 c4 14             	add    $0x14,%esp
  c03377:	c9                   	leave  
  c03378:	c3                   	ret    
  c03379:	66 90                	xchg   %ax,%ax
  c0337b:	90                   	nop

00c0337c <memset>:
  c0337c:	55                   	push   %ebp
  c0337d:	89 e5                	mov    %esp,%ebp
  c0337f:	57                   	push   %edi
  c03380:	83 ec 04             	sub    $0x4,%esp
  c03383:	8b 45 0c             	mov    0xc(%ebp),%eax
  c03386:	88 45 f8             	mov    %al,-0x8(%ebp)
  c03389:	0f b6 45 f8          	movzbl -0x8(%ebp),%eax
  c0338d:	8b 55 08             	mov    0x8(%ebp),%edx
  c03390:	8b 4d 10             	mov    0x10(%ebp),%ecx
  c03393:	89 d7                	mov    %edx,%edi
  c03395:	fc                   	cld    
  c03396:	f3 aa                	rep stos %al,%es:(%edi)
  c03398:	8b 45 08             	mov    0x8(%ebp),%eax
  c0339b:	83 c4 04             	add    $0x4,%esp
  c0339e:	5f                   	pop    %edi
  c0339f:	5d                   	pop    %ebp
  c033a0:	c3                   	ret    

00c033a1 <delMObject>:
  c033a1:	55                   	push   %ebp
  c033a2:	89 e5                	mov    %esp,%ebp
  c033a4:	56                   	push   %esi
  c033a5:	53                   	push   %ebx
  c033a6:	83 ec 10             	sub    $0x10,%esp
  c033a9:	83 7d 08 00          	cmpl   $0x0,0x8(%ebp)
  c033ad:	75 17                	jne    c033c6 <delMObject+0x25>
  c033af:	83 ec 0c             	sub    $0xc,%esp
  c033b2:	68 50 4f c0 00       	push   $0xc04f50
  c033b7:	e8 b4 06 00 00       	call   c03a70 <printf>
  c033bc:	83 c4 10             	add    $0x10,%esp
  c033bf:	b8 00 00 00 00       	mov    $0x0,%eax
  c033c4:	eb 72                	jmp    c03438 <delMObject+0x97>
  c033c6:	8b 45 08             	mov    0x8(%ebp),%eax
  c033c9:	8b 40 0c             	mov    0xc(%eax),%eax
  c033cc:	89 45 f0             	mov    %eax,-0x10(%ebp)
  c033cf:	8b 45 08             	mov    0x8(%ebp),%eax
  c033d2:	8b 40 10             	mov    0x10(%eax),%eax
  c033d5:	89 45 ec             	mov    %eax,-0x14(%ebp)
  c033d8:	83 7d ec 00          	cmpl   $0x0,-0x14(%ebp)
  c033dc:	74 0b                	je     c033e9 <delMObject+0x48>
  c033de:	8b 45 ec             	mov    -0x14(%ebp),%eax
  c033e1:	8b 55 f0             	mov    -0x10(%ebp),%edx
  c033e4:	89 50 0c             	mov    %edx,0xc(%eax)
  c033e7:	eb 33                	jmp    c0341c <delMObject+0x7b>
  c033e9:	a1 a8 55 c2 00       	mov    0xc255a8,%eax
  c033ee:	c7 45 f4 00 00 00 00 	movl   $0x0,-0xc(%ebp)
  c033f5:	eb 04                	jmp    c033fb <delMObject+0x5a>
  c033f7:	83 45 f4 01          	addl   $0x1,-0xc(%ebp)
  c033fb:	8b 55 08             	mov    0x8(%ebp),%edx
  c033fe:	8b 5a 08             	mov    0x8(%edx),%ebx
  c03401:	8b 55 f4             	mov    -0xc(%ebp),%edx
  c03404:	be 01 00 00 00       	mov    $0x1,%esi
  c03409:	89 d1                	mov    %edx,%ecx
  c0340b:	d3 e6                	shl    %cl,%esi
  c0340d:	89 f2                	mov    %esi,%edx
  c0340f:	39 d3                	cmp    %edx,%ebx
  c03411:	77 e4                	ja     c033f7 <delMObject+0x56>
  c03413:	8b 55 f4             	mov    -0xc(%ebp),%edx
  c03416:	8b 4d f0             	mov    -0x10(%ebp),%ecx
  c03419:	89 0c 90             	mov    %ecx,(%eax,%edx,4)
  c0341c:	83 7d f0 00          	cmpl   $0x0,-0x10(%ebp)
  c03420:	74 09                	je     c0342b <delMObject+0x8a>
  c03422:	8b 45 f0             	mov    -0x10(%ebp),%eax
  c03425:	8b 55 ec             	mov    -0x14(%ebp),%edx
  c03428:	89 50 10             	mov    %edx,0x10(%eax)
  c0342b:	8b 45 08             	mov    0x8(%ebp),%eax
  c0342e:	c7 40 04 01 00 00 00 	movl   $0x1,0x4(%eax)
  c03435:	8b 45 08             	mov    0x8(%ebp),%eax
  c03438:	8d 65 f8             	lea    -0x8(%ebp),%esp
  c0343b:	5b                   	pop    %ebx
  c0343c:	5e                   	pop    %esi
  c0343d:	5d                   	pop    %ebp
  c0343e:	c3                   	ret    

00c0343f <insertMObject>:
  c0343f:	55                   	push   %ebp
  c03440:	89 e5                	mov    %esp,%ebp
  c03442:	83 ec 08             	sub    $0x8,%esp
  c03445:	83 7d 0c 00          	cmpl   $0x0,0xc(%ebp)
  c03449:	75 17                	jne    c03462 <insertMObject+0x23>
  c0344b:	83 ec 0c             	sub    $0xc,%esp
  c0344e:	68 80 4f c0 00       	push   $0xc04f80
  c03453:	e8 18 06 00 00       	call   c03a70 <printf>
  c03458:	83 c4 10             	add    $0x10,%esp
  c0345b:	b8 00 00 00 00       	mov    $0x0,%eax
  c03460:	eb 2f                	jmp    c03491 <insertMObject+0x52>
  c03462:	8b 45 0c             	mov    0xc(%ebp),%eax
  c03465:	8b 55 08             	mov    0x8(%ebp),%edx
  c03468:	89 50 0c             	mov    %edx,0xc(%eax)
  c0346b:	8b 45 0c             	mov    0xc(%ebp),%eax
  c0346e:	c7 40 10 00 00 00 00 	movl   $0x0,0x10(%eax)
  c03475:	8b 45 0c             	mov    0xc(%ebp),%eax
  c03478:	c7 40 04 00 00 00 00 	movl   $0x0,0x4(%eax)
  c0347f:	83 7d 08 00          	cmpl   $0x0,0x8(%ebp)
  c03483:	74 09                	je     c0348e <insertMObject+0x4f>
  c03485:	8b 45 08             	mov    0x8(%ebp),%eax
  c03488:	8b 55 0c             	mov    0xc(%ebp),%edx
  c0348b:	89 50 10             	mov    %edx,0x10(%eax)
  c0348e:	8b 45 0c             	mov    0xc(%ebp),%eax
  c03491:	c9                   	leave  
  c03492:	c3                   	ret    

00c03493 <splitMObject>:
  c03493:	55                   	push   %ebp
  c03494:	89 e5                	mov    %esp,%ebp
  c03496:	53                   	push   %ebx
  c03497:	83 ec 14             	sub    $0x14,%esp
  c0349a:	83 7d 08 00          	cmpl   $0x0,0x8(%ebp)
  c0349e:	75 1a                	jne    c034ba <splitMObject+0x27>
  c034a0:	83 ec 0c             	sub    $0xc,%esp
  c034a3:	68 b0 4f c0 00       	push   $0xc04fb0
  c034a8:	e8 c3 05 00 00       	call   c03a70 <printf>
  c034ad:	83 c4 10             	add    $0x10,%esp
  c034b0:	b8 00 00 00 00       	mov    $0x0,%eax
  c034b5:	e9 dd 00 00 00       	jmp    c03597 <splitMObject+0x104>
  c034ba:	8b 45 08             	mov    0x8(%ebp),%eax
  c034bd:	8b 40 08             	mov    0x8(%eax),%eax
  c034c0:	d1 e8                	shr    %eax
  c034c2:	89 45 f0             	mov    %eax,-0x10(%ebp)
  c034c5:	c7 45 f4 00 00 00 00 	movl   $0x0,-0xc(%ebp)
  c034cc:	eb 04                	jmp    c034d2 <splitMObject+0x3f>
  c034ce:	83 45 f4 01          	addl   $0x1,-0xc(%ebp)
  c034d2:	8b 45 f4             	mov    -0xc(%ebp),%eax
  c034d5:	ba 01 00 00 00       	mov    $0x1,%edx
  c034da:	89 c1                	mov    %eax,%ecx
  c034dc:	d3 e2                	shl    %cl,%edx
  c034de:	89 d0                	mov    %edx,%eax
  c034e0:	3b 45 f0             	cmp    -0x10(%ebp),%eax
  c034e3:	72 e9                	jb     c034ce <splitMObject+0x3b>
  c034e5:	8b 45 f4             	mov    -0xc(%ebp),%eax
  c034e8:	89 45 ec             	mov    %eax,-0x14(%ebp)
  c034eb:	8b 55 08             	mov    0x8(%ebp),%edx
  c034ee:	8b 45 f0             	mov    -0x10(%ebp),%eax
  c034f1:	01 d0                	add    %edx,%eax
  c034f3:	89 45 e8             	mov    %eax,-0x18(%ebp)
  c034f6:	8b 45 e8             	mov    -0x18(%ebp),%eax
  c034f9:	c7 00 00 00 00 00    	movl   $0x0,(%eax)
  c034ff:	c7 40 04 00 00 00 00 	movl   $0x0,0x4(%eax)
  c03506:	c7 40 08 00 00 00 00 	movl   $0x0,0x8(%eax)
  c0350d:	c7 40 0c 00 00 00 00 	movl   $0x0,0xc(%eax)
  c03514:	c7 40 10 00 00 00 00 	movl   $0x0,0x10(%eax)
  c0351b:	8b 45 e8             	mov    -0x18(%ebp),%eax
  c0351e:	8b 55 08             	mov    0x8(%ebp),%edx
  c03521:	89 10                	mov    %edx,(%eax)
  c03523:	8b 45 e8             	mov    -0x18(%ebp),%eax
  c03526:	8b 55 f0             	mov    -0x10(%ebp),%edx
  c03529:	89 50 08             	mov    %edx,0x8(%eax)
  c0352c:	8b 45 e8             	mov    -0x18(%ebp),%eax
  c0352f:	8b 50 08             	mov    0x8(%eax),%edx
  c03532:	8b 45 e8             	mov    -0x18(%ebp),%eax
  c03535:	8d 0c 02             	lea    (%edx,%eax,1),%ecx
  c03538:	8b 15 a8 55 c2 00    	mov    0xc255a8,%edx
  c0353e:	a1 a8 55 c2 00       	mov    0xc255a8,%eax
  c03543:	8b 80 80 00 00 00    	mov    0x80(%eax),%eax
  c03549:	83 e8 80             	sub    $0xffffff80,%eax
  c0354c:	01 d0                	add    %edx,%eax
  c0354e:	83 c0 04             	add    $0x4,%eax
  c03551:	39 c1                	cmp    %eax,%ecx
  c03553:	73 10                	jae    c03565 <splitMObject+0xd2>
  c03555:	8b 45 e8             	mov    -0x18(%ebp),%eax
  c03558:	8b 50 08             	mov    0x8(%eax),%edx
  c0355b:	8b 45 e8             	mov    -0x18(%ebp),%eax
  c0355e:	01 c2                	add    %eax,%edx
  c03560:	8b 45 e8             	mov    -0x18(%ebp),%eax
  c03563:	89 02                	mov    %eax,(%edx)
  c03565:	8b 1d a8 55 c2 00    	mov    0xc255a8,%ebx
  c0356b:	a1 a8 55 c2 00       	mov    0xc255a8,%eax
  c03570:	8b 55 ec             	mov    -0x14(%ebp),%edx
  c03573:	8b 04 90             	mov    (%eax,%edx,4),%eax
  c03576:	83 ec 08             	sub    $0x8,%esp
  c03579:	ff 75 e8             	pushl  -0x18(%ebp)
  c0357c:	50                   	push   %eax
  c0357d:	e8 bd fe ff ff       	call   c0343f <insertMObject>
  c03582:	83 c4 10             	add    $0x10,%esp
  c03585:	8b 55 ec             	mov    -0x14(%ebp),%edx
  c03588:	89 04 93             	mov    %eax,(%ebx,%edx,4)
  c0358b:	8b 45 08             	mov    0x8(%ebp),%eax
  c0358e:	8b 55 f0             	mov    -0x10(%ebp),%edx
  c03591:	89 50 08             	mov    %edx,0x8(%eax)
  c03594:	8b 45 08             	mov    0x8(%ebp),%eax
  c03597:	8b 5d fc             	mov    -0x4(%ebp),%ebx
  c0359a:	c9                   	leave  
  c0359b:	c3                   	ret    

00c0359c <mergerMObject>:
  c0359c:	55                   	push   %ebp
  c0359d:	89 e5                	mov    %esp,%ebp
  c0359f:	83 ec 08             	sub    $0x8,%esp
  c035a2:	83 7d 08 00          	cmpl   $0x0,0x8(%ebp)
  c035a6:	74 06                	je     c035ae <mergerMObject+0x12>
  c035a8:	83 7d 0c 00          	cmpl   $0x0,0xc(%ebp)
  c035ac:	75 12                	jne    c035c0 <mergerMObject+0x24>
  c035ae:	83 ec 0c             	sub    $0xc,%esp
  c035b1:	68 dc 4f c0 00       	push   $0xc04fdc
  c035b6:	e8 b5 04 00 00       	call   c03a70 <printf>
  c035bb:	83 c4 10             	add    $0x10,%esp
  c035be:	eb fe                	jmp    c035be <mergerMObject+0x22>
  c035c0:	8b 45 08             	mov    0x8(%ebp),%eax
  c035c3:	8b 50 08             	mov    0x8(%eax),%edx
  c035c6:	8b 45 08             	mov    0x8(%ebp),%eax
  c035c9:	01 d0                	add    %edx,%eax
  c035cb:	3b 45 0c             	cmp    0xc(%ebp),%eax
  c035ce:	74 26                	je     c035f6 <mergerMObject+0x5a>
  c035d0:	8b 45 0c             	mov    0xc(%ebp),%eax
  c035d3:	8b 50 08             	mov    0x8(%eax),%edx
  c035d6:	8b 45 08             	mov    0x8(%ebp),%eax
  c035d9:	8b 40 08             	mov    0x8(%eax),%eax
  c035dc:	83 ec 0c             	sub    $0xc,%esp
  c035df:	52                   	push   %edx
  c035e0:	ff 75 0c             	pushl  0xc(%ebp)
  c035e3:	50                   	push   %eax
  c035e4:	ff 75 08             	pushl  0x8(%ebp)
  c035e7:	68 08 50 c0 00       	push   $0xc05008
  c035ec:	e8 7f 04 00 00       	call   c03a70 <printf>
  c035f1:	83 c4 20             	add    $0x20,%esp
  c035f4:	eb fe                	jmp    c035f4 <mergerMObject+0x58>
  c035f6:	8b 45 08             	mov    0x8(%ebp),%eax
  c035f9:	8b 50 08             	mov    0x8(%eax),%edx
  c035fc:	8b 45 0c             	mov    0xc(%ebp),%eax
  c035ff:	8b 40 08             	mov    0x8(%eax),%eax
  c03602:	39 c2                	cmp    %eax,%edx
  c03604:	75 48                	jne    c0364e <mergerMObject+0xb2>
  c03606:	8b 45 08             	mov    0x8(%ebp),%eax
  c03609:	8b 40 08             	mov    0x8(%eax),%eax
  c0360c:	8d 14 00             	lea    (%eax,%eax,1),%edx
  c0360f:	8b 45 08             	mov    0x8(%ebp),%eax
  c03612:	89 50 08             	mov    %edx,0x8(%eax)
  c03615:	8b 45 08             	mov    0x8(%ebp),%eax
  c03618:	8b 50 08             	mov    0x8(%eax),%edx
  c0361b:	8b 45 08             	mov    0x8(%ebp),%eax
  c0361e:	8d 0c 02             	lea    (%edx,%eax,1),%ecx
  c03621:	8b 15 a8 55 c2 00    	mov    0xc255a8,%edx
  c03627:	a1 a8 55 c2 00       	mov    0xc255a8,%eax
  c0362c:	8b 80 80 00 00 00    	mov    0x80(%eax),%eax
  c03632:	83 e8 80             	sub    $0xffffff80,%eax
  c03635:	01 d0                	add    %edx,%eax
  c03637:	83 c0 04             	add    $0x4,%eax
  c0363a:	39 c1                	cmp    %eax,%ecx
  c0363c:	73 10                	jae    c0364e <mergerMObject+0xb2>
  c0363e:	8b 45 08             	mov    0x8(%ebp),%eax
  c03641:	8b 50 08             	mov    0x8(%eax),%edx
  c03644:	8b 45 08             	mov    0x8(%ebp),%eax
  c03647:	01 c2                	add    %eax,%edx
  c03649:	8b 45 08             	mov    0x8(%ebp),%eax
  c0364c:	89 02                	mov    %eax,(%edx)
  c0364e:	8b 45 08             	mov    0x8(%ebp),%eax
  c03651:	c9                   	leave  
  c03652:	c3                   	ret    

00c03653 <getMObject>:
  c03653:	55                   	push   %ebp
  c03654:	89 e5                	mov    %esp,%ebp
  c03656:	83 ec 18             	sub    $0x18,%esp
  c03659:	83 7d 08 1f          	cmpl   $0x1f,0x8(%ebp)
  c0365d:	7f 06                	jg     c03665 <getMObject+0x12>
  c0365f:	83 7d 08 00          	cmpl   $0x0,0x8(%ebp)
  c03663:	79 07                	jns    c0366c <getMObject+0x19>
  c03665:	b8 00 00 00 00       	mov    $0x0,%eax
  c0366a:	eb 5a                	jmp    c036c6 <getMObject+0x73>
  c0366c:	a1 a8 55 c2 00       	mov    0xc255a8,%eax
  c03671:	8b 55 08             	mov    0x8(%ebp),%edx
  c03674:	8b 04 90             	mov    (%eax,%edx,4),%eax
  c03677:	89 45 f4             	mov    %eax,-0xc(%ebp)
  c0367a:	83 7d f4 00          	cmpl   $0x0,-0xc(%ebp)
  c0367e:	74 16                	je     c03696 <getMObject+0x43>
  c03680:	83 ec 0c             	sub    $0xc,%esp
  c03683:	ff 75 f4             	pushl  -0xc(%ebp)
  c03686:	e8 16 fd ff ff       	call   c033a1 <delMObject>
  c0368b:	83 c4 10             	add    $0x10,%esp
  c0368e:	89 45 f4             	mov    %eax,-0xc(%ebp)
  c03691:	8b 45 f4             	mov    -0xc(%ebp),%eax
  c03694:	eb 30                	jmp    c036c6 <getMObject+0x73>
  c03696:	8b 45 08             	mov    0x8(%ebp),%eax
  c03699:	83 c0 01             	add    $0x1,%eax
  c0369c:	83 ec 0c             	sub    $0xc,%esp
  c0369f:	50                   	push   %eax
  c036a0:	e8 ae ff ff ff       	call   c03653 <getMObject>
  c036a5:	83 c4 10             	add    $0x10,%esp
  c036a8:	89 45 f4             	mov    %eax,-0xc(%ebp)
  c036ab:	83 7d f4 00          	cmpl   $0x0,-0xc(%ebp)
  c036af:	75 07                	jne    c036b8 <getMObject+0x65>
  c036b1:	b8 00 00 00 00       	mov    $0x0,%eax
  c036b6:	eb 0e                	jmp    c036c6 <getMObject+0x73>
  c036b8:	83 ec 0c             	sub    $0xc,%esp
  c036bb:	ff 75 f4             	pushl  -0xc(%ebp)
  c036be:	e8 d0 fd ff ff       	call   c03493 <splitMObject>
  c036c3:	83 c4 10             	add    $0x10,%esp
  c036c6:	c9                   	leave  
  c036c7:	c3                   	ret    

00c036c8 <realizeMHeap>:
  c036c8:	55                   	push   %ebp
  c036c9:	89 e5                	mov    %esp,%ebp
  c036cb:	53                   	push   %ebx
  c036cc:	83 ec 14             	sub    $0x14,%esp
  c036cf:	a1 a8 55 c2 00       	mov    0xc255a8,%eax
  c036d4:	85 c0                	test   %eax,%eax
  c036d6:	74 25                	je     c036fd <realizeMHeap+0x35>
  c036d8:	a1 a8 55 c2 00       	mov    0xc255a8,%eax
  c036dd:	83 ec 04             	sub    $0x4,%esp
  c036e0:	68 a8 55 c2 00       	push   $0xc255a8
  c036e5:	50                   	push   %eax
  c036e6:	68 68 50 c0 00       	push   $0xc05068
  c036eb:	e8 80 03 00 00       	call   c03a70 <printf>
  c036f0:	83 c4 10             	add    $0x10,%esp
  c036f3:	b8 ff ff ff ff       	mov    $0xffffffff,%eax
  c036f8:	e9 27 01 00 00       	jmp    c03824 <realizeMHeap+0x15c>
  c036fd:	81 45 08 84 00 00 00 	addl   $0x84,0x8(%ebp)
  c03704:	c7 45 f4 00 00 00 00 	movl   $0x0,-0xc(%ebp)
  c0370b:	eb 04                	jmp    c03711 <realizeMHeap+0x49>
  c0370d:	83 45 f4 01          	addl   $0x1,-0xc(%ebp)
  c03711:	8b 45 f4             	mov    -0xc(%ebp),%eax
  c03714:	ba 01 00 00 00       	mov    $0x1,%edx
  c03719:	89 c1                	mov    %eax,%ecx
  c0371b:	d3 e2                	shl    %cl,%edx
  c0371d:	89 d0                	mov    %edx,%eax
  c0371f:	3b 45 08             	cmp    0x8(%ebp),%eax
  c03722:	72 e9                	jb     c0370d <realizeMHeap+0x45>
  c03724:	8b 45 f4             	mov    -0xc(%ebp),%eax
  c03727:	89 45 f0             	mov    %eax,-0x10(%ebp)
  c0372a:	83 7d f0 1f          	cmpl   $0x1f,-0x10(%ebp)
  c0372e:	7f 06                	jg     c03736 <realizeMHeap+0x6e>
  c03730:	83 7d f0 00          	cmpl   $0x0,-0x10(%ebp)
  c03734:	79 22                	jns    c03758 <realizeMHeap+0x90>
  c03736:	83 ec 04             	sub    $0x4,%esp
  c03739:	ff 75 08             	pushl  0x8(%ebp)
  c0373c:	68 7c ff ff 7f       	push   $0x7fffff7c
  c03741:	68 a8 50 c0 00       	push   $0xc050a8
  c03746:	e8 25 03 00 00       	call   c03a70 <printf>
  c0374b:	83 c4 10             	add    $0x10,%esp
  c0374e:	b8 ff ff ff ff       	mov    $0xffffffff,%eax
  c03753:	e9 cc 00 00 00       	jmp    c03824 <realizeMHeap+0x15c>
  c03758:	c7 05 a8 55 c2 00 e0 	movl   $0xc259e0,0xc255a8
  c0375f:	59 c2 00 
  c03762:	a1 a8 55 c2 00       	mov    0xc255a8,%eax
  c03767:	85 c0                	test   %eax,%eax
  c03769:	75 1a                	jne    c03785 <realizeMHeap+0xbd>
  c0376b:	83 ec 0c             	sub    $0xc,%esp
  c0376e:	68 e4 50 c0 00       	push   $0xc050e4
  c03773:	e8 f8 02 00 00       	call   c03a70 <printf>
  c03778:	83 c4 10             	add    $0x10,%esp
  c0377b:	b8 ff ff ff ff       	mov    $0xffffffff,%eax
  c03780:	e9 9f 00 00 00       	jmp    c03824 <realizeMHeap+0x15c>
  c03785:	8b 45 f0             	mov    -0x10(%ebp),%eax
  c03788:	ba 01 00 00 00       	mov    $0x1,%edx
  c0378d:	89 c1                	mov    %eax,%ecx
  c0378f:	d3 e2                	shl    %cl,%edx
  c03791:	89 d0                	mov    %edx,%eax
  c03793:	05 84 00 00 00       	add    $0x84,%eax
  c03798:	89 c2                	mov    %eax,%edx
  c0379a:	a1 a8 55 c2 00       	mov    0xc255a8,%eax
  c0379f:	83 ec 04             	sub    $0x4,%esp
  c037a2:	52                   	push   %edx
  c037a3:	6a 00                	push   $0x0
  c037a5:	50                   	push   %eax
  c037a6:	e8 d1 fb ff ff       	call   c0337c <memset>
  c037ab:	83 c4 10             	add    $0x10,%esp
  c037ae:	a1 a8 55 c2 00       	mov    0xc255a8,%eax
  c037b3:	8b 55 f0             	mov    -0x10(%ebp),%edx
  c037b6:	bb 01 00 00 00       	mov    $0x1,%ebx
  c037bb:	89 d1                	mov    %edx,%ecx
  c037bd:	d3 e3                	shl    %cl,%ebx
  c037bf:	89 da                	mov    %ebx,%edx
  c037c1:	89 90 80 00 00 00    	mov    %edx,0x80(%eax)
  c037c7:	a1 a8 55 c2 00       	mov    0xc255a8,%eax
  c037cc:	05 84 00 00 00       	add    $0x84,%eax
  c037d1:	89 45 ec             	mov    %eax,-0x14(%ebp)
  c037d4:	8b 45 f0             	mov    -0x10(%ebp),%eax
  c037d7:	ba 01 00 00 00       	mov    $0x1,%edx
  c037dc:	89 c1                	mov    %eax,%ecx
  c037de:	d3 e2                	shl    %cl,%edx
  c037e0:	89 d0                	mov    %edx,%eax
  c037e2:	89 c2                	mov    %eax,%edx
  c037e4:	8b 45 ec             	mov    -0x14(%ebp),%eax
  c037e7:	c7 00 00 00 00 00    	movl   $0x0,(%eax)
  c037ed:	8b 45 ec             	mov    -0x14(%ebp),%eax
  c037f0:	c7 40 04 00 00 00 00 	movl   $0x0,0x4(%eax)
  c037f7:	8b 45 ec             	mov    -0x14(%ebp),%eax
  c037fa:	89 50 08             	mov    %edx,0x8(%eax)
  c037fd:	8b 45 ec             	mov    -0x14(%ebp),%eax
  c03800:	c7 40 0c 00 00 00 00 	movl   $0x0,0xc(%eax)
  c03807:	8b 45 ec             	mov    -0x14(%ebp),%eax
  c0380a:	c7 40 10 00 00 00 00 	movl   $0x0,0x10(%eax)
  c03811:	a1 a8 55 c2 00       	mov    0xc255a8,%eax
  c03816:	8b 55 f0             	mov    -0x10(%ebp),%edx
  c03819:	8b 4d ec             	mov    -0x14(%ebp),%ecx
  c0381c:	89 0c 90             	mov    %ecx,(%eax,%edx,4)
  c0381f:	b8 00 00 00 00       	mov    $0x0,%eax
  c03824:	8b 5d fc             	mov    -0x4(%ebp),%ebx
  c03827:	c9                   	leave  
  c03828:	c3                   	ret    

00c03829 <domalloc>:
  c03829:	55                   	push   %ebp
  c0382a:	89 e5                	mov    %esp,%ebp
  c0382c:	83 ec 18             	sub    $0x18,%esp
  c0382f:	83 45 08 0c          	addl   $0xc,0x8(%ebp)
  c03833:	c7 45 f4 00 00 00 00 	movl   $0x0,-0xc(%ebp)
  c0383a:	eb 04                	jmp    c03840 <domalloc+0x17>
  c0383c:	83 45 f4 01          	addl   $0x1,-0xc(%ebp)
  c03840:	8b 45 f4             	mov    -0xc(%ebp),%eax
  c03843:	ba 01 00 00 00       	mov    $0x1,%edx
  c03848:	89 c1                	mov    %eax,%ecx
  c0384a:	d3 e2                	shl    %cl,%edx
  c0384c:	89 d0                	mov    %edx,%eax
  c0384e:	3b 45 08             	cmp    0x8(%ebp),%eax
  c03851:	72 e9                	jb     c0383c <domalloc+0x13>
  c03853:	8b 45 f4             	mov    -0xc(%ebp),%eax
  c03856:	89 45 f0             	mov    %eax,-0x10(%ebp)
  c03859:	83 7d f0 1f          	cmpl   $0x1f,-0x10(%ebp)
  c0385d:	7f 06                	jg     c03865 <domalloc+0x3c>
  c0385f:	83 7d f0 00          	cmpl   $0x0,-0x10(%ebp)
  c03863:	79 1f                	jns    c03884 <domalloc+0x5b>
  c03865:	83 ec 04             	sub    $0x4,%esp
  c03868:	ff 75 08             	pushl  0x8(%ebp)
  c0386b:	68 68 ff ff 7f       	push   $0x7fffff68
  c03870:	68 18 51 c0 00       	push   $0xc05118
  c03875:	e8 f6 01 00 00       	call   c03a70 <printf>
  c0387a:	83 c4 10             	add    $0x10,%esp
  c0387d:	b8 00 00 00 00       	mov    $0x0,%eax
  c03882:	eb 24                	jmp    c038a8 <domalloc+0x7f>
  c03884:	83 ec 0c             	sub    $0xc,%esp
  c03887:	ff 75 f0             	pushl  -0x10(%ebp)
  c0388a:	e8 c4 fd ff ff       	call   c03653 <getMObject>
  c0388f:	83 c4 10             	add    $0x10,%esp
  c03892:	89 45 ec             	mov    %eax,-0x14(%ebp)
  c03895:	83 7d ec 00          	cmpl   $0x0,-0x14(%ebp)
  c03899:	74 08                	je     c038a3 <domalloc+0x7a>
  c0389b:	8b 45 ec             	mov    -0x14(%ebp),%eax
  c0389e:	83 c0 0c             	add    $0xc,%eax
  c038a1:	eb 05                	jmp    c038a8 <domalloc+0x7f>
  c038a3:	b8 00 00 00 00       	mov    $0x0,%eax
  c038a8:	c9                   	leave  
  c038a9:	c3                   	ret    

00c038aa <free>:
  c038aa:	55                   	push   %ebp
  c038ab:	89 e5                	mov    %esp,%ebp
  c038ad:	53                   	push   %ebx
  c038ae:	83 ec 24             	sub    $0x24,%esp
  c038b1:	8b 45 08             	mov    0x8(%ebp),%eax
  c038b4:	89 45 ec             	mov    %eax,-0x14(%ebp)
  c038b7:	8b 45 ec             	mov    -0x14(%ebp),%eax
  c038ba:	83 e8 0c             	sub    $0xc,%eax
  c038bd:	89 45 f4             	mov    %eax,-0xc(%ebp)
  c038c0:	83 7d 08 00          	cmpl   $0x0,0x8(%ebp)
  c038c4:	74 2d                	je     c038f3 <free+0x49>
  c038c6:	8b 15 a8 55 c2 00    	mov    0xc255a8,%edx
  c038cc:	a1 a8 55 c2 00       	mov    0xc255a8,%eax
  c038d1:	8b 80 80 00 00 00    	mov    0x80(%eax),%eax
  c038d7:	83 e8 80             	sub    $0xffffff80,%eax
  c038da:	01 d0                	add    %edx,%eax
  c038dc:	83 c0 04             	add    $0x4,%eax
  c038df:	3b 45 f4             	cmp    -0xc(%ebp),%eax
  c038e2:	72 0f                	jb     c038f3 <free+0x49>
  c038e4:	a1 a8 55 c2 00       	mov    0xc255a8,%eax
  c038e9:	05 84 00 00 00       	add    $0x84,%eax
  c038ee:	3b 45 f4             	cmp    -0xc(%ebp),%eax
  c038f1:	76 18                	jbe    c0390b <free+0x61>
  c038f3:	83 ec 08             	sub    $0x8,%esp
  c038f6:	ff 75 08             	pushl  0x8(%ebp)
  c038f9:	68 50 51 c0 00       	push   $0xc05150
  c038fe:	e8 6d 01 00 00       	call   c03a70 <printf>
  c03903:	83 c4 10             	add    $0x10,%esp
  c03906:	e9 f7 00 00 00       	jmp    c03a02 <free+0x158>
  c0390b:	8b 45 f4             	mov    -0xc(%ebp),%eax
  c0390e:	8b 00                	mov    (%eax),%eax
  c03910:	85 c0                	test   %eax,%eax
  c03912:	74 37                	je     c0394b <free+0xa1>
  c03914:	8b 45 f4             	mov    -0xc(%ebp),%eax
  c03917:	8b 00                	mov    (%eax),%eax
  c03919:	89 45 e8             	mov    %eax,-0x18(%ebp)
  c0391c:	8b 45 e8             	mov    -0x18(%ebp),%eax
  c0391f:	8b 40 04             	mov    0x4(%eax),%eax
  c03922:	85 c0                	test   %eax,%eax
  c03924:	75 25                	jne    c0394b <free+0xa1>
  c03926:	83 ec 0c             	sub    $0xc,%esp
  c03929:	ff 75 e8             	pushl  -0x18(%ebp)
  c0392c:	e8 70 fa ff ff       	call   c033a1 <delMObject>
  c03931:	83 c4 10             	add    $0x10,%esp
  c03934:	89 45 e8             	mov    %eax,-0x18(%ebp)
  c03937:	83 ec 08             	sub    $0x8,%esp
  c0393a:	ff 75 f4             	pushl  -0xc(%ebp)
  c0393d:	ff 75 e8             	pushl  -0x18(%ebp)
  c03940:	e8 57 fc ff ff       	call   c0359c <mergerMObject>
  c03945:	83 c4 10             	add    $0x10,%esp
  c03948:	89 45 f4             	mov    %eax,-0xc(%ebp)
  c0394b:	8b 45 f4             	mov    -0xc(%ebp),%eax
  c0394e:	8b 50 08             	mov    0x8(%eax),%edx
  c03951:	8b 45 f4             	mov    -0xc(%ebp),%eax
  c03954:	8d 0c 02             	lea    (%edx,%eax,1),%ecx
  c03957:	8b 15 a8 55 c2 00    	mov    0xc255a8,%edx
  c0395d:	a1 a8 55 c2 00       	mov    0xc255a8,%eax
  c03962:	8b 80 80 00 00 00    	mov    0x80(%eax),%eax
  c03968:	83 e8 80             	sub    $0xffffff80,%eax
  c0396b:	01 d0                	add    %edx,%eax
  c0396d:	83 c0 04             	add    $0x4,%eax
  c03970:	39 c1                	cmp    %eax,%ecx
  c03972:	73 3d                	jae    c039b1 <free+0x107>
  c03974:	8b 45 f4             	mov    -0xc(%ebp),%eax
  c03977:	8b 50 08             	mov    0x8(%eax),%edx
  c0397a:	8b 45 f4             	mov    -0xc(%ebp),%eax
  c0397d:	01 d0                	add    %edx,%eax
  c0397f:	89 45 e4             	mov    %eax,-0x1c(%ebp)
  c03982:	8b 45 e4             	mov    -0x1c(%ebp),%eax
  c03985:	8b 40 04             	mov    0x4(%eax),%eax
  c03988:	85 c0                	test   %eax,%eax
  c0398a:	75 25                	jne    c039b1 <free+0x107>
  c0398c:	83 ec 0c             	sub    $0xc,%esp
  c0398f:	ff 75 e4             	pushl  -0x1c(%ebp)
  c03992:	e8 0a fa ff ff       	call   c033a1 <delMObject>
  c03997:	83 c4 10             	add    $0x10,%esp
  c0399a:	89 45 e4             	mov    %eax,-0x1c(%ebp)
  c0399d:	83 ec 08             	sub    $0x8,%esp
  c039a0:	ff 75 e4             	pushl  -0x1c(%ebp)
  c039a3:	ff 75 f4             	pushl  -0xc(%ebp)
  c039a6:	e8 f1 fb ff ff       	call   c0359c <mergerMObject>
  c039ab:	83 c4 10             	add    $0x10,%esp
  c039ae:	89 45 f4             	mov    %eax,-0xc(%ebp)
  c039b1:	c7 45 f0 00 00 00 00 	movl   $0x0,-0x10(%ebp)
  c039b8:	eb 04                	jmp    c039be <free+0x114>
  c039ba:	83 45 f0 01          	addl   $0x1,-0x10(%ebp)
  c039be:	8b 45 f4             	mov    -0xc(%ebp),%eax
  c039c1:	8b 50 08             	mov    0x8(%eax),%edx
  c039c4:	8b 45 f0             	mov    -0x10(%ebp),%eax
  c039c7:	bb 01 00 00 00       	mov    $0x1,%ebx
  c039cc:	89 c1                	mov    %eax,%ecx
  c039ce:	d3 e3                	shl    %cl,%ebx
  c039d0:	89 d8                	mov    %ebx,%eax
  c039d2:	39 c2                	cmp    %eax,%edx
  c039d4:	77 e4                	ja     c039ba <free+0x110>
  c039d6:	8b 45 f0             	mov    -0x10(%ebp),%eax
  c039d9:	89 45 e0             	mov    %eax,-0x20(%ebp)
  c039dc:	8b 1d a8 55 c2 00    	mov    0xc255a8,%ebx
  c039e2:	a1 a8 55 c2 00       	mov    0xc255a8,%eax
  c039e7:	8b 55 e0             	mov    -0x20(%ebp),%edx
  c039ea:	8b 04 90             	mov    (%eax,%edx,4),%eax
  c039ed:	83 ec 08             	sub    $0x8,%esp
  c039f0:	ff 75 f4             	pushl  -0xc(%ebp)
  c039f3:	50                   	push   %eax
  c039f4:	e8 46 fa ff ff       	call   c0343f <insertMObject>
  c039f9:	83 c4 10             	add    $0x10,%esp
  c039fc:	8b 55 e0             	mov    -0x20(%ebp),%edx
  c039ff:	89 04 93             	mov    %eax,(%ebx,%edx,4)
  c03a02:	8b 5d fc             	mov    -0x4(%ebp),%ebx
  c03a05:	c9                   	leave  
  c03a06:	c3                   	ret    

00c03a07 <realize>:
  c03a07:	55                   	push   %ebp
  c03a08:	89 e5                	mov    %esp,%ebp
  c03a0a:	83 ec 18             	sub    $0x18,%esp
  c03a0d:	83 ec 0c             	sub    $0xc,%esp
  c03a10:	68 00 00 40 00       	push   $0x400000
  c03a15:	e8 ae fc ff ff       	call   c036c8 <realizeMHeap>
  c03a1a:	83 c4 10             	add    $0x10,%esp
  c03a1d:	89 45 f4             	mov    %eax,-0xc(%ebp)
  c03a20:	83 7d f4 ff          	cmpl   $0xffffffff,-0xc(%ebp)
  c03a24:	75 17                	jne    c03a3d <realize+0x36>
  c03a26:	83 ec 0c             	sub    $0xc,%esp
  c03a29:	68 80 51 c0 00       	push   $0xc05180
  c03a2e:	e8 3d 00 00 00       	call   c03a70 <printf>
  c03a33:	83 c4 10             	add    $0x10,%esp
  c03a36:	b8 00 00 00 00       	mov    $0x0,%eax
  c03a3b:	eb 18                	jmp    c03a55 <realize+0x4e>
  c03a3d:	c7 05 10 80 c0 00 29 	movl   $0xc03829,0xc08010
  c03a44:	38 c0 00 
  c03a47:	83 ec 0c             	sub    $0xc,%esp
  c03a4a:	ff 75 08             	pushl  0x8(%ebp)
  c03a4d:	e8 d7 fd ff ff       	call   c03829 <domalloc>
  c03a52:	83 c4 10             	add    $0x10,%esp
  c03a55:	c9                   	leave  
