
objs/bin/test:     file format elf32-i386


Disassembly of section .text:

00c00000 <main>:
  c00000:	8d 4c 24 04          	lea    0x4(%esp),%ecx
  c00004:	83 e4 f0             	and    $0xfffffff0,%esp
  c00007:	ff 71 fc             	pushl  -0x4(%ecx)
  c0000a:	55                   	push   %ebp
  c0000b:	89 e5                	mov    %esp,%ebp
  c0000d:	53                   	push   %ebx
  c0000e:	51                   	push   %ecx
  c0000f:	83 ec 10             	sub    $0x10,%esp
  c00012:	89 cb                	mov    %ecx,%ebx
  c00014:	83 ec 0c             	sub    $0xc,%esp
  c00017:	68 f8 08 c0 00       	push   $0xc008f8
  c0001c:	e8 d7 00 00 00       	call   c000f8 <printf>
  c00021:	83 c4 10             	add    $0x10,%esp
  c00024:	c7 45 f4 00 00 00 00 	movl   $0x0,-0xc(%ebp)
  c0002b:	eb 29                	jmp    c00056 <main+0x56>
  c0002d:	8b 45 f4             	mov    -0xc(%ebp),%eax
  c00030:	8d 14 85 00 00 00 00 	lea    0x0(,%eax,4),%edx
  c00037:	8b 43 04             	mov    0x4(%ebx),%eax
  c0003a:	01 d0                	add    %edx,%eax
  c0003c:	8b 00                	mov    (%eax),%eax
  c0003e:	83 ec 04             	sub    $0x4,%esp
  c00041:	50                   	push   %eax
  c00042:	ff 75 f4             	pushl  -0xc(%ebp)
  c00045:	68 05 09 c0 00       	push   $0xc00905
  c0004a:	e8 a9 00 00 00       	call   c000f8 <printf>
  c0004f:	83 c4 10             	add    $0x10,%esp
  c00052:	83 45 f4 01          	addl   $0x1,-0xc(%ebp)
  c00056:	8b 45 f4             	mov    -0xc(%ebp),%eax
  c00059:	3b 03                	cmp    (%ebx),%eax
  c0005b:	7c d0                	jl     c0002d <main+0x2d>
  c0005d:	83 ec 0c             	sub    $0xc,%esp
  c00060:	68 14 09 c0 00       	push   $0xc00914
  c00065:	e8 8e 00 00 00       	call   c000f8 <printf>
  c0006a:	83 c4 10             	add    $0x10,%esp
  c0006d:	83 ec 0c             	sub    $0xc,%esp
  c00070:	6a 00                	push   $0x0
  c00072:	e8 46 00 00 00       	call   c000bd <exit>
  c00077:	90                   	nop

00c00078 <_start>:
  c00078:	23 25 f0 ff ff ff    	and    0xfffffff0,%esp
  c0007e:	50                   	push   %eax
  c0007f:	51                   	push   %ecx
  c00080:	e8 7b ff ff ff       	call   c00000 <main>
  c00085:	83 c4 08             	add    $0x8,%esp
  c00088:	50                   	push   %eax
  c00089:	e8 2f 00 00 00       	call   c000bd <exit>
  c0008e:	66 90                	xchg   %ax,%ax

00c00090 <_run>:
  c00090:	55                   	push   %ebp
  c00091:	89 e5                	mov    %esp,%ebp
  c00093:	57                   	push   %edi
  c00094:	56                   	push   %esi
  c00095:	53                   	push   %ebx
  c00096:	83 ec 10             	sub    $0x10,%esp
  c00099:	8b 55 10             	mov    0x10(%ebp),%edx
  c0009c:	8b 75 18             	mov    0x18(%ebp),%esi
  c0009f:	8b 7d 14             	mov    0x14(%ebp),%edi
  c000a2:	b8 00 00 00 00       	mov    $0x0,%eax
  c000a7:	8b 5d 08             	mov    0x8(%ebp),%ebx
  c000aa:	8b 4d 0c             	mov    0xc(%ebp),%ecx
  c000ad:	cd 80                	int    $0x80
  c000af:	89 45 f0             	mov    %eax,-0x10(%ebp)
  c000b2:	8b 45 f0             	mov    -0x10(%ebp),%eax
  c000b5:	83 c4 10             	add    $0x10,%esp
  c000b8:	5b                   	pop    %ebx
  c000b9:	5e                   	pop    %esi
  c000ba:	5f                   	pop    %edi
  c000bb:	5d                   	pop    %ebp
  c000bc:	c3                   	ret    

00c000bd <exit>:
  c000bd:	55                   	push   %ebp
  c000be:	89 e5                	mov    %esp,%ebp
  c000c0:	83 ec 10             	sub    $0x10,%esp
  c000c3:	c7 45 f4 00 00 00 00 	movl   $0x0,-0xc(%ebp)
  c000ca:	c7 45 f8 00 00 00 00 	movl   $0x0,-0x8(%ebp)
  c000d1:	c7 45 fc 00 00 00 00 	movl   $0x0,-0x4(%ebp)
  c000d8:	8b 45 08             	mov    0x8(%ebp),%eax
  c000db:	89 45 f4             	mov    %eax,-0xc(%ebp)
  c000de:	ff 75 fc             	pushl  -0x4(%ebp)
  c000e1:	ff 75 f8             	pushl  -0x8(%ebp)
  c000e4:	ff 75 f4             	pushl  -0xc(%ebp)
  c000e7:	6a 03                	push   $0x3
  c000e9:	6a 03                	push   $0x3
  c000eb:	e8 a0 ff ff ff       	call   c00090 <_run>
  c000f0:	83 c4 14             	add    $0x14,%esp
  c000f3:	c9                   	leave  
  c000f4:	c3                   	ret    
  c000f5:	66 90                	xchg   %ax,%ax
  c000f7:	90                   	nop

00c000f8 <printf>:
  c000f8:	55                   	push   %ebp
  c000f9:	89 e5                	mov    %esp,%ebp
  c000fb:	83 ec 18             	sub    $0x18,%esp
  c000fe:	c7 45 f4 00 00 00 00 	movl   $0x0,-0xc(%ebp)
  c00105:	8d 45 0c             	lea    0xc(%ebp),%eax
  c00108:	89 45 f0             	mov    %eax,-0x10(%ebp)
  c0010b:	8b 45 f0             	mov    -0x10(%ebp),%eax
  c0010e:	83 ec 04             	sub    $0x4,%esp
  c00111:	50                   	push   %eax
  c00112:	ff 75 08             	pushl  0x8(%ebp)
  c00115:	68 00 20 c0 00       	push   $0xc02000
  c0011a:	e8 28 04 00 00       	call   c00547 <vsprintf>
  c0011f:	83 c4 10             	add    $0x10,%esp
  c00122:	89 45 f4             	mov    %eax,-0xc(%ebp)
  c00125:	83 ec 04             	sub    $0x4,%esp
  c00128:	ff 75 f4             	pushl  -0xc(%ebp)
  c0012b:	68 00 20 c0 00       	push   $0xc02000
  c00130:	6a 01                	push   $0x1
  c00132:	e8 2a 07 00 00       	call   c00861 <write>
  c00137:	83 c4 10             	add    $0x10,%esp
  c0013a:	89 45 f4             	mov    %eax,-0xc(%ebp)
  c0013d:	8b 45 f4             	mov    -0xc(%ebp),%eax
  c00140:	c9                   	leave  
  c00141:	c3                   	ret    
  c00142:	66 90                	xchg   %ax,%ax

00c00144 <strlen>:
  c00144:	55                   	push   %ebp
  c00145:	89 e5                	mov    %esp,%ebp
  c00147:	57                   	push   %edi
  c00148:	8b 55 08             	mov    0x8(%ebp),%edx
  c0014b:	b8 00 00 00 00       	mov    $0x0,%eax
  c00150:	b9 ff ff ff ff       	mov    $0xffffffff,%ecx
  c00155:	89 d7                	mov    %edx,%edi
  c00157:	fc                   	cld    
  c00158:	f2 ae                	repnz scas %es:(%edi),%al
  c0015a:	f7 d1                	not    %ecx
  c0015c:	49                   	dec    %ecx
  c0015d:	89 c8                	mov    %ecx,%eax
  c0015f:	5f                   	pop    %edi
  c00160:	5d                   	pop    %ebp
  c00161:	c3                   	ret    

00c00162 <memcpy>:
  c00162:	55                   	push   %ebp
  c00163:	89 e5                	mov    %esp,%ebp
  c00165:	57                   	push   %edi
  c00166:	56                   	push   %esi
  c00167:	53                   	push   %ebx
  c00168:	8b 45 10             	mov    0x10(%ebp),%eax
  c0016b:	8b 55 0c             	mov    0xc(%ebp),%edx
  c0016e:	8b 5d 08             	mov    0x8(%ebp),%ebx
  c00171:	89 c1                	mov    %eax,%ecx
  c00173:	89 d6                	mov    %edx,%esi
  c00175:	89 df                	mov    %ebx,%edi
  c00177:	fc                   	cld    
  c00178:	f3 a4                	rep movsb %ds:(%esi),%es:(%edi)
  c0017a:	8b 45 08             	mov    0x8(%ebp),%eax
  c0017d:	5b                   	pop    %ebx
  c0017e:	5e                   	pop    %esi
  c0017f:	5f                   	pop    %edi
  c00180:	5d                   	pop    %ebp
  c00181:	c3                   	ret    

00c00182 <_atoi>:
  c00182:	55                   	push   %ebp
  c00183:	89 e5                	mov    %esp,%ebp
  c00185:	53                   	push   %ebx
  c00186:	83 ec 10             	sub    $0x10,%esp
  c00189:	c7 45 f8 00 00 00 00 	movl   $0x0,-0x8(%ebp)
  c00190:	eb 29                	jmp    c001bb <_atoi+0x39>
  c00192:	8b 55 f8             	mov    -0x8(%ebp),%edx
  c00195:	89 d0                	mov    %edx,%eax
  c00197:	c1 e0 02             	shl    $0x2,%eax
  c0019a:	01 d0                	add    %edx,%eax
  c0019c:	01 c0                	add    %eax,%eax
  c0019e:	89 c3                	mov    %eax,%ebx
  c001a0:	8b 45 08             	mov    0x8(%ebp),%eax
  c001a3:	8b 00                	mov    (%eax),%eax
  c001a5:	8d 48 01             	lea    0x1(%eax),%ecx
  c001a8:	8b 55 08             	mov    0x8(%ebp),%edx
  c001ab:	89 0a                	mov    %ecx,(%edx)
  c001ad:	0f b6 00             	movzbl (%eax),%eax
  c001b0:	0f be c0             	movsbl %al,%eax
  c001b3:	01 d8                	add    %ebx,%eax
  c001b5:	83 e8 30             	sub    $0x30,%eax
  c001b8:	89 45 f8             	mov    %eax,-0x8(%ebp)
  c001bb:	8b 45 08             	mov    0x8(%ebp),%eax
  c001be:	8b 00                	mov    (%eax),%eax
  c001c0:	0f b6 00             	movzbl (%eax),%eax
  c001c3:	3c 2f                	cmp    $0x2f,%al
  c001c5:	7e 0c                	jle    c001d3 <_atoi+0x51>
  c001c7:	8b 45 08             	mov    0x8(%ebp),%eax
  c001ca:	8b 00                	mov    (%eax),%eax
  c001cc:	0f b6 00             	movzbl (%eax),%eax
  c001cf:	3c 39                	cmp    $0x39,%al
  c001d1:	7e bf                	jle    c00192 <_atoi+0x10>
  c001d3:	8b 45 f8             	mov    -0x8(%ebp),%eax
  c001d6:	83 c4 10             	add    $0x10,%esp
  c001d9:	5b                   	pop    %ebx
  c001da:	5d                   	pop    %ebp
  c001db:	c3                   	ret    

00c001dc <_octal>:
  c001dc:	55                   	push   %ebp
  c001dd:	89 e5                	mov    %esp,%ebp
  c001df:	83 ec 10             	sub    $0x10,%esp
  c001e2:	c7 45 fc 00 00 00 00 	movl   $0x0,-0x4(%ebp)
  c001e9:	8b 45 08             	mov    0x8(%ebp),%eax
  c001ec:	8d 50 04             	lea    0x4(%eax),%edx
  c001ef:	89 55 08             	mov    %edx,0x8(%ebp)
  c001f2:	8b 55 0c             	mov    0xc(%ebp),%edx
  c001f5:	83 e2 07             	and    $0x7,%edx
  c001f8:	89 10                	mov    %edx,(%eax)
  c001fa:	c1 6d 0c 03          	shrl   $0x3,0xc(%ebp)
  c001fe:	83 45 fc 01          	addl   $0x1,-0x4(%ebp)
  c00202:	83 7d 0c 00          	cmpl   $0x0,0xc(%ebp)
  c00206:	75 e1                	jne    c001e9 <_octal+0xd>
  c00208:	8b 45 fc             	mov    -0x4(%ebp),%eax
  c0020b:	c9                   	leave  
  c0020c:	c3                   	ret    

00c0020d <_decimal>:
  c0020d:	55                   	push   %ebp
  c0020e:	89 e5                	mov    %esp,%ebp
  c00210:	53                   	push   %ebx
  c00211:	83 ec 10             	sub    $0x10,%esp
  c00214:	c7 45 f8 00 00 00 00 	movl   $0x0,-0x8(%ebp)
  c0021b:	8b 4d 08             	mov    0x8(%ebp),%ecx
  c0021e:	8d 41 04             	lea    0x4(%ecx),%eax
  c00221:	89 45 08             	mov    %eax,0x8(%ebp)
  c00224:	8b 5d 0c             	mov    0xc(%ebp),%ebx
  c00227:	ba cd cc cc cc       	mov    $0xcccccccd,%edx
  c0022c:	89 d8                	mov    %ebx,%eax
  c0022e:	f7 e2                	mul    %edx
  c00230:	c1 ea 03             	shr    $0x3,%edx
  c00233:	89 d0                	mov    %edx,%eax
  c00235:	c1 e0 02             	shl    $0x2,%eax
  c00238:	01 d0                	add    %edx,%eax
  c0023a:	01 c0                	add    %eax,%eax
  c0023c:	29 c3                	sub    %eax,%ebx
  c0023e:	89 da                	mov    %ebx,%edx
  c00240:	89 d0                	mov    %edx,%eax
  c00242:	89 01                	mov    %eax,(%ecx)
  c00244:	8b 45 0c             	mov    0xc(%ebp),%eax
  c00247:	ba cd cc cc cc       	mov    $0xcccccccd,%edx
  c0024c:	f7 e2                	mul    %edx
  c0024e:	89 d0                	mov    %edx,%eax
  c00250:	c1 e8 03             	shr    $0x3,%eax
  c00253:	89 45 0c             	mov    %eax,0xc(%ebp)
  c00256:	83 45 f8 01          	addl   $0x1,-0x8(%ebp)
  c0025a:	83 7d 0c 00          	cmpl   $0x0,0xc(%ebp)
  c0025e:	75 bb                	jne    c0021b <_decimal+0xe>
  c00260:	8b 45 f8             	mov    -0x8(%ebp),%eax
  c00263:	83 c4 10             	add    $0x10,%esp
  c00266:	5b                   	pop    %ebx
  c00267:	5d                   	pop    %ebp
  c00268:	c3                   	ret    

00c00269 <_hex>:
  c00269:	55                   	push   %ebp
  c0026a:	89 e5                	mov    %esp,%ebp
  c0026c:	83 ec 10             	sub    $0x10,%esp
  c0026f:	c7 45 fc 00 00 00 00 	movl   $0x0,-0x4(%ebp)
  c00276:	8b 45 08             	mov    0x8(%ebp),%eax
  c00279:	8d 50 04             	lea    0x4(%eax),%edx
  c0027c:	89 55 08             	mov    %edx,0x8(%ebp)
  c0027f:	8b 55 0c             	mov    0xc(%ebp),%edx
  c00282:	83 e2 0f             	and    $0xf,%edx
  c00285:	89 10                	mov    %edx,(%eax)
  c00287:	c1 6d 0c 04          	shrl   $0x4,0xc(%ebp)
  c0028b:	83 45 fc 01          	addl   $0x1,-0x4(%ebp)
  c0028f:	83 7d 0c 00          	cmpl   $0x0,0xc(%ebp)
  c00293:	75 e1                	jne    c00276 <_hex+0xd>
  c00295:	8b 45 fc             	mov    -0x4(%ebp),%eax
  c00298:	c9                   	leave  
  c00299:	c3                   	ret    

00c0029a <_toNumber>:
  c0029a:	55                   	push   %ebp
  c0029b:	89 e5                	mov    %esp,%ebp
  c0029d:	81 ec 18 01 00 00    	sub    $0x118,%esp
  c002a3:	8b 45 0c             	mov    0xc(%ebp),%eax
  c002a6:	89 85 e8 fe ff ff    	mov    %eax,-0x118(%ebp)
  c002ac:	8b 45 10             	mov    0x10(%ebp),%eax
  c002af:	89 85 ec fe ff ff    	mov    %eax,-0x114(%ebp)
  c002b5:	c6 45 ff 2b          	movb   $0x2b,-0x1(%ebp)
  c002b9:	c7 45 f8 24 09 c0 00 	movl   $0xc00924,-0x8(%ebp)
  c002c0:	c7 45 f4 00 00 00 00 	movl   $0x0,-0xc(%ebp)
  c002c7:	8b 45 20             	mov    0x20(%ebp),%eax
  c002ca:	83 e0 10             	and    $0x10,%eax
  c002cd:	85 c0                	test   %eax,%eax
  c002cf:	74 07                	je     c002d8 <_toNumber+0x3e>
  c002d1:	c7 45 f8 3c 09 c0 00 	movl   $0xc0093c,-0x8(%ebp)
  c002d8:	8b 45 20             	mov    0x20(%ebp),%eax
  c002db:	83 e0 01             	and    $0x1,%eax
  c002de:	85 c0                	test   %eax,%eax
  c002e0:	74 04                	je     c002e6 <_toNumber+0x4c>
  c002e2:	83 65 20 f7          	andl   $0xfffffff7,0x20(%ebp)
  c002e6:	83 7d 18 0a          	cmpl   $0xa,0x18(%ebp)
  c002ea:	74 0d                	je     c002f9 <_toNumber+0x5f>
  c002ec:	c7 45 14 00 00 00 00 	movl   $0x0,0x14(%ebp)
  c002f3:	83 65 20 fd          	andl   $0xfffffffd,0x20(%ebp)
  c002f7:	eb 04                	jmp    c002fd <_toNumber+0x63>
  c002f9:	83 65 20 fb          	andl   $0xfffffffb,0x20(%ebp)
  c002fd:	8b 45 20             	mov    0x20(%ebp),%eax
  c00300:	83 e0 04             	and    $0x4,%eax
  c00303:	85 c0                	test   %eax,%eax
  c00305:	74 16                	je     c0031d <_toNumber+0x83>
  c00307:	83 7d 18 10          	cmpl   $0x10,0x18(%ebp)
  c0030b:	75 06                	jne    c00313 <_toNumber+0x79>
  c0030d:	83 6d 1c 02          	subl   $0x2,0x1c(%ebp)
  c00311:	eb 0a                	jmp    c0031d <_toNumber+0x83>
  c00313:	83 7d 18 08          	cmpl   $0x8,0x18(%ebp)
  c00317:	75 04                	jne    c0031d <_toNumber+0x83>
  c00319:	83 6d 1c 01          	subl   $0x1,0x1c(%ebp)
  c0031d:	83 7d 14 01          	cmpl   $0x1,0x14(%ebp)
  c00321:	75 2b                	jne    c0034e <_toNumber+0xb4>
  c00323:	8b 85 e8 fe ff ff    	mov    -0x118(%ebp),%eax
  c00329:	8b 95 ec fe ff ff    	mov    -0x114(%ebp),%edx
  c0032f:	85 d2                	test   %edx,%edx
  c00331:	79 1b                	jns    c0034e <_toNumber+0xb4>
  c00333:	83 4d 20 02          	orl    $0x2,0x20(%ebp)
  c00337:	f7 9d e8 fe ff ff    	negl   -0x118(%ebp)
  c0033d:	83 95 ec fe ff ff 00 	adcl   $0x0,-0x114(%ebp)
  c00344:	f7 9d ec fe ff ff    	negl   -0x114(%ebp)
  c0034a:	c6 45 ff 2d          	movb   $0x2d,-0x1(%ebp)
  c0034e:	8b 45 24             	mov    0x24(%ebp),%eax
  c00351:	99                   	cltd   
  c00352:	21 85 e8 fe ff ff    	and    %eax,-0x118(%ebp)
  c00358:	21 95 ec fe ff ff    	and    %edx,-0x114(%ebp)
  c0035e:	8b 45 20             	mov    0x20(%ebp),%eax
  c00361:	83 e0 02             	and    $0x2,%eax
  c00364:	85 c0                	test   %eax,%eax
  c00366:	74 04                	je     c0036c <_toNumber+0xd2>
  c00368:	83 6d 1c 01          	subl   $0x1,0x1c(%ebp)
  c0036c:	8b 45 18             	mov    0x18(%ebp),%eax
  c0036f:	83 f8 0a             	cmp    $0xa,%eax
  c00372:	74 25                	je     c00399 <_toNumber+0xff>
  c00374:	83 f8 10             	cmp    $0x10,%eax
  c00377:	74 3b                	je     c003b4 <_toNumber+0x11a>
  c00379:	83 f8 08             	cmp    $0x8,%eax
  c0037c:	75 50                	jne    c003ce <_toNumber+0x134>
  c0037e:	8b 85 e8 fe ff ff    	mov    -0x118(%ebp),%eax
  c00384:	50                   	push   %eax
  c00385:	8d 85 f4 fe ff ff    	lea    -0x10c(%ebp),%eax
  c0038b:	50                   	push   %eax
  c0038c:	e8 4b fe ff ff       	call   c001dc <_octal>
  c00391:	83 c4 08             	add    $0x8,%esp
  c00394:	89 45 f4             	mov    %eax,-0xc(%ebp)
  c00397:	eb 35                	jmp    c003ce <_toNumber+0x134>
  c00399:	8b 85 e8 fe ff ff    	mov    -0x118(%ebp),%eax
  c0039f:	50                   	push   %eax
  c003a0:	8d 85 f4 fe ff ff    	lea    -0x10c(%ebp),%eax
  c003a6:	50                   	push   %eax
  c003a7:	e8 61 fe ff ff       	call   c0020d <_decimal>
  c003ac:	83 c4 08             	add    $0x8,%esp
  c003af:	89 45 f4             	mov    %eax,-0xc(%ebp)
  c003b2:	eb 1a                	jmp    c003ce <_toNumber+0x134>
  c003b4:	8b 85 e8 fe ff ff    	mov    -0x118(%ebp),%eax
  c003ba:	50                   	push   %eax
  c003bb:	8d 85 f4 fe ff ff    	lea    -0x10c(%ebp),%eax
  c003c1:	50                   	push   %eax
  c003c2:	e8 a2 fe ff ff       	call   c00269 <_hex>
  c003c7:	83 c4 08             	add    $0x8,%esp
  c003ca:	89 45 f4             	mov    %eax,-0xc(%ebp)
  c003cd:	90                   	nop
  c003ce:	8b 45 f4             	mov    -0xc(%ebp),%eax
  c003d1:	29 45 1c             	sub    %eax,0x1c(%ebp)
  c003d4:	8b 45 20             	mov    0x20(%ebp),%eax
  c003d7:	83 e0 09             	and    $0x9,%eax
  c003da:	85 c0                	test   %eax,%eax
  c003dc:	75 1b                	jne    c003f9 <_toNumber+0x15f>
  c003de:	eb 0c                	jmp    c003ec <_toNumber+0x152>
  c003e0:	8b 45 08             	mov    0x8(%ebp),%eax
  c003e3:	8d 50 01             	lea    0x1(%eax),%edx
  c003e6:	89 55 08             	mov    %edx,0x8(%ebp)
  c003e9:	c6 00 20             	movb   $0x20,(%eax)
  c003ec:	8b 45 1c             	mov    0x1c(%ebp),%eax
  c003ef:	8d 50 ff             	lea    -0x1(%eax),%edx
  c003f2:	89 55 1c             	mov    %edx,0x1c(%ebp)
  c003f5:	85 c0                	test   %eax,%eax
  c003f7:	7f e7                	jg     c003e0 <_toNumber+0x146>
  c003f9:	8b 45 20             	mov    0x20(%ebp),%eax
  c003fc:	83 e0 02             	and    $0x2,%eax
  c003ff:	85 c0                	test   %eax,%eax
  c00401:	74 0f                	je     c00412 <_toNumber+0x178>
  c00403:	8b 45 08             	mov    0x8(%ebp),%eax
  c00406:	8d 50 01             	lea    0x1(%eax),%edx
  c00409:	89 55 08             	mov    %edx,0x8(%ebp)
  c0040c:	0f b6 55 ff          	movzbl -0x1(%ebp),%edx
  c00410:	88 10                	mov    %dl,(%eax)
  c00412:	8b 45 20             	mov    0x20(%ebp),%eax
  c00415:	83 e0 04             	and    $0x4,%eax
  c00418:	85 c0                	test   %eax,%eax
  c0041a:	74 24                	je     c00440 <_toNumber+0x1a6>
  c0041c:	8b 45 08             	mov    0x8(%ebp),%eax
  c0041f:	8d 50 01             	lea    0x1(%eax),%edx
  c00422:	89 55 08             	mov    %edx,0x8(%ebp)
  c00425:	c6 00 30             	movb   $0x30,(%eax)
  c00428:	83 7d 18 10          	cmpl   $0x10,0x18(%ebp)
  c0042c:	75 12                	jne    c00440 <_toNumber+0x1a6>
  c0042e:	8b 45 08             	mov    0x8(%ebp),%eax
  c00431:	8d 50 01             	lea    0x1(%eax),%edx
  c00434:	89 55 08             	mov    %edx,0x8(%ebp)
  c00437:	8b 55 f8             	mov    -0x8(%ebp),%edx
  c0043a:	0f b6 52 10          	movzbl 0x10(%edx),%edx
  c0043e:	88 10                	mov    %dl,(%eax)
  c00440:	8b 45 20             	mov    0x20(%ebp),%eax
  c00443:	83 e0 08             	and    $0x8,%eax
  c00446:	85 c0                	test   %eax,%eax
  c00448:	74 1b                	je     c00465 <_toNumber+0x1cb>
  c0044a:	eb 0c                	jmp    c00458 <_toNumber+0x1be>
  c0044c:	8b 45 08             	mov    0x8(%ebp),%eax
  c0044f:	8d 50 01             	lea    0x1(%eax),%edx
  c00452:	89 55 08             	mov    %edx,0x8(%ebp)
  c00455:	c6 00 30             	movb   $0x30,(%eax)
  c00458:	8b 45 1c             	mov    0x1c(%ebp),%eax
  c0045b:	8d 50 ff             	lea    -0x1(%eax),%edx
  c0045e:	89 55 1c             	mov    %edx,0x1c(%ebp)
  c00461:	85 c0                	test   %eax,%eax
  c00463:	7f e7                	jg     c0044c <_toNumber+0x1b2>
  c00465:	eb 1f                	jmp    c00486 <_toNumber+0x1ec>
  c00467:	8b 45 08             	mov    0x8(%ebp),%eax
  c0046a:	8d 50 01             	lea    0x1(%eax),%edx
  c0046d:	89 55 08             	mov    %edx,0x8(%ebp)
  c00470:	8b 55 f4             	mov    -0xc(%ebp),%edx
  c00473:	8b 94 95 f4 fe ff ff 	mov    -0x10c(%ebp,%edx,4),%edx
  c0047a:	89 d1                	mov    %edx,%ecx
  c0047c:	8b 55 f8             	mov    -0x8(%ebp),%edx
  c0047f:	01 ca                	add    %ecx,%edx
  c00481:	0f b6 12             	movzbl (%edx),%edx
  c00484:	88 10                	mov    %dl,(%eax)
  c00486:	8b 45 f4             	mov    -0xc(%ebp),%eax
  c00489:	8d 50 ff             	lea    -0x1(%eax),%edx
  c0048c:	89 55 f4             	mov    %edx,-0xc(%ebp)
  c0048f:	85 c0                	test   %eax,%eax
  c00491:	7f d4                	jg     c00467 <_toNumber+0x1cd>
  c00493:	8b 45 20             	mov    0x20(%ebp),%eax
  c00496:	83 e0 01             	and    $0x1,%eax
  c00499:	85 c0                	test   %eax,%eax
  c0049b:	74 1b                	je     c004b8 <_toNumber+0x21e>
  c0049d:	eb 0c                	jmp    c004ab <_toNumber+0x211>
  c0049f:	8b 45 08             	mov    0x8(%ebp),%eax
  c004a2:	8d 50 01             	lea    0x1(%eax),%edx
  c004a5:	89 55 08             	mov    %edx,0x8(%ebp)
  c004a8:	c6 00 20             	movb   $0x20,(%eax)
  c004ab:	8b 45 1c             	mov    0x1c(%ebp),%eax
  c004ae:	8d 50 ff             	lea    -0x1(%eax),%edx
  c004b1:	89 55 1c             	mov    %edx,0x1c(%ebp)
  c004b4:	85 c0                	test   %eax,%eax
  c004b6:	7f e7                	jg     c0049f <_toNumber+0x205>
  c004b8:	8b 45 08             	mov    0x8(%ebp),%eax
  c004bb:	c9                   	leave  
  c004bc:	c3                   	ret    

00c004bd <_toString>:
  c004bd:	55                   	push   %ebp
  c004be:	89 e5                	mov    %esp,%ebp
  c004c0:	83 ec 10             	sub    $0x10,%esp
  c004c3:	ff 75 0c             	pushl  0xc(%ebp)
  c004c6:	e8 79 fc ff ff       	call   c00144 <strlen>
  c004cb:	83 c4 04             	add    $0x4,%esp
  c004ce:	89 45 f0             	mov    %eax,-0x10(%ebp)
  c004d1:	8b 45 08             	mov    0x8(%ebp),%eax
  c004d4:	89 45 fc             	mov    %eax,-0x4(%ebp)
  c004d7:	8b 45 08             	mov    0x8(%ebp),%eax
  c004da:	89 45 f8             	mov    %eax,-0x8(%ebp)
  c004dd:	8b 45 14             	mov    0x14(%ebp),%eax
  c004e0:	83 e0 01             	and    $0x1,%eax
  c004e3:	85 c0                	test   %eax,%eax
  c004e5:	74 0d                	je     c004f4 <_toString+0x37>
  c004e7:	8b 55 f0             	mov    -0x10(%ebp),%edx
  c004ea:	8b 45 08             	mov    0x8(%ebp),%eax
  c004ed:	01 d0                	add    %edx,%eax
  c004ef:	89 45 fc             	mov    %eax,-0x4(%ebp)
  c004f2:	eb 0b                	jmp    c004ff <_toString+0x42>
  c004f4:	8b 55 f0             	mov    -0x10(%ebp),%edx
  c004f7:	8b 45 08             	mov    0x8(%ebp),%eax
  c004fa:	01 d0                	add    %edx,%eax
  c004fc:	89 45 f8             	mov    %eax,-0x8(%ebp)
  c004ff:	ff 75 f0             	pushl  -0x10(%ebp)
  c00502:	ff 75 0c             	pushl  0xc(%ebp)
  c00505:	ff 75 fc             	pushl  -0x4(%ebp)
  c00508:	e8 55 fc ff ff       	call   c00162 <memcpy>
  c0050d:	83 c4 0c             	add    $0xc,%esp
  c00510:	c7 45 f4 00 00 00 00 	movl   $0x0,-0xc(%ebp)
  c00517:	eb 10                	jmp    c00529 <_toString+0x6c>
  c00519:	8b 45 f8             	mov    -0x8(%ebp),%eax
  c0051c:	8d 50 01             	lea    0x1(%eax),%edx
  c0051f:	89 55 f8             	mov    %edx,-0x8(%ebp)
  c00522:	c6 00 20             	movb   $0x20,(%eax)
  c00525:	83 45 f4 01          	addl   $0x1,-0xc(%ebp)
  c00529:	8b 45 10             	mov    0x10(%ebp),%eax
  c0052c:	2b 45 f0             	sub    -0x10(%ebp),%eax
  c0052f:	3b 45 f4             	cmp    -0xc(%ebp),%eax
  c00532:	7f e5                	jg     c00519 <_toString+0x5c>
  c00534:	8b 45 f0             	mov    -0x10(%ebp),%eax
  c00537:	39 45 10             	cmp    %eax,0x10(%ebp)
  c0053a:	0f 4d 45 10          	cmovge 0x10(%ebp),%eax
  c0053e:	89 c2                	mov    %eax,%edx
  c00540:	8b 45 08             	mov    0x8(%ebp),%eax
  c00543:	01 d0                	add    %edx,%eax
  c00545:	c9                   	leave  
  c00546:	c3                   	ret    

00c00547 <vsprintf>:
  c00547:	55                   	push   %ebp
  c00548:	89 e5                	mov    %esp,%ebp
  c0054a:	83 ec 30             	sub    $0x30,%esp
  c0054d:	c7 45 fc 00 00 00 00 	movl   $0x0,-0x4(%ebp)
  c00554:	c7 45 f8 00 00 00 00 	movl   $0x0,-0x8(%ebp)
  c0055b:	c7 45 dc 00 00 00 00 	movl   $0x0,-0x24(%ebp)
  c00562:	c7 45 f4 01 00 00 00 	movl   $0x1,-0xc(%ebp)
  c00569:	c7 45 f0 0a 00 00 00 	movl   $0xa,-0x10(%ebp)
  c00570:	c7 45 e4 6c 00 00 00 	movl   $0x6c,-0x1c(%ebp)
  c00577:	8b 45 08             	mov    0x8(%ebp),%eax
  c0057a:	89 45 ec             	mov    %eax,-0x14(%ebp)
  c0057d:	e9 69 02 00 00       	jmp    c007eb <vsprintf+0x2a4>
  c00582:	8b 45 0c             	mov    0xc(%ebp),%eax
  c00585:	0f b6 00             	movzbl (%eax),%eax
  c00588:	3c 25                	cmp    $0x25,%al
  c0058a:	0f 85 41 02 00 00    	jne    c007d1 <vsprintf+0x28a>
  c00590:	c7 45 fc 00 00 00 00 	movl   $0x0,-0x4(%ebp)
  c00597:	c7 45 f4 00 00 00 00 	movl   $0x0,-0xc(%ebp)
  c0059e:	c7 45 f8 00 00 00 00 	movl   $0x0,-0x8(%ebp)
  c005a5:	c7 45 e4 6c 00 00 00 	movl   $0x6c,-0x1c(%ebp)
  c005ac:	8b 45 0c             	mov    0xc(%ebp),%eax
  c005af:	83 c0 01             	add    $0x1,%eax
  c005b2:	89 45 0c             	mov    %eax,0xc(%ebp)
  c005b5:	8b 45 0c             	mov    0xc(%ebp),%eax
  c005b8:	0f b6 00             	movzbl (%eax),%eax
  c005bb:	0f be c0             	movsbl %al,%eax
  c005be:	83 e8 20             	sub    $0x20,%eax
  c005c1:	83 f8 10             	cmp    $0x10,%eax
  c005c4:	77 27                	ja     c005ed <vsprintf+0xa6>
  c005c6:	8b 04 85 5c 09 c0 00 	mov    0xc0095c(,%eax,4),%eax
  c005cd:	ff e0                	jmp    *%eax
  c005cf:	83 4d fc 01          	orl    $0x1,-0x4(%ebp)
  c005d3:	eb d7                	jmp    c005ac <vsprintf+0x65>
  c005d5:	83 4d fc 02          	orl    $0x2,-0x4(%ebp)
  c005d9:	eb d1                	jmp    c005ac <vsprintf+0x65>
  c005db:	83 4d fc 02          	orl    $0x2,-0x4(%ebp)
  c005df:	eb cb                	jmp    c005ac <vsprintf+0x65>
  c005e1:	83 4d fc 08          	orl    $0x8,-0x4(%ebp)
  c005e5:	eb c5                	jmp    c005ac <vsprintf+0x65>
  c005e7:	83 4d fc 04          	orl    $0x4,-0x4(%ebp)
  c005eb:	eb bf                	jmp    c005ac <vsprintf+0x65>
  c005ed:	8b 45 0c             	mov    0xc(%ebp),%eax
  c005f0:	0f b6 00             	movzbl (%eax),%eax
  c005f3:	3c 2f                	cmp    $0x2f,%al
  c005f5:	7e 1b                	jle    c00612 <vsprintf+0xcb>
  c005f7:	8b 45 0c             	mov    0xc(%ebp),%eax
  c005fa:	0f b6 00             	movzbl (%eax),%eax
  c005fd:	3c 39                	cmp    $0x39,%al
  c005ff:	7f 11                	jg     c00612 <vsprintf+0xcb>
  c00601:	8d 45 0c             	lea    0xc(%ebp),%eax
  c00604:	50                   	push   %eax
  c00605:	e8 78 fb ff ff       	call   c00182 <_atoi>
  c0060a:	83 c4 04             	add    $0x4,%esp
  c0060d:	89 45 f8             	mov    %eax,-0x8(%ebp)
  c00610:	eb 21                	jmp    c00633 <vsprintf+0xec>
  c00612:	8b 45 0c             	mov    0xc(%ebp),%eax
  c00615:	0f b6 00             	movzbl (%eax),%eax
  c00618:	3c 2a                	cmp    $0x2a,%al
  c0061a:	75 17                	jne    c00633 <vsprintf+0xec>
  c0061c:	8b 45 0c             	mov    0xc(%ebp),%eax
  c0061f:	83 c0 01             	add    $0x1,%eax
  c00622:	89 45 0c             	mov    %eax,0xc(%ebp)
  c00625:	8b 45 10             	mov    0x10(%ebp),%eax
  c00628:	8d 50 04             	lea    0x4(%eax),%edx
  c0062b:	89 55 10             	mov    %edx,0x10(%ebp)
  c0062e:	8b 00                	mov    (%eax),%eax
  c00630:	89 45 f8             	mov    %eax,-0x8(%ebp)
  c00633:	8b 45 0c             	mov    0xc(%ebp),%eax
  c00636:	0f b6 00             	movzbl (%eax),%eax
  c00639:	3c 68                	cmp    $0x68,%al
  c0063b:	74 1e                	je     c0065b <vsprintf+0x114>
  c0063d:	8b 45 0c             	mov    0xc(%ebp),%eax
  c00640:	0f b6 00             	movzbl (%eax),%eax
  c00643:	3c 6c                	cmp    $0x6c,%al
  c00645:	74 14                	je     c0065b <vsprintf+0x114>
  c00647:	8b 45 0c             	mov    0xc(%ebp),%eax
  c0064a:	0f b6 00             	movzbl (%eax),%eax
  c0064d:	3c 4c                	cmp    $0x4c,%al
  c0064f:	74 0a                	je     c0065b <vsprintf+0x114>
  c00651:	8b 45 0c             	mov    0xc(%ebp),%eax
  c00654:	0f b6 00             	movzbl (%eax),%eax
  c00657:	3c 48                	cmp    $0x48,%al
  c00659:	75 15                	jne    c00670 <vsprintf+0x129>
  c0065b:	8b 45 0c             	mov    0xc(%ebp),%eax
  c0065e:	0f b6 00             	movzbl (%eax),%eax
  c00661:	0f be c0             	movsbl %al,%eax
  c00664:	89 45 e4             	mov    %eax,-0x1c(%ebp)
  c00667:	8b 45 0c             	mov    0xc(%ebp),%eax
  c0066a:	83 c0 01             	add    $0x1,%eax
  c0066d:	89 45 0c             	mov    %eax,0xc(%ebp)
  c00670:	8b 45 0c             	mov    0xc(%ebp),%eax
  c00673:	0f b6 00             	movzbl (%eax),%eax
  c00676:	0f be c0             	movsbl %al,%eax
  c00679:	83 e8 58             	sub    $0x58,%eax
  c0067c:	83 f8 20             	cmp    $0x20,%eax
  c0067f:	77 57                	ja     c006d8 <vsprintf+0x191>
  c00681:	8b 04 85 a0 09 c0 00 	mov    0xc009a0(,%eax,4),%eax
  c00688:	ff e0                	jmp    *%eax
  c0068a:	8b 45 ec             	mov    -0x14(%ebp),%eax
  c0068d:	8d 50 01             	lea    0x1(%eax),%edx
  c00690:	89 55 ec             	mov    %edx,-0x14(%ebp)
  c00693:	8b 55 10             	mov    0x10(%ebp),%edx
  c00696:	8d 4a 04             	lea    0x4(%edx),%ecx
  c00699:	89 4d 10             	mov    %ecx,0x10(%ebp)
  c0069c:	8b 12                	mov    (%edx),%edx
  c0069e:	88 10                	mov    %dl,(%eax)
  c006a0:	e9 3d 01 00 00       	jmp    c007e2 <vsprintf+0x29b>
  c006a5:	c7 45 e4 73 00 00 00 	movl   $0x73,-0x1c(%ebp)
  c006ac:	eb 50                	jmp    c006fe <vsprintf+0x1b7>
  c006ae:	83 4d fc 04          	orl    $0x4,-0x4(%ebp)
  c006b2:	83 4d fc 10          	orl    $0x10,-0x4(%ebp)
  c006b6:	c7 45 f0 10 00 00 00 	movl   $0x10,-0x10(%ebp)
  c006bd:	eb 3f                	jmp    c006fe <vsprintf+0x1b7>
  c006bf:	c7 45 f0 0a 00 00 00 	movl   $0xa,-0x10(%ebp)
  c006c6:	c7 45 f4 01 00 00 00 	movl   $0x1,-0xc(%ebp)
  c006cd:	eb 2e                	jmp    c006fd <vsprintf+0x1b6>
  c006cf:	c7 45 f0 08 00 00 00 	movl   $0x8,-0x10(%ebp)
  c006d6:	eb 26                	jmp    c006fe <vsprintf+0x1b7>
  c006d8:	8b 45 0c             	mov    0xc(%ebp),%eax
  c006db:	0f b6 00             	movzbl (%eax),%eax
  c006de:	84 c0                	test   %al,%al
  c006e0:	74 16                	je     c006f8 <vsprintf+0x1b1>
  c006e2:	8b 45 ec             	mov    -0x14(%ebp),%eax
  c006e5:	8d 50 01             	lea    0x1(%eax),%edx
  c006e8:	89 55 ec             	mov    %edx,-0x14(%ebp)
  c006eb:	8b 55 0c             	mov    0xc(%ebp),%edx
  c006ee:	0f b6 12             	movzbl (%edx),%edx
  c006f1:	88 10                	mov    %dl,(%eax)
  c006f3:	e9 ea 00 00 00       	jmp    c007e2 <vsprintf+0x29b>
  c006f8:	e9 e5 00 00 00       	jmp    c007e2 <vsprintf+0x29b>
  c006fd:	90                   	nop
  c006fe:	c7 45 e0 ff ff ff ff 	movl   $0xffffffff,-0x20(%ebp)
  c00705:	8b 45 e4             	mov    -0x1c(%ebp),%eax
  c00708:	83 e8 48             	sub    $0x48,%eax
  c0070b:	83 f8 2b             	cmp    $0x2b,%eax
  c0070e:	0f 87 ce 00 00 00    	ja     c007e2 <vsprintf+0x29b>
  c00714:	8b 04 85 24 0a c0 00 	mov    0xc00a24(,%eax,4),%eax
  c0071b:	ff e0                	jmp    *%eax
  c0071d:	c7 45 e0 ff 00 00 00 	movl   $0xff,-0x20(%ebp)
  c00724:	81 65 e0 ff ff 00 00 	andl   $0xffff,-0x20(%ebp)
  c0072b:	8b 45 10             	mov    0x10(%ebp),%eax
  c0072e:	8d 50 04             	lea    0x4(%eax),%edx
  c00731:	89 55 10             	mov    %edx,0x10(%ebp)
  c00734:	8b 00                	mov    (%eax),%eax
  c00736:	89 45 dc             	mov    %eax,-0x24(%ebp)
  c00739:	8b 45 dc             	mov    -0x24(%ebp),%eax
  c0073c:	ba 00 00 00 00       	mov    $0x0,%edx
  c00741:	ff 75 e0             	pushl  -0x20(%ebp)
  c00744:	ff 75 fc             	pushl  -0x4(%ebp)
  c00747:	ff 75 f8             	pushl  -0x8(%ebp)
  c0074a:	ff 75 f0             	pushl  -0x10(%ebp)
  c0074d:	ff 75 f4             	pushl  -0xc(%ebp)
  c00750:	52                   	push   %edx
  c00751:	50                   	push   %eax
  c00752:	ff 75 ec             	pushl  -0x14(%ebp)
  c00755:	e8 40 fb ff ff       	call   c0029a <_toNumber>
  c0075a:	83 c4 20             	add    $0x20,%esp
  c0075d:	89 45 ec             	mov    %eax,-0x14(%ebp)
  c00760:	eb 6d                	jmp    c007cf <vsprintf+0x288>
  c00762:	8b 45 10             	mov    0x10(%ebp),%eax
  c00765:	8d 50 08             	lea    0x8(%eax),%edx
  c00768:	89 55 10             	mov    %edx,0x10(%ebp)
  c0076b:	8b 50 04             	mov    0x4(%eax),%edx
  c0076e:	8b 00                	mov    (%eax),%eax
  c00770:	89 45 dc             	mov    %eax,-0x24(%ebp)
  c00773:	8b 45 dc             	mov    -0x24(%ebp),%eax
  c00776:	ba 00 00 00 00       	mov    $0x0,%edx
  c0077b:	ff 75 e0             	pushl  -0x20(%ebp)
  c0077e:	ff 75 fc             	pushl  -0x4(%ebp)
  c00781:	ff 75 f8             	pushl  -0x8(%ebp)
  c00784:	ff 75 f0             	pushl  -0x10(%ebp)
  c00787:	ff 75 f4             	pushl  -0xc(%ebp)
  c0078a:	52                   	push   %edx
  c0078b:	50                   	push   %eax
  c0078c:	ff 75 ec             	pushl  -0x14(%ebp)
  c0078f:	e8 06 fb ff ff       	call   c0029a <_toNumber>
  c00794:	83 c4 20             	add    $0x20,%esp
  c00797:	89 45 ec             	mov    %eax,-0x14(%ebp)
  c0079a:	eb 33                	jmp    c007cf <vsprintf+0x288>
  c0079c:	8b 45 10             	mov    0x10(%ebp),%eax
  c0079f:	8d 50 04             	lea    0x4(%eax),%edx
  c007a2:	89 55 10             	mov    %edx,0x10(%ebp)
  c007a5:	8b 00                	mov    (%eax),%eax
  c007a7:	89 45 e8             	mov    %eax,-0x18(%ebp)
  c007aa:	83 7d e8 00          	cmpl   $0x0,-0x18(%ebp)
  c007ae:	75 07                	jne    c007b7 <vsprintf+0x270>
  c007b0:	c7 45 e8 54 09 c0 00 	movl   $0xc00954,-0x18(%ebp)
  c007b7:	ff 75 fc             	pushl  -0x4(%ebp)
  c007ba:	ff 75 f8             	pushl  -0x8(%ebp)
  c007bd:	ff 75 e8             	pushl  -0x18(%ebp)
  c007c0:	ff 75 ec             	pushl  -0x14(%ebp)
  c007c3:	e8 f5 fc ff ff       	call   c004bd <_toString>
  c007c8:	83 c4 10             	add    $0x10,%esp
  c007cb:	89 45 ec             	mov    %eax,-0x14(%ebp)
  c007ce:	90                   	nop
  c007cf:	eb 11                	jmp    c007e2 <vsprintf+0x29b>
  c007d1:	8b 45 ec             	mov    -0x14(%ebp),%eax
  c007d4:	8d 50 01             	lea    0x1(%eax),%edx
  c007d7:	89 55 ec             	mov    %edx,-0x14(%ebp)
  c007da:	8b 55 0c             	mov    0xc(%ebp),%edx
  c007dd:	0f b6 12             	movzbl (%edx),%edx
  c007e0:	88 10                	mov    %dl,(%eax)
  c007e2:	8b 45 0c             	mov    0xc(%ebp),%eax
  c007e5:	83 c0 01             	add    $0x1,%eax
  c007e8:	89 45 0c             	mov    %eax,0xc(%ebp)
  c007eb:	8b 45 0c             	mov    0xc(%ebp),%eax
  c007ee:	0f b6 00             	movzbl (%eax),%eax
  c007f1:	84 c0                	test   %al,%al
  c007f3:	0f 85 89 fd ff ff    	jne    c00582 <vsprintf+0x3b>
  c007f9:	8b 45 ec             	mov    -0x14(%ebp),%eax
  c007fc:	c6 00 00             	movb   $0x0,(%eax)
  c007ff:	8b 55 ec             	mov    -0x14(%ebp),%edx
  c00802:	8b 45 08             	mov    0x8(%ebp),%eax
  c00805:	29 c2                	sub    %eax,%edx
  c00807:	89 d0                	mov    %edx,%eax
  c00809:	c9                   	leave  
  c0080a:	c3                   	ret    

00c0080b <sprintf>:
  c0080b:	55                   	push   %ebp
  c0080c:	89 e5                	mov    %esp,%ebp
  c0080e:	83 ec 10             	sub    $0x10,%esp
  c00811:	8d 45 10             	lea    0x10(%ebp),%eax
  c00814:	89 45 f8             	mov    %eax,-0x8(%ebp)
  c00817:	8b 45 f8             	mov    -0x8(%ebp),%eax
  c0081a:	83 ec 04             	sub    $0x4,%esp
  c0081d:	50                   	push   %eax
  c0081e:	ff 75 0c             	pushl  0xc(%ebp)
  c00821:	ff 75 08             	pushl  0x8(%ebp)
  c00824:	e8 1e fd ff ff       	call   c00547 <vsprintf>
  c00829:	83 c4 10             	add    $0x10,%esp
  c0082c:	89 45 fc             	mov    %eax,-0x4(%ebp)
  c0082f:	8b 45 fc             	mov    -0x4(%ebp),%eax
  c00832:	c9                   	leave  
  c00833:	c3                   	ret    

00c00834 <_run>:
  c00834:	55                   	push   %ebp
  c00835:	89 e5                	mov    %esp,%ebp
  c00837:	57                   	push   %edi
  c00838:	56                   	push   %esi
  c00839:	53                   	push   %ebx
  c0083a:	83 ec 10             	sub    $0x10,%esp
  c0083d:	8b 55 10             	mov    0x10(%ebp),%edx
  c00840:	8b 75 18             	mov    0x18(%ebp),%esi
  c00843:	8b 7d 14             	mov    0x14(%ebp),%edi
  c00846:	b8 00 00 00 00       	mov    $0x0,%eax
  c0084b:	8b 5d 08             	mov    0x8(%ebp),%ebx
  c0084e:	8b 4d 0c             	mov    0xc(%ebp),%ecx
  c00851:	cd 80                	int    $0x80
  c00853:	89 45 f0             	mov    %eax,-0x10(%ebp)
  c00856:	8b 45 f0             	mov    -0x10(%ebp),%eax
  c00859:	83 c4 10             	add    $0x10,%esp
  c0085c:	5b                   	pop    %ebx
  c0085d:	5e                   	pop    %esi
  c0085e:	5f                   	pop    %edi
  c0085f:	5d                   	pop    %ebp
  c00860:	c3                   	ret    

00c00861 <write>:
  c00861:	55                   	push   %ebp
  c00862:	89 e5                	mov    %esp,%ebp
  c00864:	57                   	push   %edi
  c00865:	56                   	push   %esi
  c00866:	53                   	push   %ebx
  c00867:	83 ec 20             	sub    $0x20,%esp
  c0086a:	b8 04 00 00 00       	mov    $0x4,%eax
  c0086f:	bb 01 00 00 00       	mov    $0x1,%ebx
  c00874:	8b 4d 0c             	mov    0xc(%ebp),%ecx
  c00877:	8b 55 10             	mov    0x10(%ebp),%edx
  c0087a:	be 00 00 00 00       	mov    $0x0,%esi
  c0087f:	bf 00 00 00 00       	mov    $0x0,%edi
  c00884:	cd 80                	int    $0x80
  c00886:	89 45 f0             	mov    %eax,-0x10(%ebp)
  c00889:	8b 45 f0             	mov    -0x10(%ebp),%eax
  c0088c:	89 45 ec             	mov    %eax,-0x14(%ebp)
  c0088f:	c7 45 d8 00 00 00 00 	movl   $0x0,-0x28(%ebp)
  c00896:	c7 45 dc 00 00 00 00 	movl   $0x0,-0x24(%ebp)
  c0089d:	c7 45 e0 00 00 00 00 	movl   $0x0,-0x20(%ebp)
  c008a4:	8b 45 10             	mov    0x10(%ebp),%eax
  c008a7:	89 45 dc             	mov    %eax,-0x24(%ebp)
  c008aa:	8b 45 ec             	mov    -0x14(%ebp),%eax
  c008ad:	89 45 e0             	mov    %eax,-0x20(%ebp)
  c008b0:	ff 75 e0             	pushl  -0x20(%ebp)
  c008b3:	ff 75 dc             	pushl  -0x24(%ebp)
  c008b6:	ff 75 d8             	pushl  -0x28(%ebp)
  c008b9:	6a 01                	push   $0x1
  c008bb:	ff 75 08             	pushl  0x8(%ebp)
  c008be:	e8 71 ff ff ff       	call   c00834 <_run>
  c008c3:	83 c4 14             	add    $0x14,%esp
  c008c6:	89 45 e8             	mov    %eax,-0x18(%ebp)
  c008c9:	b8 04 00 00 00       	mov    $0x4,%eax
  c008ce:	bb 00 00 00 00       	mov    $0x0,%ebx
  c008d3:	8b 4d ec             	mov    -0x14(%ebp),%ecx
  c008d6:	ba 00 00 00 00       	mov    $0x0,%edx
  c008db:	be 00 00 00 00       	mov    $0x0,%esi
  c008e0:	bf 00 00 00 00       	mov    $0x0,%edi
  c008e5:	cd 80                	int    $0x80
  c008e7:	89 45 e4             	mov    %eax,-0x1c(%ebp)
  c008ea:	8b 45 e8             	mov    -0x18(%ebp),%eax
  c008ed:	8d 65 f4             	lea    -0xc(%ebp),%esp
  c008f0:	5b                   	pop    %ebx
  c008f1:	5e                   	pop    %esi
  c008f2:	5f                   	pop    %edi
  c008f3:	5d                   	pop    %ebp
  c008f4:	c3                   	ret    
